
UART_ESP32_Test.elf:     file format elf32-littlearm

Sections:
Idx Name          Size      VMA       LMA       File off  Algn
  0 .isr_vector   0000010c  08000000  08000000  00001000  2**0
                  CONTENTS, ALLOC, LOAD, READONLY, DATA
  1 .text         000077b8  08000110  08000110  00001110  2**3
                  CONTENTS, ALLOC, LOAD, READONLY, CODE
  2 .rodata       0000047c  080078c8  080078c8  000088c8  2**3
                  CONTENTS, ALLOC, LOAD, READONLY, DATA
  3 .ARM.extab    00000000  08007d44  08007d44  000091d4  2**0
                  CONTENTS, READONLY
  4 .ARM          00000008  08007d44  08007d44  00008d44  2**2
                  CONTENTS, ALLOC, LOAD, READONLY, DATA
  5 .preinit_array 00000000  08007d4c  08007d4c  000091d4  2**0
                  CONTENTS, ALLOC, LOAD, DATA
  6 .init_array   00000004  08007d4c  08007d4c  00008d4c  2**2
                  CONTENTS, ALLOC, LOAD, READONLY, DATA
  7 .fini_array   00000004  08007d50  08007d50  00008d50  2**2
                  CONTENTS, ALLOC, LOAD, READONLY, DATA
  8 .data         000001d4  20000000  08007d54  00009000  2**2
                  CONTENTS, ALLOC, LOAD, DATA
  9 .bss          000002ec  200001d4  08007f28  000091d4  2**2
                  ALLOC
 10 ._user_heap_stack 00000600  200004c0  08007f28  000094c0  2**0
                  ALLOC
 11 .ARM.attributes 00000029  00000000  00000000  000091d4  2**0
                  CONTENTS, READONLY
 12 .debug_info   0000a447  00000000  00000000  000091fd  2**0
                  CONTENTS, READONLY, DEBUGGING, OCTETS
 13 .debug_abbrev 00001f74  00000000  00000000  00013644  2**0
                  CONTENTS, READONLY, DEBUGGING, OCTETS
 14 .debug_aranges 00000978  00000000  00000000  000155b8  2**3
                  CONTENTS, READONLY, DEBUGGING, OCTETS
 15 .debug_rnglists 00000736  00000000  00000000  00015f30  2**0
                  CONTENTS, READONLY, DEBUGGING, OCTETS
 16 .debug_macro  00018665  00000000  00000000  00016666  2**0
                  CONTENTS, READONLY, DEBUGGING, OCTETS
 17 .debug_line   0000ba8b  00000000  00000000  0002eccb  2**0
                  CONTENTS, READONLY, DEBUGGING, OCTETS
 18 .debug_str    000893f6  00000000  00000000  0003a756  2**0
                  CONTENTS, READONLY, DEBUGGING, OCTETS
 19 .comment      00000043  00000000  00000000  000c3b4c  2**0
                  CONTENTS, READONLY
 20 .debug_frame  000037d8  00000000  00000000  000c3b90  2**2
                  CONTENTS, READONLY, DEBUGGING, OCTETS
 21 .debug_line_str 00000059  00000000  00000000  000c7368  2**0
                  CONTENTS, READONLY, DEBUGGING, OCTETS

Disassembly of section .text:

08000110 <__do_global_dtors_aux>:
 8000110:	b510      	push	{r4, lr}
 8000112:	4c05      	ldr	r4, [pc, #20]	@ (8000128 <__do_global_dtors_aux+0x18>)
 8000114:	7823      	ldrb	r3, [r4, #0]
 8000116:	b933      	cbnz	r3, 8000126 <__do_global_dtors_aux+0x16>
 8000118:	4b04      	ldr	r3, [pc, #16]	@ (800012c <__do_global_dtors_aux+0x1c>)
 800011a:	b113      	cbz	r3, 8000122 <__do_global_dtors_aux+0x12>
 800011c:	4804      	ldr	r0, [pc, #16]	@ (8000130 <__do_global_dtors_aux+0x20>)
 800011e:	f3af 8000 	nop.w
 8000122:	2301      	movs	r3, #1
 8000124:	7023      	strb	r3, [r4, #0]
 8000126:	bd10      	pop	{r4, pc}
 8000128:	200001d4 	.word	0x200001d4
 800012c:	00000000 	.word	0x00000000
 8000130:	080078b0 	.word	0x080078b0

08000134 <frame_dummy>:
 8000134:	b508      	push	{r3, lr}
 8000136:	4b03      	ldr	r3, [pc, #12]	@ (8000144 <frame_dummy+0x10>)
 8000138:	b11b      	cbz	r3, 8000142 <frame_dummy+0xe>
 800013a:	4903      	ldr	r1, [pc, #12]	@ (8000148 <frame_dummy+0x14>)
 800013c:	4803      	ldr	r0, [pc, #12]	@ (800014c <frame_dummy+0x18>)
 800013e:	f3af 8000 	nop.w
 8000142:	bd08      	pop	{r3, pc}
 8000144:	00000000 	.word	0x00000000
 8000148:	200001d8 	.word	0x200001d8
 800014c:	080078b0 	.word	0x080078b0

08000150 <strlen>:
 8000150:	4603      	mov	r3, r0
 8000152:	f813 2b01 	ldrb.w	r2, [r3], #1
 8000156:	2a00      	cmp	r2, #0
 8000158:	d1fb      	bne.n	8000152 <strlen+0x2>
 800015a:	1a18      	subs	r0, r3, r0
 800015c:	3801      	subs	r0, #1
 800015e:	4770      	bx	lr

08000160 <__aeabi_drsub>:
 8000160:	f081 4100 	eor.w	r1, r1, #2147483648	@ 0x80000000
 8000164:	e002      	b.n	800016c <__adddf3>
 8000166:	bf00      	nop

08000168 <__aeabi_dsub>:
 8000168:	f083 4300 	eor.w	r3, r3, #2147483648	@ 0x80000000

0800016c <__adddf3>:
 800016c:	b530      	push	{r4, r5, lr}
 800016e:	ea4f 0441 	mov.w	r4, r1, lsl #1
 8000172:	ea4f 0543 	mov.w	r5, r3, lsl #1
 8000176:	ea94 0f05 	teq	r4, r5
 800017a:	bf08      	it	eq
 800017c:	ea90 0f02 	teqeq	r0, r2
 8000180:	bf1f      	itttt	ne
 8000182:	ea54 0c00 	orrsne.w	ip, r4, r0
 8000186:	ea55 0c02 	orrsne.w	ip, r5, r2
 800018a:	ea7f 5c64 	mvnsne.w	ip, r4, asr #21
 800018e:	ea7f 5c65 	mvnsne.w	ip, r5, asr #21
 8000192:	f000 80e2 	beq.w	800035a <__adddf3+0x1ee>
 8000196:	ea4f 5454 	mov.w	r4, r4, lsr #21
 800019a:	ebd4 5555 	rsbs	r5, r4, r5, lsr #21
 800019e:	bfb8      	it	lt
 80001a0:	426d      	neglt	r5, r5
 80001a2:	dd0c      	ble.n	80001be <__adddf3+0x52>
 80001a4:	442c      	add	r4, r5
 80001a6:	ea80 0202 	eor.w	r2, r0, r2
 80001aa:	ea81 0303 	eor.w	r3, r1, r3
 80001ae:	ea82 0000 	eor.w	r0, r2, r0
 80001b2:	ea83 0101 	eor.w	r1, r3, r1
 80001b6:	ea80 0202 	eor.w	r2, r0, r2
 80001ba:	ea81 0303 	eor.w	r3, r1, r3
 80001be:	2d36      	cmp	r5, #54	@ 0x36
 80001c0:	bf88      	it	hi
 80001c2:	bd30      	pophi	{r4, r5, pc}
 80001c4:	f011 4f00 	tst.w	r1, #2147483648	@ 0x80000000
 80001c8:	ea4f 3101 	mov.w	r1, r1, lsl #12
 80001cc:	f44f 1c80 	mov.w	ip, #1048576	@ 0x100000
 80001d0:	ea4c 3111 	orr.w	r1, ip, r1, lsr #12
 80001d4:	d002      	beq.n	80001dc <__adddf3+0x70>
 80001d6:	4240      	negs	r0, r0
 80001d8:	eb61 0141 	sbc.w	r1, r1, r1, lsl #1
 80001dc:	f013 4f00 	tst.w	r3, #2147483648	@ 0x80000000
 80001e0:	ea4f 3303 	mov.w	r3, r3, lsl #12
 80001e4:	ea4c 3313 	orr.w	r3, ip, r3, lsr #12
 80001e8:	d002      	beq.n	80001f0 <__adddf3+0x84>
 80001ea:	4252      	negs	r2, r2
 80001ec:	eb63 0343 	sbc.w	r3, r3, r3, lsl #1
 80001f0:	ea94 0f05 	teq	r4, r5
 80001f4:	f000 80a7 	beq.w	8000346 <__adddf3+0x1da>
 80001f8:	f1a4 0401 	sub.w	r4, r4, #1
 80001fc:	f1d5 0e20 	rsbs	lr, r5, #32
 8000200:	db0d      	blt.n	800021e <__adddf3+0xb2>
 8000202:	fa02 fc0e 	lsl.w	ip, r2, lr
 8000206:	fa22 f205 	lsr.w	r2, r2, r5
 800020a:	1880      	adds	r0, r0, r2
 800020c:	f141 0100 	adc.w	r1, r1, #0
 8000210:	fa03 f20e 	lsl.w	r2, r3, lr
 8000214:	1880      	adds	r0, r0, r2
 8000216:	fa43 f305 	asr.w	r3, r3, r5
 800021a:	4159      	adcs	r1, r3
 800021c:	e00e      	b.n	800023c <__adddf3+0xd0>
 800021e:	f1a5 0520 	sub.w	r5, r5, #32
 8000222:	f10e 0e20 	add.w	lr, lr, #32
 8000226:	2a01      	cmp	r2, #1
 8000228:	fa03 fc0e 	lsl.w	ip, r3, lr
 800022c:	bf28      	it	cs
 800022e:	f04c 0c02 	orrcs.w	ip, ip, #2
 8000232:	fa43 f305 	asr.w	r3, r3, r5
 8000236:	18c0      	adds	r0, r0, r3
 8000238:	eb51 71e3 	adcs.w	r1, r1, r3, asr #31
 800023c:	f001 4500 	and.w	r5, r1, #2147483648	@ 0x80000000
 8000240:	d507      	bpl.n	8000252 <__adddf3+0xe6>
 8000242:	f04f 0e00 	mov.w	lr, #0
 8000246:	f1dc 0c00 	rsbs	ip, ip, #0
 800024a:	eb7e 0000 	sbcs.w	r0, lr, r0
 800024e:	eb6e 0101 	sbc.w	r1, lr, r1
 8000252:	f5b1 1f80 	cmp.w	r1, #1048576	@ 0x100000
 8000256:	d31b      	bcc.n	8000290 <__adddf3+0x124>
 8000258:	f5b1 1f00 	cmp.w	r1, #2097152	@ 0x200000
 800025c:	d30c      	bcc.n	8000278 <__adddf3+0x10c>
 800025e:	0849      	lsrs	r1, r1, #1
 8000260:	ea5f 0030 	movs.w	r0, r0, rrx
 8000264:	ea4f 0c3c 	mov.w	ip, ip, rrx
 8000268:	f104 0401 	add.w	r4, r4, #1
 800026c:	ea4f 5244 	mov.w	r2, r4, lsl #21
 8000270:	f512 0f80 	cmn.w	r2, #4194304	@ 0x400000
 8000274:	f080 809a 	bcs.w	80003ac <__adddf3+0x240>
 8000278:	f1bc 4f00 	cmp.w	ip, #2147483648	@ 0x80000000
 800027c:	bf08      	it	eq
 800027e:	ea5f 0c50 	movseq.w	ip, r0, lsr #1
 8000282:	f150 0000 	adcs.w	r0, r0, #0
 8000286:	eb41 5104 	adc.w	r1, r1, r4, lsl #20
 800028a:	ea41 0105 	orr.w	r1, r1, r5
 800028e:	bd30      	pop	{r4, r5, pc}
 8000290:	ea5f 0c4c 	movs.w	ip, ip, lsl #1
 8000294:	4140      	adcs	r0, r0
 8000296:	eb41 0101 	adc.w	r1, r1, r1
 800029a:	3c01      	subs	r4, #1
 800029c:	bf28      	it	cs
 800029e:	f5b1 1f80 	cmpcs.w	r1, #1048576	@ 0x100000
 80002a2:	d2e9      	bcs.n	8000278 <__adddf3+0x10c>
 80002a4:	f091 0f00 	teq	r1, #0
 80002a8:	bf04      	itt	eq
 80002aa:	4601      	moveq	r1, r0
 80002ac:	2000      	moveq	r0, #0
 80002ae:	fab1 f381 	clz	r3, r1
 80002b2:	bf08      	it	eq
 80002b4:	3320      	addeq	r3, #32
 80002b6:	f1a3 030b 	sub.w	r3, r3, #11
 80002ba:	f1b3 0220 	subs.w	r2, r3, #32
 80002be:	da0c      	bge.n	80002da <__adddf3+0x16e>
 80002c0:	320c      	adds	r2, #12
 80002c2:	dd08      	ble.n	80002d6 <__adddf3+0x16a>
 80002c4:	f102 0c14 	add.w	ip, r2, #20
 80002c8:	f1c2 020c 	rsb	r2, r2, #12
 80002cc:	fa01 f00c 	lsl.w	r0, r1, ip
 80002d0:	fa21 f102 	lsr.w	r1, r1, r2
 80002d4:	e00c      	b.n	80002f0 <__adddf3+0x184>
 80002d6:	f102 0214 	add.w	r2, r2, #20
 80002da:	bfd8      	it	le
 80002dc:	f1c2 0c20 	rsble	ip, r2, #32
 80002e0:	fa01 f102 	lsl.w	r1, r1, r2
 80002e4:	fa20 fc0c 	lsr.w	ip, r0, ip
 80002e8:	bfdc      	itt	le
 80002ea:	ea41 010c 	orrle.w	r1, r1, ip
 80002ee:	4090      	lslle	r0, r2
 80002f0:	1ae4      	subs	r4, r4, r3
 80002f2:	bfa2      	ittt	ge
 80002f4:	eb01 5104 	addge.w	r1, r1, r4, lsl #20
 80002f8:	4329      	orrge	r1, r5
 80002fa:	bd30      	popge	{r4, r5, pc}
 80002fc:	ea6f 0404 	mvn.w	r4, r4
 8000300:	3c1f      	subs	r4, #31
 8000302:	da1c      	bge.n	800033e <__adddf3+0x1d2>
 8000304:	340c      	adds	r4, #12
 8000306:	dc0e      	bgt.n	8000326 <__adddf3+0x1ba>
 8000308:	f104 0414 	add.w	r4, r4, #20
 800030c:	f1c4 0220 	rsb	r2, r4, #32
 8000310:	fa20 f004 	lsr.w	r0, r0, r4
 8000314:	fa01 f302 	lsl.w	r3, r1, r2
 8000318:	ea40 0003 	orr.w	r0, r0, r3
 800031c:	fa21 f304 	lsr.w	r3, r1, r4
 8000320:	ea45 0103 	orr.w	r1, r5, r3
 8000324:	bd30      	pop	{r4, r5, pc}
 8000326:	f1c4 040c 	rsb	r4, r4, #12
 800032a:	f1c4 0220 	rsb	r2, r4, #32
 800032e:	fa20 f002 	lsr.w	r0, r0, r2
 8000332:	fa01 f304 	lsl.w	r3, r1, r4
 8000336:	ea40 0003 	orr.w	r0, r0, r3
 800033a:	4629      	mov	r1, r5
 800033c:	bd30      	pop	{r4, r5, pc}
 800033e:	fa21 f004 	lsr.w	r0, r1, r4
 8000342:	4629      	mov	r1, r5
 8000344:	bd30      	pop	{r4, r5, pc}
 8000346:	f094 0f00 	teq	r4, #0
 800034a:	f483 1380 	eor.w	r3, r3, #1048576	@ 0x100000
 800034e:	bf06      	itte	eq
 8000350:	f481 1180 	eoreq.w	r1, r1, #1048576	@ 0x100000
 8000354:	3401      	addeq	r4, #1
 8000356:	3d01      	subne	r5, #1
 8000358:	e74e      	b.n	80001f8 <__adddf3+0x8c>
 800035a:	ea7f 5c64 	mvns.w	ip, r4, asr #21
 800035e:	bf18      	it	ne
 8000360:	ea7f 5c65 	mvnsne.w	ip, r5, asr #21
 8000364:	d029      	beq.n	80003ba <__adddf3+0x24e>
 8000366:	ea94 0f05 	teq	r4, r5
 800036a:	bf08      	it	eq
 800036c:	ea90 0f02 	teqeq	r0, r2
 8000370:	d005      	beq.n	800037e <__adddf3+0x212>
 8000372:	ea54 0c00 	orrs.w	ip, r4, r0
 8000376:	bf04      	itt	eq
 8000378:	4619      	moveq	r1, r3
 800037a:	4610      	moveq	r0, r2
 800037c:	bd30      	pop	{r4, r5, pc}
 800037e:	ea91 0f03 	teq	r1, r3
 8000382:	bf1e      	ittt	ne
 8000384:	2100      	movne	r1, #0
 8000386:	2000      	movne	r0, #0
 8000388:	bd30      	popne	{r4, r5, pc}
 800038a:	ea5f 5c54 	movs.w	ip, r4, lsr #21
 800038e:	d105      	bne.n	800039c <__adddf3+0x230>
 8000390:	0040      	lsls	r0, r0, #1
 8000392:	4149      	adcs	r1, r1
 8000394:	bf28      	it	cs
 8000396:	f041 4100 	orrcs.w	r1, r1, #2147483648	@ 0x80000000
 800039a:	bd30      	pop	{r4, r5, pc}
 800039c:	f514 0480 	adds.w	r4, r4, #4194304	@ 0x400000
 80003a0:	bf3c      	itt	cc
 80003a2:	f501 1180 	addcc.w	r1, r1, #1048576	@ 0x100000
 80003a6:	bd30      	popcc	{r4, r5, pc}
 80003a8:	f001 4500 	and.w	r5, r1, #2147483648	@ 0x80000000
 80003ac:	f045 41fe 	orr.w	r1, r5, #2130706432	@ 0x7f000000
 80003b0:	f441 0170 	orr.w	r1, r1, #15728640	@ 0xf00000
 80003b4:	f04f 0000 	mov.w	r0, #0
 80003b8:	bd30      	pop	{r4, r5, pc}
 80003ba:	ea7f 5c64 	mvns.w	ip, r4, asr #21
 80003be:	bf1a      	itte	ne
 80003c0:	4619      	movne	r1, r3
 80003c2:	4610      	movne	r0, r2
 80003c4:	ea7f 5c65 	mvnseq.w	ip, r5, asr #21
 80003c8:	bf1c      	itt	ne
 80003ca:	460b      	movne	r3, r1
 80003cc:	4602      	movne	r2, r0
 80003ce:	ea50 3401 	orrs.w	r4, r0, r1, lsl #12
 80003d2:	bf06      	itte	eq
 80003d4:	ea52 3503 	orrseq.w	r5, r2, r3, lsl #12
 80003d8:	ea91 0f03 	teqeq	r1, r3
 80003dc:	f441 2100 	orrne.w	r1, r1, #524288	@ 0x80000
 80003e0:	bd30      	pop	{r4, r5, pc}
 80003e2:	bf00      	nop

080003e4 <__aeabi_ui2d>:
 80003e4:	f090 0f00 	teq	r0, #0
 80003e8:	bf04      	itt	eq
 80003ea:	2100      	moveq	r1, #0
 80003ec:	4770      	bxeq	lr
 80003ee:	b530      	push	{r4, r5, lr}
 80003f0:	f44f 6480 	mov.w	r4, #1024	@ 0x400
 80003f4:	f104 0432 	add.w	r4, r4, #50	@ 0x32
 80003f8:	f04f 0500 	mov.w	r5, #0
 80003fc:	f04f 0100 	mov.w	r1, #0
 8000400:	e750      	b.n	80002a4 <__adddf3+0x138>
 8000402:	bf00      	nop

08000404 <__aeabi_i2d>:
 8000404:	f090 0f00 	teq	r0, #0
 8000408:	bf04      	itt	eq
 800040a:	2100      	moveq	r1, #0
 800040c:	4770      	bxeq	lr
 800040e:	b530      	push	{r4, r5, lr}
 8000410:	f44f 6480 	mov.w	r4, #1024	@ 0x400
 8000414:	f104 0432 	add.w	r4, r4, #50	@ 0x32
 8000418:	f010 4500 	ands.w	r5, r0, #2147483648	@ 0x80000000
 800041c:	bf48      	it	mi
 800041e:	4240      	negmi	r0, r0
 8000420:	f04f 0100 	mov.w	r1, #0
 8000424:	e73e      	b.n	80002a4 <__adddf3+0x138>
 8000426:	bf00      	nop

08000428 <__aeabi_f2d>:
 8000428:	0042      	lsls	r2, r0, #1
 800042a:	ea4f 01e2 	mov.w	r1, r2, asr #3
 800042e:	ea4f 0131 	mov.w	r1, r1, rrx
 8000432:	ea4f 7002 	mov.w	r0, r2, lsl #28
 8000436:	bf1f      	itttt	ne
 8000438:	f012 437f 	andsne.w	r3, r2, #4278190080	@ 0xff000000
 800043c:	f093 4f7f 	teqne	r3, #4278190080	@ 0xff000000
 8000440:	f081 5160 	eorne.w	r1, r1, #939524096	@ 0x38000000
 8000444:	4770      	bxne	lr
 8000446:	f032 427f 	bics.w	r2, r2, #4278190080	@ 0xff000000
 800044a:	bf08      	it	eq
 800044c:	4770      	bxeq	lr
 800044e:	f093 4f7f 	teq	r3, #4278190080	@ 0xff000000
 8000452:	bf04      	itt	eq
 8000454:	f441 2100 	orreq.w	r1, r1, #524288	@ 0x80000
 8000458:	4770      	bxeq	lr
 800045a:	b530      	push	{r4, r5, lr}
 800045c:	f44f 7460 	mov.w	r4, #896	@ 0x380
 8000460:	f001 4500 	and.w	r5, r1, #2147483648	@ 0x80000000
 8000464:	f021 4100 	bic.w	r1, r1, #2147483648	@ 0x80000000
 8000468:	e71c      	b.n	80002a4 <__adddf3+0x138>
 800046a:	bf00      	nop

0800046c <__aeabi_ul2d>:
 800046c:	ea50 0201 	orrs.w	r2, r0, r1
 8000470:	bf08      	it	eq
 8000472:	4770      	bxeq	lr
 8000474:	b530      	push	{r4, r5, lr}
 8000476:	f04f 0500 	mov.w	r5, #0
 800047a:	e00a      	b.n	8000492 <__aeabi_l2d+0x16>

0800047c <__aeabi_l2d>:
 800047c:	ea50 0201 	orrs.w	r2, r0, r1
 8000480:	bf08      	it	eq
 8000482:	4770      	bxeq	lr
 8000484:	b530      	push	{r4, r5, lr}
 8000486:	f011 4500 	ands.w	r5, r1, #2147483648	@ 0x80000000
 800048a:	d502      	bpl.n	8000492 <__aeabi_l2d+0x16>
 800048c:	4240      	negs	r0, r0
 800048e:	eb61 0141 	sbc.w	r1, r1, r1, lsl #1
 8000492:	f44f 6480 	mov.w	r4, #1024	@ 0x400
 8000496:	f104 0432 	add.w	r4, r4, #50	@ 0x32
 800049a:	ea5f 5c91 	movs.w	ip, r1, lsr #22
 800049e:	f43f aed8 	beq.w	8000252 <__adddf3+0xe6>
 80004a2:	f04f 0203 	mov.w	r2, #3
 80004a6:	ea5f 0cdc 	movs.w	ip, ip, lsr #3
 80004aa:	bf18      	it	ne
 80004ac:	3203      	addne	r2, #3
 80004ae:	ea5f 0cdc 	movs.w	ip, ip, lsr #3
 80004b2:	bf18      	it	ne
 80004b4:	3203      	addne	r2, #3
 80004b6:	eb02 02dc 	add.w	r2, r2, ip, lsr #3
 80004ba:	f1c2 0320 	rsb	r3, r2, #32
 80004be:	fa00 fc03 	lsl.w	ip, r0, r3
 80004c2:	fa20 f002 	lsr.w	r0, r0, r2
 80004c6:	fa01 fe03 	lsl.w	lr, r1, r3
 80004ca:	ea40 000e 	orr.w	r0, r0, lr
 80004ce:	fa21 f102 	lsr.w	r1, r1, r2
 80004d2:	4414      	add	r4, r2
 80004d4:	e6bd      	b.n	8000252 <__adddf3+0xe6>
 80004d6:	bf00      	nop

080004d8 <__aeabi_dmul>:
 80004d8:	b570      	push	{r4, r5, r6, lr}
 80004da:	f04f 0cff 	mov.w	ip, #255	@ 0xff
 80004de:	f44c 6ce0 	orr.w	ip, ip, #1792	@ 0x700
 80004e2:	ea1c 5411 	ands.w	r4, ip, r1, lsr #20
 80004e6:	bf1d      	ittte	ne
 80004e8:	ea1c 5513 	andsne.w	r5, ip, r3, lsr #20
 80004ec:	ea94 0f0c 	teqne	r4, ip
 80004f0:	ea95 0f0c 	teqne	r5, ip
 80004f4:	f000 f8de 	bleq	80006b4 <__aeabi_dmul+0x1dc>
 80004f8:	442c      	add	r4, r5
 80004fa:	ea81 0603 	eor.w	r6, r1, r3
 80004fe:	ea21 514c 	bic.w	r1, r1, ip, lsl #21
 8000502:	ea23 534c 	bic.w	r3, r3, ip, lsl #21
 8000506:	ea50 3501 	orrs.w	r5, r0, r1, lsl #12
 800050a:	bf18      	it	ne
 800050c:	ea52 3503 	orrsne.w	r5, r2, r3, lsl #12
 8000510:	f441 1180 	orr.w	r1, r1, #1048576	@ 0x100000
 8000514:	f443 1380 	orr.w	r3, r3, #1048576	@ 0x100000
 8000518:	d038      	beq.n	800058c <__aeabi_dmul+0xb4>
 800051a:	fba0 ce02 	umull	ip, lr, r0, r2
 800051e:	f04f 0500 	mov.w	r5, #0
 8000522:	fbe1 e502 	umlal	lr, r5, r1, r2
 8000526:	f006 4200 	and.w	r2, r6, #2147483648	@ 0x80000000
 800052a:	fbe0 e503 	umlal	lr, r5, r0, r3
 800052e:	f04f 0600 	mov.w	r6, #0
 8000532:	fbe1 5603 	umlal	r5, r6, r1, r3
 8000536:	f09c 0f00 	teq	ip, #0
 800053a:	bf18      	it	ne
 800053c:	f04e 0e01 	orrne.w	lr, lr, #1
 8000540:	f1a4 04ff 	sub.w	r4, r4, #255	@ 0xff
 8000544:	f5b6 7f00 	cmp.w	r6, #512	@ 0x200
 8000548:	f564 7440 	sbc.w	r4, r4, #768	@ 0x300
 800054c:	d204      	bcs.n	8000558 <__aeabi_dmul+0x80>
 800054e:	ea5f 0e4e 	movs.w	lr, lr, lsl #1
 8000552:	416d      	adcs	r5, r5
 8000554:	eb46 0606 	adc.w	r6, r6, r6
 8000558:	ea42 21c6 	orr.w	r1, r2, r6, lsl #11
 800055c:	ea41 5155 	orr.w	r1, r1, r5, lsr #21
 8000560:	ea4f 20c5 	mov.w	r0, r5, lsl #11
 8000564:	ea40 505e 	orr.w	r0, r0, lr, lsr #21
 8000568:	ea4f 2ece 	mov.w	lr, lr, lsl #11
 800056c:	f1b4 0cfd 	subs.w	ip, r4, #253	@ 0xfd
 8000570:	bf88      	it	hi
 8000572:	f5bc 6fe0 	cmphi.w	ip, #1792	@ 0x700
 8000576:	d81e      	bhi.n	80005b6 <__aeabi_dmul+0xde>
 8000578:	f1be 4f00 	cmp.w	lr, #2147483648	@ 0x80000000
 800057c:	bf08      	it	eq
 800057e:	ea5f 0e50 	movseq.w	lr, r0, lsr #1
 8000582:	f150 0000 	adcs.w	r0, r0, #0
 8000586:	eb41 5104 	adc.w	r1, r1, r4, lsl #20
 800058a:	bd70      	pop	{r4, r5, r6, pc}
 800058c:	f006 4600 	and.w	r6, r6, #2147483648	@ 0x80000000
 8000590:	ea46 0101 	orr.w	r1, r6, r1
 8000594:	ea40 0002 	orr.w	r0, r0, r2
 8000598:	ea81 0103 	eor.w	r1, r1, r3
 800059c:	ebb4 045c 	subs.w	r4, r4, ip, lsr #1
 80005a0:	bfc2      	ittt	gt
 80005a2:	ebd4 050c 	rsbsgt	r5, r4, ip
 80005a6:	ea41 5104 	orrgt.w	r1, r1, r4, lsl #20
 80005aa:	bd70      	popgt	{r4, r5, r6, pc}
 80005ac:	f441 1180 	orr.w	r1, r1, #1048576	@ 0x100000
 80005b0:	f04f 0e00 	mov.w	lr, #0
 80005b4:	3c01      	subs	r4, #1
 80005b6:	f300 80ab 	bgt.w	8000710 <__aeabi_dmul+0x238>
 80005ba:	f114 0f36 	cmn.w	r4, #54	@ 0x36
 80005be:	bfde      	ittt	le
 80005c0:	2000      	movle	r0, #0
 80005c2:	f001 4100 	andle.w	r1, r1, #2147483648	@ 0x80000000
 80005c6:	bd70      	pople	{r4, r5, r6, pc}
 80005c8:	f1c4 0400 	rsb	r4, r4, #0
 80005cc:	3c20      	subs	r4, #32
 80005ce:	da35      	bge.n	800063c <__aeabi_dmul+0x164>
 80005d0:	340c      	adds	r4, #12
 80005d2:	dc1b      	bgt.n	800060c <__aeabi_dmul+0x134>
 80005d4:	f104 0414 	add.w	r4, r4, #20
 80005d8:	f1c4 0520 	rsb	r5, r4, #32
 80005dc:	fa00 f305 	lsl.w	r3, r0, r5
 80005e0:	fa20 f004 	lsr.w	r0, r0, r4
 80005e4:	fa01 f205 	lsl.w	r2, r1, r5
 80005e8:	ea40 0002 	orr.w	r0, r0, r2
 80005ec:	f001 4200 	and.w	r2, r1, #2147483648	@ 0x80000000
 80005f0:	f021 4100 	bic.w	r1, r1, #2147483648	@ 0x80000000
 80005f4:	eb10 70d3 	adds.w	r0, r0, r3, lsr #31
 80005f8:	fa21 f604 	lsr.w	r6, r1, r4
 80005fc:	eb42 0106 	adc.w	r1, r2, r6
 8000600:	ea5e 0e43 	orrs.w	lr, lr, r3, lsl #1
 8000604:	bf08      	it	eq
 8000606:	ea20 70d3 	biceq.w	r0, r0, r3, lsr #31
 800060a:	bd70      	pop	{r4, r5, r6, pc}
 800060c:	f1c4 040c 	rsb	r4, r4, #12
 8000610:	f1c4 0520 	rsb	r5, r4, #32
 8000614:	fa00 f304 	lsl.w	r3, r0, r4
 8000618:	fa20 f005 	lsr.w	r0, r0, r5
 800061c:	fa01 f204 	lsl.w	r2, r1, r4
 8000620:	ea40 0002 	orr.w	r0, r0, r2
 8000624:	f001 4100 	and.w	r1, r1, #2147483648	@ 0x80000000
 8000628:	eb10 70d3 	adds.w	r0, r0, r3, lsr #31
 800062c:	f141 0100 	adc.w	r1, r1, #0
 8000630:	ea5e 0e43 	orrs.w	lr, lr, r3, lsl #1
 8000634:	bf08      	it	eq
 8000636:	ea20 70d3 	biceq.w	r0, r0, r3, lsr #31
 800063a:	bd70      	pop	{r4, r5, r6, pc}
 800063c:	f1c4 0520 	rsb	r5, r4, #32
 8000640:	fa00 f205 	lsl.w	r2, r0, r5
 8000644:	ea4e 0e02 	orr.w	lr, lr, r2
 8000648:	fa20 f304 	lsr.w	r3, r0, r4
 800064c:	fa01 f205 	lsl.w	r2, r1, r5
 8000650:	ea43 0302 	orr.w	r3, r3, r2
 8000654:	fa21 f004 	lsr.w	r0, r1, r4
 8000658:	f001 4100 	and.w	r1, r1, #2147483648	@ 0x80000000
 800065c:	fa21 f204 	lsr.w	r2, r1, r4
 8000660:	ea20 0002 	bic.w	r0, r0, r2
 8000664:	eb00 70d3 	add.w	r0, r0, r3, lsr #31
 8000668:	ea5e 0e43 	orrs.w	lr, lr, r3, lsl #1
 800066c:	bf08      	it	eq
 800066e:	ea20 70d3 	biceq.w	r0, r0, r3, lsr #31
 8000672:	bd70      	pop	{r4, r5, r6, pc}
 8000674:	f094 0f00 	teq	r4, #0
 8000678:	d10f      	bne.n	800069a <__aeabi_dmul+0x1c2>
 800067a:	f001 4600 	and.w	r6, r1, #2147483648	@ 0x80000000
 800067e:	0040      	lsls	r0, r0, #1
 8000680:	eb41 0101 	adc.w	r1, r1, r1
 8000684:	f411 1f80 	tst.w	r1, #1048576	@ 0x100000
 8000688:	bf08      	it	eq
 800068a:	3c01      	subeq	r4, #1
 800068c:	d0f7      	beq.n	800067e <__aeabi_dmul+0x1a6>
 800068e:	ea41 0106 	orr.w	r1, r1, r6
 8000692:	f095 0f00 	teq	r5, #0
 8000696:	bf18      	it	ne
 8000698:	4770      	bxne	lr
 800069a:	f003 4600 	and.w	r6, r3, #2147483648	@ 0x80000000
 800069e:	0052      	lsls	r2, r2, #1
 80006a0:	eb43 0303 	adc.w	r3, r3, r3
 80006a4:	f413 1f80 	tst.w	r3, #1048576	@ 0x100000
 80006a8:	bf08      	it	eq
 80006aa:	3d01      	subeq	r5, #1
 80006ac:	d0f7      	beq.n	800069e <__aeabi_dmul+0x1c6>
 80006ae:	ea43 0306 	orr.w	r3, r3, r6
 80006b2:	4770      	bx	lr
 80006b4:	ea94 0f0c 	teq	r4, ip
 80006b8:	ea0c 5513 	and.w	r5, ip, r3, lsr #20
 80006bc:	bf18      	it	ne
 80006be:	ea95 0f0c 	teqne	r5, ip
 80006c2:	d00c      	beq.n	80006de <__aeabi_dmul+0x206>
 80006c4:	ea50 0641 	orrs.w	r6, r0, r1, lsl #1
 80006c8:	bf18      	it	ne
 80006ca:	ea52 0643 	orrsne.w	r6, r2, r3, lsl #1
 80006ce:	d1d1      	bne.n	8000674 <__aeabi_dmul+0x19c>
 80006d0:	ea81 0103 	eor.w	r1, r1, r3
 80006d4:	f001 4100 	and.w	r1, r1, #2147483648	@ 0x80000000
 80006d8:	f04f 0000 	mov.w	r0, #0
 80006dc:	bd70      	pop	{r4, r5, r6, pc}
 80006de:	ea50 0641 	orrs.w	r6, r0, r1, lsl #1
 80006e2:	bf06      	itte	eq
 80006e4:	4610      	moveq	r0, r2
 80006e6:	4619      	moveq	r1, r3
 80006e8:	ea52 0643 	orrsne.w	r6, r2, r3, lsl #1
 80006ec:	d019      	beq.n	8000722 <__aeabi_dmul+0x24a>
 80006ee:	ea94 0f0c 	teq	r4, ip
 80006f2:	d102      	bne.n	80006fa <__aeabi_dmul+0x222>
 80006f4:	ea50 3601 	orrs.w	r6, r0, r1, lsl #12
 80006f8:	d113      	bne.n	8000722 <__aeabi_dmul+0x24a>
 80006fa:	ea95 0f0c 	teq	r5, ip
 80006fe:	d105      	bne.n	800070c <__aeabi_dmul+0x234>
 8000700:	ea52 3603 	orrs.w	r6, r2, r3, lsl #12
 8000704:	bf1c      	itt	ne
 8000706:	4610      	movne	r0, r2
 8000708:	4619      	movne	r1, r3
 800070a:	d10a      	bne.n	8000722 <__aeabi_dmul+0x24a>
 800070c:	ea81 0103 	eor.w	r1, r1, r3
 8000710:	f001 4100 	and.w	r1, r1, #2147483648	@ 0x80000000
 8000714:	f041 41fe 	orr.w	r1, r1, #2130706432	@ 0x7f000000
 8000718:	f441 0170 	orr.w	r1, r1, #15728640	@ 0xf00000
 800071c:	f04f 0000 	mov.w	r0, #0
 8000720:	bd70      	pop	{r4, r5, r6, pc}
 8000722:	f041 41fe 	orr.w	r1, r1, #2130706432	@ 0x7f000000
 8000726:	f441 0178 	orr.w	r1, r1, #16252928	@ 0xf80000
 800072a:	bd70      	pop	{r4, r5, r6, pc}

0800072c <__aeabi_ddiv>:
 800072c:	b570      	push	{r4, r5, r6, lr}
 800072e:	f04f 0cff 	mov.w	ip, #255	@ 0xff
 8000732:	f44c 6ce0 	orr.w	ip, ip, #1792	@ 0x700
 8000736:	ea1c 5411 	ands.w	r4, ip, r1, lsr #20
 800073a:	bf1d      	ittte	ne
 800073c:	ea1c 5513 	andsne.w	r5, ip, r3, lsr #20
 8000740:	ea94 0f0c 	teqne	r4, ip
 8000744:	ea95 0f0c 	teqne	r5, ip
 8000748:	f000 f8a7 	bleq	800089a <__aeabi_ddiv+0x16e>
 800074c:	eba4 0405 	sub.w	r4, r4, r5
 8000750:	ea81 0e03 	eor.w	lr, r1, r3
 8000754:	ea52 3503 	orrs.w	r5, r2, r3, lsl #12
 8000758:	ea4f 3101 	mov.w	r1, r1, lsl #12
 800075c:	f000 8088 	beq.w	8000870 <__aeabi_ddiv+0x144>
 8000760:	ea4f 3303 	mov.w	r3, r3, lsl #12
 8000764:	f04f 5580 	mov.w	r5, #268435456	@ 0x10000000
 8000768:	ea45 1313 	orr.w	r3, r5, r3, lsr #4
 800076c:	ea43 6312 	orr.w	r3, r3, r2, lsr #24
 8000770:	ea4f 2202 	mov.w	r2, r2, lsl #8
 8000774:	ea45 1511 	orr.w	r5, r5, r1, lsr #4
 8000778:	ea45 6510 	orr.w	r5, r5, r0, lsr #24
 800077c:	ea4f 2600 	mov.w	r6, r0, lsl #8
 8000780:	f00e 4100 	and.w	r1, lr, #2147483648	@ 0x80000000
 8000784:	429d      	cmp	r5, r3
 8000786:	bf08      	it	eq
 8000788:	4296      	cmpeq	r6, r2
 800078a:	f144 04fd 	adc.w	r4, r4, #253	@ 0xfd
 800078e:	f504 7440 	add.w	r4, r4, #768	@ 0x300
 8000792:	d202      	bcs.n	800079a <__aeabi_ddiv+0x6e>
 8000794:	085b      	lsrs	r3, r3, #1
 8000796:	ea4f 0232 	mov.w	r2, r2, rrx
 800079a:	1ab6      	subs	r6, r6, r2
 800079c:	eb65 0503 	sbc.w	r5, r5, r3
 80007a0:	085b      	lsrs	r3, r3, #1
 80007a2:	ea4f 0232 	mov.w	r2, r2, rrx
 80007a6:	f44f 1080 	mov.w	r0, #1048576	@ 0x100000
 80007aa:	f44f 2c00 	mov.w	ip, #524288	@ 0x80000
 80007ae:	ebb6 0e02 	subs.w	lr, r6, r2
 80007b2:	eb75 0e03 	sbcs.w	lr, r5, r3
 80007b6:	bf22      	ittt	cs
 80007b8:	1ab6      	subcs	r6, r6, r2
 80007ba:	4675      	movcs	r5, lr
 80007bc:	ea40 000c 	orrcs.w	r0, r0, ip
 80007c0:	085b      	lsrs	r3, r3, #1
 80007c2:	ea4f 0232 	mov.w	r2, r2, rrx
 80007c6:	ebb6 0e02 	subs.w	lr, r6, r2
 80007ca:	eb75 0e03 	sbcs.w	lr, r5, r3
 80007ce:	bf22      	ittt	cs
 80007d0:	1ab6      	subcs	r6, r6, r2
 80007d2:	4675      	movcs	r5, lr
 80007d4:	ea40 005c 	orrcs.w	r0, r0, ip, lsr #1
 80007d8:	085b      	lsrs	r3, r3, #1
 80007da:	ea4f 0232 	mov.w	r2, r2, rrx
 80007de:	ebb6 0e02 	subs.w	lr, r6, r2
 80007e2:	eb75 0e03 	sbcs.w	lr, r5, r3
 80007e6:	bf22      	ittt	cs
 80007e8:	1ab6      	subcs	r6, r6, r2
 80007ea:	4675      	movcs	r5, lr
 80007ec:	ea40 009c 	orrcs.w	r0, r0, ip, lsr #2
 80007f0:	085b      	lsrs	r3, r3, #1
 80007f2:	ea4f 0232 	mov.w	r2, r2, rrx
 80007f6:	ebb6 0e02 	subs.w	lr, r6, r2
 80007fa:	eb75 0e03 	sbcs.w	lr, r5, r3
 80007fe:	bf22      	ittt	cs
 8000800:	1ab6      	subcs	r6, r6, r2
 8000802:	4675      	movcs	r5, lr
 8000804:	ea40 00dc 	orrcs.w	r0, r0, ip, lsr #3
 8000808:	ea55 0e06 	orrs.w	lr, r5, r6
 800080c:	d018      	beq.n	8000840 <__aeabi_ddiv+0x114>
 800080e:	ea4f 1505 	mov.w	r5, r5, lsl #4
 8000812:	ea45 7516 	orr.w	r5, r5, r6, lsr #28
 8000816:	ea4f 1606 	mov.w	r6, r6, lsl #4
 800081a:	ea4f 03c3 	mov.w	r3, r3, lsl #3
 800081e:	ea43 7352 	orr.w	r3, r3, r2, lsr #29
 8000822:	ea4f 02c2 	mov.w	r2, r2, lsl #3
 8000826:	ea5f 1c1c 	movs.w	ip, ip, lsr #4
 800082a:	d1c0      	bne.n	80007ae <__aeabi_ddiv+0x82>
 800082c:	f411 1f80 	tst.w	r1, #1048576	@ 0x100000
 8000830:	d10b      	bne.n	800084a <__aeabi_ddiv+0x11e>
 8000832:	ea41 0100 	orr.w	r1, r1, r0
 8000836:	f04f 0000 	mov.w	r0, #0
 800083a:	f04f 4c00 	mov.w	ip, #2147483648	@ 0x80000000
 800083e:	e7b6      	b.n	80007ae <__aeabi_ddiv+0x82>
 8000840:	f411 1f80 	tst.w	r1, #1048576	@ 0x100000
 8000844:	bf04      	itt	eq
 8000846:	4301      	orreq	r1, r0
 8000848:	2000      	moveq	r0, #0
 800084a:	f1b4 0cfd 	subs.w	ip, r4, #253	@ 0xfd
 800084e:	bf88      	it	hi
 8000850:	f5bc 6fe0 	cmphi.w	ip, #1792	@ 0x700
 8000854:	f63f aeaf 	bhi.w	80005b6 <__aeabi_dmul+0xde>
 8000858:	ebb5 0c03 	subs.w	ip, r5, r3
 800085c:	bf04      	itt	eq
 800085e:	ebb6 0c02 	subseq.w	ip, r6, r2
 8000862:	ea5f 0c50 	movseq.w	ip, r0, lsr #1
 8000866:	f150 0000 	adcs.w	r0, r0, #0
 800086a:	eb41 5104 	adc.w	r1, r1, r4, lsl #20
 800086e:	bd70      	pop	{r4, r5, r6, pc}
 8000870:	f00e 4e00 	and.w	lr, lr, #2147483648	@ 0x80000000
 8000874:	ea4e 3111 	orr.w	r1, lr, r1, lsr #12
 8000878:	eb14 045c 	adds.w	r4, r4, ip, lsr #1
 800087c:	bfc2      	ittt	gt
 800087e:	ebd4 050c 	rsbsgt	r5, r4, ip
 8000882:	ea41 5104 	orrgt.w	r1, r1, r4, lsl #20
 8000886:	bd70      	popgt	{r4, r5, r6, pc}
 8000888:	f441 1180 	orr.w	r1, r1, #1048576	@ 0x100000
 800088c:	f04f 0e00 	mov.w	lr, #0
 8000890:	3c01      	subs	r4, #1
 8000892:	e690      	b.n	80005b6 <__aeabi_dmul+0xde>
 8000894:	ea45 0e06 	orr.w	lr, r5, r6
 8000898:	e68d      	b.n	80005b6 <__aeabi_dmul+0xde>
 800089a:	ea0c 5513 	and.w	r5, ip, r3, lsr #20
 800089e:	ea94 0f0c 	teq	r4, ip
 80008a2:	bf08      	it	eq
 80008a4:	ea95 0f0c 	teqeq	r5, ip
 80008a8:	f43f af3b 	beq.w	8000722 <__aeabi_dmul+0x24a>
 80008ac:	ea94 0f0c 	teq	r4, ip
 80008b0:	d10a      	bne.n	80008c8 <__aeabi_ddiv+0x19c>
 80008b2:	ea50 3401 	orrs.w	r4, r0, r1, lsl #12
 80008b6:	f47f af34 	bne.w	8000722 <__aeabi_dmul+0x24a>
 80008ba:	ea95 0f0c 	teq	r5, ip
 80008be:	f47f af25 	bne.w	800070c <__aeabi_dmul+0x234>
 80008c2:	4610      	mov	r0, r2
 80008c4:	4619      	mov	r1, r3
 80008c6:	e72c      	b.n	8000722 <__aeabi_dmul+0x24a>
 80008c8:	ea95 0f0c 	teq	r5, ip
 80008cc:	d106      	bne.n	80008dc <__aeabi_ddiv+0x1b0>
 80008ce:	ea52 3503 	orrs.w	r5, r2, r3, lsl #12
 80008d2:	f43f aefd 	beq.w	80006d0 <__aeabi_dmul+0x1f8>
 80008d6:	4610      	mov	r0, r2
 80008d8:	4619      	mov	r1, r3
 80008da:	e722      	b.n	8000722 <__aeabi_dmul+0x24a>
 80008dc:	ea50 0641 	orrs.w	r6, r0, r1, lsl #1
 80008e0:	bf18      	it	ne
 80008e2:	ea52 0643 	orrsne.w	r6, r2, r3, lsl #1
 80008e6:	f47f aec5 	bne.w	8000674 <__aeabi_dmul+0x19c>
 80008ea:	ea50 0441 	orrs.w	r4, r0, r1, lsl #1
 80008ee:	f47f af0d 	bne.w	800070c <__aeabi_dmul+0x234>
 80008f2:	ea52 0543 	orrs.w	r5, r2, r3, lsl #1
 80008f6:	f47f aeeb 	bne.w	80006d0 <__aeabi_dmul+0x1f8>
 80008fa:	e712      	b.n	8000722 <__aeabi_dmul+0x24a>

080008fc <__gedf2>:
 80008fc:	f04f 3cff 	mov.w	ip, #4294967295
 8000900:	e006      	b.n	8000910 <__cmpdf2+0x4>
 8000902:	bf00      	nop

08000904 <__ledf2>:
 8000904:	f04f 0c01 	mov.w	ip, #1
 8000908:	e002      	b.n	8000910 <__cmpdf2+0x4>
 800090a:	bf00      	nop

0800090c <__cmpdf2>:
 800090c:	f04f 0c01 	mov.w	ip, #1
 8000910:	f84d cd04 	str.w	ip, [sp, #-4]!
 8000914:	ea4f 0c41 	mov.w	ip, r1, lsl #1
 8000918:	ea7f 5c6c 	mvns.w	ip, ip, asr #21
 800091c:	ea4f 0c43 	mov.w	ip, r3, lsl #1
 8000920:	bf18      	it	ne
 8000922:	ea7f 5c6c 	mvnsne.w	ip, ip, asr #21
 8000926:	d01b      	beq.n	8000960 <__cmpdf2+0x54>
 8000928:	b001      	add	sp, #4
 800092a:	ea50 0c41 	orrs.w	ip, r0, r1, lsl #1
 800092e:	bf0c      	ite	eq
 8000930:	ea52 0c43 	orrseq.w	ip, r2, r3, lsl #1
 8000934:	ea91 0f03 	teqne	r1, r3
 8000938:	bf02      	ittt	eq
 800093a:	ea90 0f02 	teqeq	r0, r2
 800093e:	2000      	moveq	r0, #0
 8000940:	4770      	bxeq	lr
 8000942:	f110 0f00 	cmn.w	r0, #0
 8000946:	ea91 0f03 	teq	r1, r3
 800094a:	bf58      	it	pl
 800094c:	4299      	cmppl	r1, r3
 800094e:	bf08      	it	eq
 8000950:	4290      	cmpeq	r0, r2
 8000952:	bf2c      	ite	cs
 8000954:	17d8      	asrcs	r0, r3, #31
 8000956:	ea6f 70e3 	mvncc.w	r0, r3, asr #31
 800095a:	f040 0001 	orr.w	r0, r0, #1
 800095e:	4770      	bx	lr
 8000960:	ea4f 0c41 	mov.w	ip, r1, lsl #1
 8000964:	ea7f 5c6c 	mvns.w	ip, ip, asr #21
 8000968:	d102      	bne.n	8000970 <__cmpdf2+0x64>
 800096a:	ea50 3c01 	orrs.w	ip, r0, r1, lsl #12
 800096e:	d107      	bne.n	8000980 <__cmpdf2+0x74>
 8000970:	ea4f 0c43 	mov.w	ip, r3, lsl #1
 8000974:	ea7f 5c6c 	mvns.w	ip, ip, asr #21
 8000978:	d1d6      	bne.n	8000928 <__cmpdf2+0x1c>
 800097a:	ea52 3c03 	orrs.w	ip, r2, r3, lsl #12
 800097e:	d0d3      	beq.n	8000928 <__cmpdf2+0x1c>
 8000980:	f85d 0b04 	ldr.w	r0, [sp], #4
 8000984:	4770      	bx	lr
 8000986:	bf00      	nop

08000988 <__aeabi_cdrcmple>:
 8000988:	4684      	mov	ip, r0
 800098a:	4610      	mov	r0, r2
 800098c:	4662      	mov	r2, ip
 800098e:	468c      	mov	ip, r1
 8000990:	4619      	mov	r1, r3
 8000992:	4663      	mov	r3, ip
 8000994:	e000      	b.n	8000998 <__aeabi_cdcmpeq>
 8000996:	bf00      	nop

08000998 <__aeabi_cdcmpeq>:
 8000998:	b501      	push	{r0, lr}
 800099a:	f7ff ffb7 	bl	800090c <__cmpdf2>
 800099e:	2800      	cmp	r0, #0
 80009a0:	bf48      	it	mi
 80009a2:	f110 0f00 	cmnmi.w	r0, #0
 80009a6:	bd01      	pop	{r0, pc}

080009a8 <__aeabi_dcmpeq>:
 80009a8:	f84d ed08 	str.w	lr, [sp, #-8]!
 80009ac:	f7ff fff4 	bl	8000998 <__aeabi_cdcmpeq>
 80009b0:	bf0c      	ite	eq
 80009b2:	2001      	moveq	r0, #1
 80009b4:	2000      	movne	r0, #0
 80009b6:	f85d fb08 	ldr.w	pc, [sp], #8
 80009ba:	bf00      	nop

080009bc <__aeabi_dcmplt>:
 80009bc:	f84d ed08 	str.w	lr, [sp, #-8]!
 80009c0:	f7ff ffea 	bl	8000998 <__aeabi_cdcmpeq>
 80009c4:	bf34      	ite	cc
 80009c6:	2001      	movcc	r0, #1
 80009c8:	2000      	movcs	r0, #0
 80009ca:	f85d fb08 	ldr.w	pc, [sp], #8
 80009ce:	bf00      	nop

080009d0 <__aeabi_dcmple>:
 80009d0:	f84d ed08 	str.w	lr, [sp, #-8]!
 80009d4:	f7ff ffe0 	bl	8000998 <__aeabi_cdcmpeq>
 80009d8:	bf94      	ite	ls
 80009da:	2001      	movls	r0, #1
 80009dc:	2000      	movhi	r0, #0
 80009de:	f85d fb08 	ldr.w	pc, [sp], #8
 80009e2:	bf00      	nop

080009e4 <__aeabi_dcmpge>:
 80009e4:	f84d ed08 	str.w	lr, [sp, #-8]!
 80009e8:	f7ff ffce 	bl	8000988 <__aeabi_cdrcmple>
 80009ec:	bf94      	ite	ls
 80009ee:	2001      	movls	r0, #1
 80009f0:	2000      	movhi	r0, #0
 80009f2:	f85d fb08 	ldr.w	pc, [sp], #8
 80009f6:	bf00      	nop

080009f8 <__aeabi_dcmpgt>:
 80009f8:	f84d ed08 	str.w	lr, [sp, #-8]!
 80009fc:	f7ff ffc4 	bl	8000988 <__aeabi_cdrcmple>
 8000a00:	bf34      	ite	cc
 8000a02:	2001      	movcc	r0, #1
 8000a04:	2000      	movcs	r0, #0
 8000a06:	f85d fb08 	ldr.w	pc, [sp], #8
 8000a0a:	bf00      	nop

08000a0c <__aeabi_dcmpun>:
 8000a0c:	ea4f 0c41 	mov.w	ip, r1, lsl #1
 8000a10:	ea7f 5c6c 	mvns.w	ip, ip, asr #21
 8000a14:	d102      	bne.n	8000a1c <__aeabi_dcmpun+0x10>
 8000a16:	ea50 3c01 	orrs.w	ip, r0, r1, lsl #12
 8000a1a:	d10a      	bne.n	8000a32 <__aeabi_dcmpun+0x26>
 8000a1c:	ea4f 0c43 	mov.w	ip, r3, lsl #1
 8000a20:	ea7f 5c6c 	mvns.w	ip, ip, asr #21
 8000a24:	d102      	bne.n	8000a2c <__aeabi_dcmpun+0x20>
 8000a26:	ea52 3c03 	orrs.w	ip, r2, r3, lsl #12
 8000a2a:	d102      	bne.n	8000a32 <__aeabi_dcmpun+0x26>
 8000a2c:	f04f 0000 	mov.w	r0, #0
 8000a30:	4770      	bx	lr
 8000a32:	f04f 0001 	mov.w	r0, #1
 8000a36:	4770      	bx	lr

08000a38 <__aeabi_d2iz>:
 8000a38:	ea4f 0241 	mov.w	r2, r1, lsl #1
 8000a3c:	f512 1200 	adds.w	r2, r2, #2097152	@ 0x200000
 8000a40:	d215      	bcs.n	8000a6e <__aeabi_d2iz+0x36>
 8000a42:	d511      	bpl.n	8000a68 <__aeabi_d2iz+0x30>
 8000a44:	f46f 7378 	mvn.w	r3, #992	@ 0x3e0
 8000a48:	ebb3 5262 	subs.w	r2, r3, r2, asr #21
 8000a4c:	d912      	bls.n	8000a74 <__aeabi_d2iz+0x3c>
 8000a4e:	ea4f 23c1 	mov.w	r3, r1, lsl #11
 8000a52:	f043 4300 	orr.w	r3, r3, #2147483648	@ 0x80000000
 8000a56:	ea43 5350 	orr.w	r3, r3, r0, lsr #21
 8000a5a:	f011 4f00 	tst.w	r1, #2147483648	@ 0x80000000
 8000a5e:	fa23 f002 	lsr.w	r0, r3, r2
 8000a62:	bf18      	it	ne
 8000a64:	4240      	negne	r0, r0
 8000a66:	4770      	bx	lr
 8000a68:	f04f 0000 	mov.w	r0, #0
 8000a6c:	4770      	bx	lr
 8000a6e:	ea50 3001 	orrs.w	r0, r0, r1, lsl #12
 8000a72:	d105      	bne.n	8000a80 <__aeabi_d2iz+0x48>
 8000a74:	f011 4000 	ands.w	r0, r1, #2147483648	@ 0x80000000
 8000a78:	bf08      	it	eq
 8000a7a:	f06f 4000 	mvneq.w	r0, #2147483648	@ 0x80000000
 8000a7e:	4770      	bx	lr
 8000a80:	f04f 0000 	mov.w	r0, #0
 8000a84:	4770      	bx	lr
 8000a86:	bf00      	nop

08000a88 <__aeabi_frsub>:
 8000a88:	f080 4000 	eor.w	r0, r0, #2147483648	@ 0x80000000
 8000a8c:	e002      	b.n	8000a94 <__addsf3>
 8000a8e:	bf00      	nop

08000a90 <__aeabi_fsub>:
 8000a90:	f081 4100 	eor.w	r1, r1, #2147483648	@ 0x80000000

08000a94 <__addsf3>:
 8000a94:	0042      	lsls	r2, r0, #1
 8000a96:	bf1f      	itttt	ne
 8000a98:	ea5f 0341 	movsne.w	r3, r1, lsl #1
 8000a9c:	ea92 0f03 	teqne	r2, r3
 8000aa0:	ea7f 6c22 	mvnsne.w	ip, r2, asr #24
 8000aa4:	ea7f 6c23 	mvnsne.w	ip, r3, asr #24
 8000aa8:	d06a      	beq.n	8000b80 <__addsf3+0xec>
 8000aaa:	ea4f 6212 	mov.w	r2, r2, lsr #24
 8000aae:	ebd2 6313 	rsbs	r3, r2, r3, lsr #24
 8000ab2:	bfc1      	itttt	gt
 8000ab4:	18d2      	addgt	r2, r2, r3
 8000ab6:	4041      	eorgt	r1, r0
 8000ab8:	4048      	eorgt	r0, r1
 8000aba:	4041      	eorgt	r1, r0
 8000abc:	bfb8      	it	lt
 8000abe:	425b      	neglt	r3, r3
 8000ac0:	2b19      	cmp	r3, #25
 8000ac2:	bf88      	it	hi
 8000ac4:	4770      	bxhi	lr
 8000ac6:	f010 4f00 	tst.w	r0, #2147483648	@ 0x80000000
 8000aca:	f440 0000 	orr.w	r0, r0, #8388608	@ 0x800000
 8000ace:	f020 407f 	bic.w	r0, r0, #4278190080	@ 0xff000000
 8000ad2:	bf18      	it	ne
 8000ad4:	4240      	negne	r0, r0
 8000ad6:	f011 4f00 	tst.w	r1, #2147483648	@ 0x80000000
 8000ada:	f441 0100 	orr.w	r1, r1, #8388608	@ 0x800000
 8000ade:	f021 417f 	bic.w	r1, r1, #4278190080	@ 0xff000000
 8000ae2:	bf18      	it	ne
 8000ae4:	4249      	negne	r1, r1
 8000ae6:	ea92 0f03 	teq	r2, r3
 8000aea:	d03f      	beq.n	8000b6c <__addsf3+0xd8>
 8000aec:	f1a2 0201 	sub.w	r2, r2, #1
 8000af0:	fa41 fc03 	asr.w	ip, r1, r3
 8000af4:	eb10 000c 	adds.w	r0, r0, ip
 8000af8:	f1c3 0320 	rsb	r3, r3, #32
 8000afc:	fa01 f103 	lsl.w	r1, r1, r3
 8000b00:	f000 4300 	and.w	r3, r0, #2147483648	@ 0x80000000
 8000b04:	d502      	bpl.n	8000b0c <__addsf3+0x78>
 8000b06:	4249      	negs	r1, r1
 8000b08:	eb60 0040 	sbc.w	r0, r0, r0, lsl #1
 8000b0c:	f5b0 0f00 	cmp.w	r0, #8388608	@ 0x800000
 8000b10:	d313      	bcc.n	8000b3a <__addsf3+0xa6>
 8000b12:	f1b0 7f80 	cmp.w	r0, #16777216	@ 0x1000000
 8000b16:	d306      	bcc.n	8000b26 <__addsf3+0x92>
 8000b18:	0840      	lsrs	r0, r0, #1
 8000b1a:	ea4f 0131 	mov.w	r1, r1, rrx
 8000b1e:	f102 0201 	add.w	r2, r2, #1
 8000b22:	2afe      	cmp	r2, #254	@ 0xfe
 8000b24:	d251      	bcs.n	8000bca <__addsf3+0x136>
 8000b26:	f1b1 4f00 	cmp.w	r1, #2147483648	@ 0x80000000
 8000b2a:	eb40 50c2 	adc.w	r0, r0, r2, lsl #23
 8000b2e:	bf08      	it	eq
 8000b30:	f020 0001 	biceq.w	r0, r0, #1
 8000b34:	ea40 0003 	orr.w	r0, r0, r3
 8000b38:	4770      	bx	lr
 8000b3a:	0049      	lsls	r1, r1, #1
 8000b3c:	eb40 0000 	adc.w	r0, r0, r0
 8000b40:	3a01      	subs	r2, #1
 8000b42:	bf28      	it	cs
 8000b44:	f5b0 0f00 	cmpcs.w	r0, #8388608	@ 0x800000
 8000b48:	d2ed      	bcs.n	8000b26 <__addsf3+0x92>
 8000b4a:	fab0 fc80 	clz	ip, r0
 8000b4e:	f1ac 0c08 	sub.w	ip, ip, #8
 8000b52:	ebb2 020c 	subs.w	r2, r2, ip
 8000b56:	fa00 f00c 	lsl.w	r0, r0, ip
 8000b5a:	bfaa      	itet	ge
 8000b5c:	eb00 50c2 	addge.w	r0, r0, r2, lsl #23
 8000b60:	4252      	neglt	r2, r2
 8000b62:	4318      	orrge	r0, r3
 8000b64:	bfbc      	itt	lt
 8000b66:	40d0      	lsrlt	r0, r2
 8000b68:	4318      	orrlt	r0, r3
 8000b6a:	4770      	bx	lr
 8000b6c:	f092 0f00 	teq	r2, #0
 8000b70:	f481 0100 	eor.w	r1, r1, #8388608	@ 0x800000
 8000b74:	bf06      	itte	eq
 8000b76:	f480 0000 	eoreq.w	r0, r0, #8388608	@ 0x800000
 8000b7a:	3201      	addeq	r2, #1
 8000b7c:	3b01      	subne	r3, #1
 8000b7e:	e7b5      	b.n	8000aec <__addsf3+0x58>
 8000b80:	ea4f 0341 	mov.w	r3, r1, lsl #1
 8000b84:	ea7f 6c22 	mvns.w	ip, r2, asr #24
 8000b88:	bf18      	it	ne
 8000b8a:	ea7f 6c23 	mvnsne.w	ip, r3, asr #24
 8000b8e:	d021      	beq.n	8000bd4 <__addsf3+0x140>
 8000b90:	ea92 0f03 	teq	r2, r3
 8000b94:	d004      	beq.n	8000ba0 <__addsf3+0x10c>
 8000b96:	f092 0f00 	teq	r2, #0
 8000b9a:	bf08      	it	eq
 8000b9c:	4608      	moveq	r0, r1
 8000b9e:	4770      	bx	lr
 8000ba0:	ea90 0f01 	teq	r0, r1
 8000ba4:	bf1c      	itt	ne
 8000ba6:	2000      	movne	r0, #0
 8000ba8:	4770      	bxne	lr
 8000baa:	f012 4f7f 	tst.w	r2, #4278190080	@ 0xff000000
 8000bae:	d104      	bne.n	8000bba <__addsf3+0x126>
 8000bb0:	0040      	lsls	r0, r0, #1
 8000bb2:	bf28      	it	cs
 8000bb4:	f040 4000 	orrcs.w	r0, r0, #2147483648	@ 0x80000000
 8000bb8:	4770      	bx	lr
 8000bba:	f112 7200 	adds.w	r2, r2, #33554432	@ 0x2000000
 8000bbe:	bf3c      	itt	cc
 8000bc0:	f500 0000 	addcc.w	r0, r0, #8388608	@ 0x800000
 8000bc4:	4770      	bxcc	lr
 8000bc6:	f000 4300 	and.w	r3, r0, #2147483648	@ 0x80000000
 8000bca:	f043 40fe 	orr.w	r0, r3, #2130706432	@ 0x7f000000
 8000bce:	f440 0000 	orr.w	r0, r0, #8388608	@ 0x800000
 8000bd2:	4770      	bx	lr
 8000bd4:	ea7f 6222 	mvns.w	r2, r2, asr #24
 8000bd8:	bf16      	itet	ne
 8000bda:	4608      	movne	r0, r1
 8000bdc:	ea7f 6323 	mvnseq.w	r3, r3, asr #24
 8000be0:	4601      	movne	r1, r0
 8000be2:	0242      	lsls	r2, r0, #9
 8000be4:	bf06      	itte	eq
 8000be6:	ea5f 2341 	movseq.w	r3, r1, lsl #9
 8000bea:	ea90 0f01 	teqeq	r0, r1
 8000bee:	f440 0080 	orrne.w	r0, r0, #4194304	@ 0x400000
 8000bf2:	4770      	bx	lr

08000bf4 <__aeabi_ui2f>:
 8000bf4:	f04f 0300 	mov.w	r3, #0
 8000bf8:	e004      	b.n	8000c04 <__aeabi_i2f+0x8>
 8000bfa:	bf00      	nop

08000bfc <__aeabi_i2f>:
 8000bfc:	f010 4300 	ands.w	r3, r0, #2147483648	@ 0x80000000
 8000c00:	bf48      	it	mi
 8000c02:	4240      	negmi	r0, r0
 8000c04:	ea5f 0c00 	movs.w	ip, r0
 8000c08:	bf08      	it	eq
 8000c0a:	4770      	bxeq	lr
 8000c0c:	f043 4396 	orr.w	r3, r3, #1258291200	@ 0x4b000000
 8000c10:	4601      	mov	r1, r0
 8000c12:	f04f 0000 	mov.w	r0, #0
 8000c16:	e01c      	b.n	8000c52 <__aeabi_l2f+0x2a>

08000c18 <__aeabi_ul2f>:
 8000c18:	ea50 0201 	orrs.w	r2, r0, r1
 8000c1c:	bf08      	it	eq
 8000c1e:	4770      	bxeq	lr
 8000c20:	f04f 0300 	mov.w	r3, #0
 8000c24:	e00a      	b.n	8000c3c <__aeabi_l2f+0x14>
 8000c26:	bf00      	nop

08000c28 <__aeabi_l2f>:
 8000c28:	ea50 0201 	orrs.w	r2, r0, r1
 8000c2c:	bf08      	it	eq
 8000c2e:	4770      	bxeq	lr
 8000c30:	f011 4300 	ands.w	r3, r1, #2147483648	@ 0x80000000
 8000c34:	d502      	bpl.n	8000c3c <__aeabi_l2f+0x14>
 8000c36:	4240      	negs	r0, r0
 8000c38:	eb61 0141 	sbc.w	r1, r1, r1, lsl #1
 8000c3c:	ea5f 0c01 	movs.w	ip, r1
 8000c40:	bf02      	ittt	eq
 8000c42:	4684      	moveq	ip, r0
 8000c44:	4601      	moveq	r1, r0
 8000c46:	2000      	moveq	r0, #0
 8000c48:	f043 43b6 	orr.w	r3, r3, #1526726656	@ 0x5b000000
 8000c4c:	bf08      	it	eq
 8000c4e:	f1a3 5380 	subeq.w	r3, r3, #268435456	@ 0x10000000
 8000c52:	f5a3 0300 	sub.w	r3, r3, #8388608	@ 0x800000
 8000c56:	fabc f28c 	clz	r2, ip
 8000c5a:	3a08      	subs	r2, #8
 8000c5c:	eba3 53c2 	sub.w	r3, r3, r2, lsl #23
 8000c60:	db10      	blt.n	8000c84 <__aeabi_l2f+0x5c>
 8000c62:	fa01 fc02 	lsl.w	ip, r1, r2
 8000c66:	4463      	add	r3, ip
 8000c68:	fa00 fc02 	lsl.w	ip, r0, r2
 8000c6c:	f1c2 0220 	rsb	r2, r2, #32
 8000c70:	f1bc 4f00 	cmp.w	ip, #2147483648	@ 0x80000000
 8000c74:	fa20 f202 	lsr.w	r2, r0, r2
 8000c78:	eb43 0002 	adc.w	r0, r3, r2
 8000c7c:	bf08      	it	eq
 8000c7e:	f020 0001 	biceq.w	r0, r0, #1
 8000c82:	4770      	bx	lr
 8000c84:	f102 0220 	add.w	r2, r2, #32
 8000c88:	fa01 fc02 	lsl.w	ip, r1, r2
 8000c8c:	f1c2 0220 	rsb	r2, r2, #32
 8000c90:	ea50 004c 	orrs.w	r0, r0, ip, lsl #1
 8000c94:	fa21 f202 	lsr.w	r2, r1, r2
 8000c98:	eb43 0002 	adc.w	r0, r3, r2
 8000c9c:	bf08      	it	eq
 8000c9e:	ea20 70dc 	biceq.w	r0, r0, ip, lsr #31
 8000ca2:	4770      	bx	lr

08000ca4 <__aeabi_fmul>:
 8000ca4:	f04f 0cff 	mov.w	ip, #255	@ 0xff
 8000ca8:	ea1c 52d0 	ands.w	r2, ip, r0, lsr #23
 8000cac:	bf1e      	ittt	ne
 8000cae:	ea1c 53d1 	andsne.w	r3, ip, r1, lsr #23
 8000cb2:	ea92 0f0c 	teqne	r2, ip
 8000cb6:	ea93 0f0c 	teqne	r3, ip
 8000cba:	d06f      	beq.n	8000d9c <__aeabi_fmul+0xf8>
 8000cbc:	441a      	add	r2, r3
 8000cbe:	ea80 0c01 	eor.w	ip, r0, r1
 8000cc2:	0240      	lsls	r0, r0, #9
 8000cc4:	bf18      	it	ne
 8000cc6:	ea5f 2141 	movsne.w	r1, r1, lsl #9
 8000cca:	d01e      	beq.n	8000d0a <__aeabi_fmul+0x66>
 8000ccc:	f04f 6300 	mov.w	r3, #134217728	@ 0x8000000
 8000cd0:	ea43 1050 	orr.w	r0, r3, r0, lsr #5
 8000cd4:	ea43 1151 	orr.w	r1, r3, r1, lsr #5
 8000cd8:	fba0 3101 	umull	r3, r1, r0, r1
 8000cdc:	f00c 4000 	and.w	r0, ip, #2147483648	@ 0x80000000
 8000ce0:	f5b1 0f00 	cmp.w	r1, #8388608	@ 0x800000
 8000ce4:	bf3e      	ittt	cc
 8000ce6:	0049      	lslcc	r1, r1, #1
 8000ce8:	ea41 71d3 	orrcc.w	r1, r1, r3, lsr #31
 8000cec:	005b      	lslcc	r3, r3, #1
 8000cee:	ea40 0001 	orr.w	r0, r0, r1
 8000cf2:	f162 027f 	sbc.w	r2, r2, #127	@ 0x7f
 8000cf6:	2afd      	cmp	r2, #253	@ 0xfd
 8000cf8:	d81d      	bhi.n	8000d36 <__aeabi_fmul+0x92>
 8000cfa:	f1b3 4f00 	cmp.w	r3, #2147483648	@ 0x80000000
 8000cfe:	eb40 50c2 	adc.w	r0, r0, r2, lsl #23
 8000d02:	bf08      	it	eq
 8000d04:	f020 0001 	biceq.w	r0, r0, #1
 8000d08:	4770      	bx	lr
 8000d0a:	f090 0f00 	teq	r0, #0
 8000d0e:	f00c 4c00 	and.w	ip, ip, #2147483648	@ 0x80000000
 8000d12:	bf08      	it	eq
 8000d14:	0249      	lsleq	r1, r1, #9
 8000d16:	ea4c 2050 	orr.w	r0, ip, r0, lsr #9
 8000d1a:	ea40 2051 	orr.w	r0, r0, r1, lsr #9
 8000d1e:	3a7f      	subs	r2, #127	@ 0x7f
 8000d20:	bfc2      	ittt	gt
 8000d22:	f1d2 03ff 	rsbsgt	r3, r2, #255	@ 0xff
 8000d26:	ea40 50c2 	orrgt.w	r0, r0, r2, lsl #23
 8000d2a:	4770      	bxgt	lr
 8000d2c:	f440 0000 	orr.w	r0, r0, #8388608	@ 0x800000
 8000d30:	f04f 0300 	mov.w	r3, #0
 8000d34:	3a01      	subs	r2, #1
 8000d36:	dc5d      	bgt.n	8000df4 <__aeabi_fmul+0x150>
 8000d38:	f112 0f19 	cmn.w	r2, #25
 8000d3c:	bfdc      	itt	le
 8000d3e:	f000 4000 	andle.w	r0, r0, #2147483648	@ 0x80000000
 8000d42:	4770      	bxle	lr
 8000d44:	f1c2 0200 	rsb	r2, r2, #0
 8000d48:	0041      	lsls	r1, r0, #1
 8000d4a:	fa21 f102 	lsr.w	r1, r1, r2
 8000d4e:	f1c2 0220 	rsb	r2, r2, #32
 8000d52:	fa00 fc02 	lsl.w	ip, r0, r2
 8000d56:	ea5f 0031 	movs.w	r0, r1, rrx
 8000d5a:	f140 0000 	adc.w	r0, r0, #0
 8000d5e:	ea53 034c 	orrs.w	r3, r3, ip, lsl #1
 8000d62:	bf08      	it	eq
 8000d64:	ea20 70dc 	biceq.w	r0, r0, ip, lsr #31
 8000d68:	4770      	bx	lr
 8000d6a:	f092 0f00 	teq	r2, #0
 8000d6e:	f000 4c00 	and.w	ip, r0, #2147483648	@ 0x80000000
 8000d72:	bf02      	ittt	eq
 8000d74:	0040      	lsleq	r0, r0, #1
 8000d76:	f410 0f00 	tsteq.w	r0, #8388608	@ 0x800000
 8000d7a:	3a01      	subeq	r2, #1
 8000d7c:	d0f9      	beq.n	8000d72 <__aeabi_fmul+0xce>
 8000d7e:	ea40 000c 	orr.w	r0, r0, ip
 8000d82:	f093 0f00 	teq	r3, #0
 8000d86:	f001 4c00 	and.w	ip, r1, #2147483648	@ 0x80000000
 8000d8a:	bf02      	ittt	eq
 8000d8c:	0049      	lsleq	r1, r1, #1
 8000d8e:	f411 0f00 	tsteq.w	r1, #8388608	@ 0x800000
 8000d92:	3b01      	subeq	r3, #1
 8000d94:	d0f9      	beq.n	8000d8a <__aeabi_fmul+0xe6>
 8000d96:	ea41 010c 	orr.w	r1, r1, ip
 8000d9a:	e78f      	b.n	8000cbc <__aeabi_fmul+0x18>
 8000d9c:	ea0c 53d1 	and.w	r3, ip, r1, lsr #23
 8000da0:	ea92 0f0c 	teq	r2, ip
 8000da4:	bf18      	it	ne
 8000da6:	ea93 0f0c 	teqne	r3, ip
 8000daa:	d00a      	beq.n	8000dc2 <__aeabi_fmul+0x11e>
 8000dac:	f030 4c00 	bics.w	ip, r0, #2147483648	@ 0x80000000
 8000db0:	bf18      	it	ne
 8000db2:	f031 4c00 	bicsne.w	ip, r1, #2147483648	@ 0x80000000
 8000db6:	d1d8      	bne.n	8000d6a <__aeabi_fmul+0xc6>
 8000db8:	ea80 0001 	eor.w	r0, r0, r1
 8000dbc:	f000 4000 	and.w	r0, r0, #2147483648	@ 0x80000000
 8000dc0:	4770      	bx	lr
 8000dc2:	f090 0f00 	teq	r0, #0
 8000dc6:	bf17      	itett	ne
 8000dc8:	f090 4f00 	teqne	r0, #2147483648	@ 0x80000000
 8000dcc:	4608      	moveq	r0, r1
 8000dce:	f091 0f00 	teqne	r1, #0
 8000dd2:	f091 4f00 	teqne	r1, #2147483648	@ 0x80000000
 8000dd6:	d014      	beq.n	8000e02 <__aeabi_fmul+0x15e>
 8000dd8:	ea92 0f0c 	teq	r2, ip
 8000ddc:	d101      	bne.n	8000de2 <__aeabi_fmul+0x13e>
 8000dde:	0242      	lsls	r2, r0, #9
 8000de0:	d10f      	bne.n	8000e02 <__aeabi_fmul+0x15e>
 8000de2:	ea93 0f0c 	teq	r3, ip
 8000de6:	d103      	bne.n	8000df0 <__aeabi_fmul+0x14c>
 8000de8:	024b      	lsls	r3, r1, #9
 8000dea:	bf18      	it	ne
 8000dec:	4608      	movne	r0, r1
 8000dee:	d108      	bne.n	8000e02 <__aeabi_fmul+0x15e>
 8000df0:	ea80 0001 	eor.w	r0, r0, r1
 8000df4:	f000 4000 	and.w	r0, r0, #2147483648	@ 0x80000000
 8000df8:	f040 40fe 	orr.w	r0, r0, #2130706432	@ 0x7f000000
 8000dfc:	f440 0000 	orr.w	r0, r0, #8388608	@ 0x800000
 8000e00:	4770      	bx	lr
 8000e02:	f040 40fe 	orr.w	r0, r0, #2130706432	@ 0x7f000000
 8000e06:	f440 0040 	orr.w	r0, r0, #12582912	@ 0xc00000
 8000e0a:	4770      	bx	lr

08000e0c <__aeabi_fdiv>:
 8000e0c:	f04f 0cff 	mov.w	ip, #255	@ 0xff
 8000e10:	ea1c 52d0 	ands.w	r2, ip, r0, lsr #23
 8000e14:	bf1e      	ittt	ne
 8000e16:	ea1c 53d1 	andsne.w	r3, ip, r1, lsr #23
 8000e1a:	ea92 0f0c 	teqne	r2, ip
 8000e1e:	ea93 0f0c 	teqne	r3, ip
 8000e22:	d069      	beq.n	8000ef8 <__aeabi_fdiv+0xec>
 8000e24:	eba2 0203 	sub.w	r2, r2, r3
 8000e28:	ea80 0c01 	eor.w	ip, r0, r1
 8000e2c:	0249      	lsls	r1, r1, #9
 8000e2e:	ea4f 2040 	mov.w	r0, r0, lsl #9
 8000e32:	d037      	beq.n	8000ea4 <__aeabi_fdiv+0x98>
 8000e34:	f04f 5380 	mov.w	r3, #268435456	@ 0x10000000
 8000e38:	ea43 1111 	orr.w	r1, r3, r1, lsr #4
 8000e3c:	ea43 1310 	orr.w	r3, r3, r0, lsr #4
 8000e40:	f00c 4000 	and.w	r0, ip, #2147483648	@ 0x80000000
 8000e44:	428b      	cmp	r3, r1
 8000e46:	bf38      	it	cc
 8000e48:	005b      	lslcc	r3, r3, #1
 8000e4a:	f142 027d 	adc.w	r2, r2, #125	@ 0x7d
 8000e4e:	f44f 0c00 	mov.w	ip, #8388608	@ 0x800000
 8000e52:	428b      	cmp	r3, r1
 8000e54:	bf24      	itt	cs
 8000e56:	1a5b      	subcs	r3, r3, r1
 8000e58:	ea40 000c 	orrcs.w	r0, r0, ip
 8000e5c:	ebb3 0f51 	cmp.w	r3, r1, lsr #1
 8000e60:	bf24      	itt	cs
 8000e62:	eba3 0351 	subcs.w	r3, r3, r1, lsr #1
 8000e66:	ea40 005c 	orrcs.w	r0, r0, ip, lsr #1
 8000e6a:	ebb3 0f91 	cmp.w	r3, r1, lsr #2
 8000e6e:	bf24      	itt	cs
 8000e70:	eba3 0391 	subcs.w	r3, r3, r1, lsr #2
 8000e74:	ea40 009c 	orrcs.w	r0, r0, ip, lsr #2
 8000e78:	ebb3 0fd1 	cmp.w	r3, r1, lsr #3
 8000e7c:	bf24      	itt	cs
 8000e7e:	eba3 03d1 	subcs.w	r3, r3, r1, lsr #3
 8000e82:	ea40 00dc 	orrcs.w	r0, r0, ip, lsr #3
 8000e86:	011b      	lsls	r3, r3, #4
 8000e88:	bf18      	it	ne
 8000e8a:	ea5f 1c1c 	movsne.w	ip, ip, lsr #4
 8000e8e:	d1e0      	bne.n	8000e52 <__aeabi_fdiv+0x46>
 8000e90:	2afd      	cmp	r2, #253	@ 0xfd
 8000e92:	f63f af50 	bhi.w	8000d36 <__aeabi_fmul+0x92>
 8000e96:	428b      	cmp	r3, r1
 8000e98:	eb40 50c2 	adc.w	r0, r0, r2, lsl #23
 8000e9c:	bf08      	it	eq
 8000e9e:	f020 0001 	biceq.w	r0, r0, #1
 8000ea2:	4770      	bx	lr
 8000ea4:	f00c 4c00 	and.w	ip, ip, #2147483648	@ 0x80000000
 8000ea8:	ea4c 2050 	orr.w	r0, ip, r0, lsr #9
 8000eac:	327f      	adds	r2, #127	@ 0x7f
 8000eae:	bfc2      	ittt	gt
 8000eb0:	f1d2 03ff 	rsbsgt	r3, r2, #255	@ 0xff
 8000eb4:	ea40 50c2 	orrgt.w	r0, r0, r2, lsl #23
 8000eb8:	4770      	bxgt	lr
 8000eba:	f440 0000 	orr.w	r0, r0, #8388608	@ 0x800000
 8000ebe:	f04f 0300 	mov.w	r3, #0
 8000ec2:	3a01      	subs	r2, #1
 8000ec4:	e737      	b.n	8000d36 <__aeabi_fmul+0x92>
 8000ec6:	f092 0f00 	teq	r2, #0
 8000eca:	f000 4c00 	and.w	ip, r0, #2147483648	@ 0x80000000
 8000ece:	bf02      	ittt	eq
 8000ed0:	0040      	lsleq	r0, r0, #1
 8000ed2:	f410 0f00 	tsteq.w	r0, #8388608	@ 0x800000
 8000ed6:	3a01      	subeq	r2, #1
 8000ed8:	d0f9      	beq.n	8000ece <__aeabi_fdiv+0xc2>
 8000eda:	ea40 000c 	orr.w	r0, r0, ip
 8000ede:	f093 0f00 	teq	r3, #0
 8000ee2:	f001 4c00 	and.w	ip, r1, #2147483648	@ 0x80000000
 8000ee6:	bf02      	ittt	eq
 8000ee8:	0049      	lsleq	r1, r1, #1
 8000eea:	f411 0f00 	tsteq.w	r1, #8388608	@ 0x800000
 8000eee:	3b01      	subeq	r3, #1
 8000ef0:	d0f9      	beq.n	8000ee6 <__aeabi_fdiv+0xda>
 8000ef2:	ea41 010c 	orr.w	r1, r1, ip
 8000ef6:	e795      	b.n	8000e24 <__aeabi_fdiv+0x18>
 8000ef8:	ea0c 53d1 	and.w	r3, ip, r1, lsr #23
 8000efc:	ea92 0f0c 	teq	r2, ip
 8000f00:	d108      	bne.n	8000f14 <__aeabi_fdiv+0x108>
 8000f02:	0242      	lsls	r2, r0, #9
 8000f04:	f47f af7d 	bne.w	8000e02 <__aeabi_fmul+0x15e>
 8000f08:	ea93 0f0c 	teq	r3, ip
 8000f0c:	f47f af70 	bne.w	8000df0 <__aeabi_fmul+0x14c>
 8000f10:	4608      	mov	r0, r1
 8000f12:	e776      	b.n	8000e02 <__aeabi_fmul+0x15e>
 8000f14:	ea93 0f0c 	teq	r3, ip
 8000f18:	d104      	bne.n	8000f24 <__aeabi_fdiv+0x118>
 8000f1a:	024b      	lsls	r3, r1, #9
 8000f1c:	f43f af4c 	beq.w	8000db8 <__aeabi_fmul+0x114>
 8000f20:	4608      	mov	r0, r1
 8000f22:	e76e      	b.n	8000e02 <__aeabi_fmul+0x15e>
 8000f24:	f030 4c00 	bics.w	ip, r0, #2147483648	@ 0x80000000
 8000f28:	bf18      	it	ne
 8000f2a:	f031 4c00 	bicsne.w	ip, r1, #2147483648	@ 0x80000000
 8000f2e:	d1ca      	bne.n	8000ec6 <__aeabi_fdiv+0xba>
 8000f30:	f030 4200 	bics.w	r2, r0, #2147483648	@ 0x80000000
 8000f34:	f47f af5c 	bne.w	8000df0 <__aeabi_fmul+0x14c>
 8000f38:	f031 4300 	bics.w	r3, r1, #2147483648	@ 0x80000000
 8000f3c:	f47f af3c 	bne.w	8000db8 <__aeabi_fmul+0x114>
 8000f40:	e75f      	b.n	8000e02 <__aeabi_fmul+0x15e>
 8000f42:	bf00      	nop

08000f44 <__gesf2>:
 8000f44:	f04f 3cff 	mov.w	ip, #4294967295
 8000f48:	e006      	b.n	8000f58 <__cmpsf2+0x4>
 8000f4a:	bf00      	nop

08000f4c <__lesf2>:
 8000f4c:	f04f 0c01 	mov.w	ip, #1
 8000f50:	e002      	b.n	8000f58 <__cmpsf2+0x4>
 8000f52:	bf00      	nop

08000f54 <__cmpsf2>:
 8000f54:	f04f 0c01 	mov.w	ip, #1
 8000f58:	f84d cd04 	str.w	ip, [sp, #-4]!
 8000f5c:	ea4f 0240 	mov.w	r2, r0, lsl #1
 8000f60:	ea4f 0341 	mov.w	r3, r1, lsl #1
 8000f64:	ea7f 6c22 	mvns.w	ip, r2, asr #24
 8000f68:	bf18      	it	ne
 8000f6a:	ea7f 6c23 	mvnsne.w	ip, r3, asr #24
 8000f6e:	d011      	beq.n	8000f94 <__cmpsf2+0x40>
 8000f70:	b001      	add	sp, #4
 8000f72:	ea52 0c53 	orrs.w	ip, r2, r3, lsr #1
 8000f76:	bf18      	it	ne
 8000f78:	ea90 0f01 	teqne	r0, r1
 8000f7c:	bf58      	it	pl
 8000f7e:	ebb2 0003 	subspl.w	r0, r2, r3
 8000f82:	bf88      	it	hi
 8000f84:	17c8      	asrhi	r0, r1, #31
 8000f86:	bf38      	it	cc
 8000f88:	ea6f 70e1 	mvncc.w	r0, r1, asr #31
 8000f8c:	bf18      	it	ne
 8000f8e:	f040 0001 	orrne.w	r0, r0, #1
 8000f92:	4770      	bx	lr
 8000f94:	ea7f 6c22 	mvns.w	ip, r2, asr #24
 8000f98:	d102      	bne.n	8000fa0 <__cmpsf2+0x4c>
 8000f9a:	ea5f 2c40 	movs.w	ip, r0, lsl #9
 8000f9e:	d105      	bne.n	8000fac <__cmpsf2+0x58>
 8000fa0:	ea7f 6c23 	mvns.w	ip, r3, asr #24
 8000fa4:	d1e4      	bne.n	8000f70 <__cmpsf2+0x1c>
 8000fa6:	ea5f 2c41 	movs.w	ip, r1, lsl #9
 8000faa:	d0e1      	beq.n	8000f70 <__cmpsf2+0x1c>
 8000fac:	f85d 0b04 	ldr.w	r0, [sp], #4
 8000fb0:	4770      	bx	lr
 8000fb2:	bf00      	nop

08000fb4 <__aeabi_cfrcmple>:
 8000fb4:	4684      	mov	ip, r0
 8000fb6:	4608      	mov	r0, r1
 8000fb8:	4661      	mov	r1, ip
 8000fba:	e7ff      	b.n	8000fbc <__aeabi_cfcmpeq>

08000fbc <__aeabi_cfcmpeq>:
 8000fbc:	b50f      	push	{r0, r1, r2, r3, lr}
 8000fbe:	f7ff ffc9 	bl	8000f54 <__cmpsf2>
 8000fc2:	2800      	cmp	r0, #0
 8000fc4:	bf48      	it	mi
 8000fc6:	f110 0f00 	cmnmi.w	r0, #0
 8000fca:	bd0f      	pop	{r0, r1, r2, r3, pc}

08000fcc <__aeabi_fcmpeq>:
 8000fcc:	f84d ed08 	str.w	lr, [sp, #-8]!
 8000fd0:	f7ff fff4 	bl	8000fbc <__aeabi_cfcmpeq>
 8000fd4:	bf0c      	ite	eq
 8000fd6:	2001      	moveq	r0, #1
 8000fd8:	2000      	movne	r0, #0
 8000fda:	f85d fb08 	ldr.w	pc, [sp], #8
 8000fde:	bf00      	nop

08000fe0 <__aeabi_fcmplt>:
 8000fe0:	f84d ed08 	str.w	lr, [sp, #-8]!
 8000fe4:	f7ff ffea 	bl	8000fbc <__aeabi_cfcmpeq>
 8000fe8:	bf34      	ite	cc
 8000fea:	2001      	movcc	r0, #1
 8000fec:	2000      	movcs	r0, #0
 8000fee:	f85d fb08 	ldr.w	pc, [sp], #8
 8000ff2:	bf00      	nop

08000ff4 <__aeabi_fcmple>:
 8000ff4:	f84d ed08 	str.w	lr, [sp, #-8]!
 8000ff8:	f7ff ffe0 	bl	8000fbc <__aeabi_cfcmpeq>
 8000ffc:	bf94      	ite	ls
 8000ffe:	2001      	movls	r0, #1
 8001000:	2000      	movhi	r0, #0
 8001002:	f85d fb08 	ldr.w	pc, [sp], #8
 8001006:	bf00      	nop

08001008 <__aeabi_fcmpge>:
 8001008:	f84d ed08 	str.w	lr, [sp, #-8]!
 800100c:	f7ff ffd2 	bl	8000fb4 <__aeabi_cfrcmple>
 8001010:	bf94      	ite	ls
 8001012:	2001      	movls	r0, #1
 8001014:	2000      	movhi	r0, #0
 8001016:	f85d fb08 	ldr.w	pc, [sp], #8
 800101a:	bf00      	nop

0800101c <__aeabi_fcmpgt>:
 800101c:	f84d ed08 	str.w	lr, [sp, #-8]!
 8001020:	f7ff ffc8 	bl	8000fb4 <__aeabi_cfrcmple>
 8001024:	bf34      	ite	cc
 8001026:	2001      	movcc	r0, #1
 8001028:	2000      	movcs	r0, #0
 800102a:	f85d fb08 	ldr.w	pc, [sp], #8
 800102e:	bf00      	nop

08001030 <Uart1_RxStartIT>:
/* USER CODE END PFP */

/* Private user code ---------------------------------------------------------*/
/* USER CODE BEGIN 0 */
// ---- UART1 Rx   ----
static void Uart1_RxStartIT(void) {
 8001030:	b580      	push	{r7, lr}
 8001032:	af00      	add	r7, sp, #0
  HAL_UART_Receive_IT(&huart1, &rx1, 1);
 8001034:	2201      	movs	r2, #1
 8001036:	4903      	ldr	r1, [pc, #12]	@ (8001044 <Uart1_RxStartIT+0x14>)
 8001038:	4803      	ldr	r0, [pc, #12]	@ (8001048 <Uart1_RxStartIT+0x18>)
 800103a:	f003 f83c 	bl	80040b6 <HAL_UART_Receive_IT>
}
 800103e:	bf00      	nop
 8001040:	bd80      	pop	{r7, pc}
 8001042:	bf00      	nop
 8001044:	200002e0 	.word	0x200002e0
 8001048:	20000250 	.word	0x20000250

0800104c <DWT_Delay_Init>:

// ---- s Delay (DWT) ----
static inline void DWT_Delay_Init(void) {
 800104c:	b480      	push	{r7}
 800104e:	af00      	add	r7, sp, #0
  CoreDebug->DEMCR |= CoreDebug_DEMCR_TRCENA_Msk;
 8001050:	4b09      	ldr	r3, [pc, #36]	@ (8001078 <DWT_Delay_Init+0x2c>)
 8001052:	68db      	ldr	r3, [r3, #12]
 8001054:	4a08      	ldr	r2, [pc, #32]	@ (8001078 <DWT_Delay_Init+0x2c>)
 8001056:	f043 7380 	orr.w	r3, r3, #16777216	@ 0x1000000
 800105a:	60d3      	str	r3, [r2, #12]
  DWT->CYCCNT = 0;
 800105c:	4b07      	ldr	r3, [pc, #28]	@ (800107c <DWT_Delay_Init+0x30>)
 800105e:	2200      	movs	r2, #0
 8001060:	605a      	str	r2, [r3, #4]
  DWT->CTRL  |= DWT_CTRL_CYCCNTENA_Msk;
 8001062:	4b06      	ldr	r3, [pc, #24]	@ (800107c <DWT_Delay_Init+0x30>)
 8001064:	681b      	ldr	r3, [r3, #0]
 8001066:	4a05      	ldr	r2, [pc, #20]	@ (800107c <DWT_Delay_Init+0x30>)
 8001068:	f043 0301 	orr.w	r3, r3, #1
 800106c:	6013      	str	r3, [r2, #0]
}
 800106e:	bf00      	nop
 8001070:	46bd      	mov	sp, r7
 8001072:	bc80      	pop	{r7}
 8001074:	4770      	bx	lr
 8001076:	bf00      	nop
 8001078:	e000edf0 	.word	0xe000edf0
 800107c:	e0001000 	.word	0xe0001000

08001080 <delay_us>:
static inline void delay_us(uint32_t us) {
 8001080:	b480      	push	{r7}
 8001082:	b085      	sub	sp, #20
 8001084:	af00      	add	r7, sp, #0
 8001086:	6078      	str	r0, [r7, #4]
  uint32_t cycles = (SystemCoreClock/1000000)*us;
 8001088:	4b0d      	ldr	r3, [pc, #52]	@ (80010c0 <delay_us+0x40>)
 800108a:	681b      	ldr	r3, [r3, #0]
 800108c:	4a0d      	ldr	r2, [pc, #52]	@ (80010c4 <delay_us+0x44>)
 800108e:	fba2 2303 	umull	r2, r3, r2, r3
 8001092:	0c9a      	lsrs	r2, r3, #18
 8001094:	687b      	ldr	r3, [r7, #4]
 8001096:	fb02 f303 	mul.w	r3, r2, r3
 800109a:	60fb      	str	r3, [r7, #12]
  uint32_t start = DWT->CYCCNT;
 800109c:	4b0a      	ldr	r3, [pc, #40]	@ (80010c8 <delay_us+0x48>)
 800109e:	685b      	ldr	r3, [r3, #4]
 80010a0:	60bb      	str	r3, [r7, #8]
  while ((DWT->CYCCNT - start) < cycles) { }
 80010a2:	bf00      	nop
 80010a4:	4b08      	ldr	r3, [pc, #32]	@ (80010c8 <delay_us+0x48>)
 80010a6:	685a      	ldr	r2, [r3, #4]
 80010a8:	68bb      	ldr	r3, [r7, #8]
 80010aa:	1ad3      	subs	r3, r2, r3
 80010ac:	68fa      	ldr	r2, [r7, #12]
 80010ae:	429a      	cmp	r2, r3
 80010b0:	d8f8      	bhi.n	80010a4 <delay_us+0x24>
}
 80010b2:	bf00      	nop
 80010b4:	bf00      	nop
 80010b6:	3714      	adds	r7, #20
 80010b8:	46bd      	mov	sp, r7
 80010ba:	bc80      	pop	{r7}
 80010bc:	4770      	bx	lr
 80010be:	bf00      	nop
 80010c0:	20000000 	.word	0x20000000
 80010c4:	431bde83 	.word	0x431bde83
 80010c8:	e0001000 	.word	0xe0001000

080010cc <DHT_PinOutput>:

// ---- DHT11: PB0  ----
#define DHT_PORT GPIOB
#define DHT_PIN  GPIO_PIN_0

static void DHT_PinOutput(void){
 80010cc:	b580      	push	{r7, lr}
 80010ce:	b084      	sub	sp, #16
 80010d0:	af00      	add	r7, sp, #0
  GPIO_InitTypeDef GPIO_InitStruct = {0};
 80010d2:	463b      	mov	r3, r7
 80010d4:	2200      	movs	r2, #0
 80010d6:	601a      	str	r2, [r3, #0]
 80010d8:	605a      	str	r2, [r3, #4]
 80010da:	609a      	str	r2, [r3, #8]
 80010dc:	60da      	str	r2, [r3, #12]
  GPIO_InitStruct.Pin   = DHT_PIN;
 80010de:	2301      	movs	r3, #1
 80010e0:	603b      	str	r3, [r7, #0]
  GPIO_InitStruct.Mode  = GPIO_MODE_OUTPUT_PP;
 80010e2:	2301      	movs	r3, #1
 80010e4:	607b      	str	r3, [r7, #4]
  GPIO_InitStruct.Speed = GPIO_SPEED_FREQ_LOW;
 80010e6:	2302      	movs	r3, #2
 80010e8:	60fb      	str	r3, [r7, #12]
  GPIO_InitStruct.Pull  = GPIO_NOPULL;
 80010ea:	2300      	movs	r3, #0
 80010ec:	60bb      	str	r3, [r7, #8]
  HAL_GPIO_Init(DHT_PORT, &GPIO_InitStruct);
 80010ee:	463b      	mov	r3, r7
 80010f0:	4619      	mov	r1, r3
 80010f2:	4803      	ldr	r0, [pc, #12]	@ (8001100 <DHT_PinOutput+0x34>)
 80010f4:	f001 ffb2 	bl	800305c <HAL_GPIO_Init>
}
 80010f8:	bf00      	nop
 80010fa:	3710      	adds	r7, #16
 80010fc:	46bd      	mov	sp, r7
 80010fe:	bd80      	pop	{r7, pc}
 8001100:	40010c00 	.word	0x40010c00

08001104 <DHT_PinInput>:
static void DHT_PinInput(void){
 8001104:	b580      	push	{r7, lr}
 8001106:	b084      	sub	sp, #16
 8001108:	af00      	add	r7, sp, #0
  GPIO_InitTypeDef GPIO_InitStruct = {0};
 800110a:	463b      	mov	r3, r7
 800110c:	2200      	movs	r2, #0
 800110e:	601a      	str	r2, [r3, #0]
 8001110:	605a      	str	r2, [r3, #4]
 8001112:	609a      	str	r2, [r3, #8]
 8001114:	60da      	str	r2, [r3, #12]
  GPIO_InitStruct.Pin  = DHT_PIN;
 8001116:	2301      	movs	r3, #1
 8001118:	603b      	str	r3, [r7, #0]
  GPIO_InitStruct.Mode = GPIO_MODE_INPUT;
 800111a:	2300      	movs	r3, #0
 800111c:	607b      	str	r3, [r7, #4]
  GPIO_InitStruct.Pull = GPIO_NOPULL; //  10k  
 800111e:	2300      	movs	r3, #0
 8001120:	60bb      	str	r3, [r7, #8]
  HAL_GPIO_Init(DHT_PORT, &GPIO_InitStruct);
 8001122:	463b      	mov	r3, r7
 8001124:	4619      	mov	r1, r3
 8001126:	4803      	ldr	r0, [pc, #12]	@ (8001134 <DHT_PinInput+0x30>)
 8001128:	f001 ff98 	bl	800305c <HAL_GPIO_Init>
}
 800112c:	bf00      	nop
 800112e:	3710      	adds	r7, #16
 8001130:	46bd      	mov	sp, r7
 8001132:	bd80      	pop	{r7, pc}
 8001134:	40010c00 	.word	0x40010c00

08001138 <DHT11_Read>:

// : 0=OK,  =
static int DHT11_Read(float *temp_c, float *rh){
 8001138:	b580      	push	{r7, lr}
 800113a:	b086      	sub	sp, #24
 800113c:	af00      	add	r7, sp, #0
 800113e:	6078      	str	r0, [r7, #4]
 8001140:	6039      	str	r1, [r7, #0]
  uint8_t data[5] = {0};
 8001142:	f107 0308 	add.w	r3, r7, #8
 8001146:	2200      	movs	r2, #0
 8001148:	601a      	str	r2, [r3, #0]
 800114a:	711a      	strb	r2, [r3, #4]

  // Start signal
  DHT_PinOutput();
 800114c:	f7ff ffbe 	bl	80010cc <DHT_PinOutput>
  HAL_GPIO_WritePin(DHT_PORT, DHT_PIN, GPIO_PIN_RESET);
 8001150:	2200      	movs	r2, #0
 8001152:	2101      	movs	r1, #1
 8001154:	486d      	ldr	r0, [pc, #436]	@ (800130c <DHT11_Read+0x1d4>)
 8001156:	f002 f91c 	bl	8003392 <HAL_GPIO_WritePin>
  HAL_Delay(20); // 18~20ms
 800115a:	2014      	movs	r0, #20
 800115c:	f000 ffb8 	bl	80020d0 <HAL_Delay>
  HAL_GPIO_WritePin(DHT_PORT, DHT_PIN, GPIO_PIN_SET);
 8001160:	2201      	movs	r2, #1
 8001162:	2101      	movs	r1, #1
 8001164:	4869      	ldr	r0, [pc, #420]	@ (800130c <DHT11_Read+0x1d4>)
 8001166:	f002 f914 	bl	8003392 <HAL_GPIO_WritePin>
  delay_us(30);
 800116a:	201e      	movs	r0, #30
 800116c:	f7ff ff88 	bl	8001080 <delay_us>
  DHT_PinInput();
 8001170:	f7ff ffc8 	bl	8001104 <DHT_PinInput>

  // DHT  Low(~80us)
  uint32_t t=0;
 8001174:	2300      	movs	r3, #0
 8001176:	617b      	str	r3, [r7, #20]
  while (HAL_GPIO_ReadPin(DHT_PORT, DHT_PIN)==GPIO_PIN_SET){ if(++t>10000) return -1; }
 8001178:	e00a      	b.n	8001190 <DHT11_Read+0x58>
 800117a:	697b      	ldr	r3, [r7, #20]
 800117c:	3301      	adds	r3, #1
 800117e:	617b      	str	r3, [r7, #20]
 8001180:	697b      	ldr	r3, [r7, #20]
 8001182:	f242 7210 	movw	r2, #10000	@ 0x2710
 8001186:	4293      	cmp	r3, r2
 8001188:	d902      	bls.n	8001190 <DHT11_Read+0x58>
 800118a:	f04f 33ff 	mov.w	r3, #4294967295
 800118e:	e0b8      	b.n	8001302 <DHT11_Read+0x1ca>
 8001190:	2101      	movs	r1, #1
 8001192:	485e      	ldr	r0, [pc, #376]	@ (800130c <DHT11_Read+0x1d4>)
 8001194:	f002 f8e6 	bl	8003364 <HAL_GPIO_ReadPin>
 8001198:	4603      	mov	r3, r0
 800119a:	2b01      	cmp	r3, #1
 800119c:	d0ed      	beq.n	800117a <DHT11_Read+0x42>
  // DHT  High(~80us)
  t=0; while (HAL_GPIO_ReadPin(DHT_PORT, DHT_PIN)==GPIO_PIN_RESET){ if(++t>10000) return -2; }
 800119e:	2300      	movs	r3, #0
 80011a0:	617b      	str	r3, [r7, #20]
 80011a2:	e00a      	b.n	80011ba <DHT11_Read+0x82>
 80011a4:	697b      	ldr	r3, [r7, #20]
 80011a6:	3301      	adds	r3, #1
 80011a8:	617b      	str	r3, [r7, #20]
 80011aa:	697b      	ldr	r3, [r7, #20]
 80011ac:	f242 7210 	movw	r2, #10000	@ 0x2710
 80011b0:	4293      	cmp	r3, r2
 80011b2:	d902      	bls.n	80011ba <DHT11_Read+0x82>
 80011b4:	f06f 0301 	mvn.w	r3, #1
 80011b8:	e0a3      	b.n	8001302 <DHT11_Read+0x1ca>
 80011ba:	2101      	movs	r1, #1
 80011bc:	4853      	ldr	r0, [pc, #332]	@ (800130c <DHT11_Read+0x1d4>)
 80011be:	f002 f8d1 	bl	8003364 <HAL_GPIO_ReadPin>
 80011c2:	4603      	mov	r3, r0
 80011c4:	2b00      	cmp	r3, #0
 80011c6:	d0ed      	beq.n	80011a4 <DHT11_Read+0x6c>
  t=0; while (HAL_GPIO_ReadPin(DHT_PORT, DHT_PIN)==GPIO_PIN_SET)  { if(++t>10000) return -3; }
 80011c8:	2300      	movs	r3, #0
 80011ca:	617b      	str	r3, [r7, #20]
 80011cc:	e00a      	b.n	80011e4 <DHT11_Read+0xac>
 80011ce:	697b      	ldr	r3, [r7, #20]
 80011d0:	3301      	adds	r3, #1
 80011d2:	617b      	str	r3, [r7, #20]
 80011d4:	697b      	ldr	r3, [r7, #20]
 80011d6:	f242 7210 	movw	r2, #10000	@ 0x2710
 80011da:	4293      	cmp	r3, r2
 80011dc:	d902      	bls.n	80011e4 <DHT11_Read+0xac>
 80011de:	f06f 0302 	mvn.w	r3, #2
 80011e2:	e08e      	b.n	8001302 <DHT11_Read+0x1ca>
 80011e4:	2101      	movs	r1, #1
 80011e6:	4849      	ldr	r0, [pc, #292]	@ (800130c <DHT11_Read+0x1d4>)
 80011e8:	f002 f8bc 	bl	8003364 <HAL_GPIO_ReadPin>
 80011ec:	4603      	mov	r3, r0
 80011ee:	2b01      	cmp	r3, #1
 80011f0:	d0ed      	beq.n	80011ce <DHT11_Read+0x96>

  // 40  (delay )
  memset(data, 0, sizeof(data));
 80011f2:	f107 0308 	add.w	r3, r7, #8
 80011f6:	2205      	movs	r2, #5
 80011f8:	2100      	movs	r1, #0
 80011fa:	4618      	mov	r0, r3
 80011fc:	f004 fa7f 	bl	80056fe <memset>
  for (int i=0;i<40;i++){
 8001200:	2300      	movs	r3, #0
 8001202:	613b      	str	r3, [r7, #16]
 8001204:	e05a      	b.n	80012bc <DHT11_Read+0x184>
    // 50us Low
    t=0; while (HAL_GPIO_ReadPin(DHT_PORT, DHT_PIN)==GPIO_PIN_RESET){ if(++t>10000) return -4; }
 8001206:	2300      	movs	r3, #0
 8001208:	617b      	str	r3, [r7, #20]
 800120a:	e00a      	b.n	8001222 <DHT11_Read+0xea>
 800120c:	697b      	ldr	r3, [r7, #20]
 800120e:	3301      	adds	r3, #1
 8001210:	617b      	str	r3, [r7, #20]
 8001212:	697b      	ldr	r3, [r7, #20]
 8001214:	f242 7210 	movw	r2, #10000	@ 0x2710
 8001218:	4293      	cmp	r3, r2
 800121a:	d902      	bls.n	8001222 <DHT11_Read+0xea>
 800121c:	f06f 0303 	mvn.w	r3, #3
 8001220:	e06f      	b.n	8001302 <DHT11_Read+0x1ca>
 8001222:	2101      	movs	r1, #1
 8001224:	4839      	ldr	r0, [pc, #228]	@ (800130c <DHT11_Read+0x1d4>)
 8001226:	f002 f89d 	bl	8003364 <HAL_GPIO_ReadPin>
 800122a:	4603      	mov	r3, r0
 800122c:	2b00      	cmp	r3, #0
 800122e:	d0ed      	beq.n	800120c <DHT11_Read+0xd4>
    //  35us   
    delay_us(35);
 8001230:	2023      	movs	r0, #35	@ 0x23
 8001232:	f7ff ff25 	bl	8001080 <delay_us>
    uint8_t bit = (HAL_GPIO_ReadPin(DHT_PORT, DHT_PIN)==GPIO_PIN_SET) ? 1 : 0;
 8001236:	2101      	movs	r1, #1
 8001238:	4834      	ldr	r0, [pc, #208]	@ (800130c <DHT11_Read+0x1d4>)
 800123a:	f002 f893 	bl	8003364 <HAL_GPIO_ReadPin>
 800123e:	4603      	mov	r3, r0
 8001240:	2b01      	cmp	r3, #1
 8001242:	bf0c      	ite	eq
 8001244:	2301      	moveq	r3, #1
 8001246:	2300      	movne	r3, #0
 8001248:	b2db      	uxtb	r3, r3
 800124a:	73bb      	strb	r3, [r7, #14]
    // High   
    t=0; while (HAL_GPIO_ReadPin(DHT_PORT, DHT_PIN)==GPIO_PIN_SET){ if(++t>10000) break; }
 800124c:	2300      	movs	r3, #0
 800124e:	617b      	str	r3, [r7, #20]
 8001250:	e007      	b.n	8001262 <DHT11_Read+0x12a>
 8001252:	697b      	ldr	r3, [r7, #20]
 8001254:	3301      	adds	r3, #1
 8001256:	617b      	str	r3, [r7, #20]
 8001258:	697b      	ldr	r3, [r7, #20]
 800125a:	f242 7210 	movw	r2, #10000	@ 0x2710
 800125e:	4293      	cmp	r3, r2
 8001260:	d807      	bhi.n	8001272 <DHT11_Read+0x13a>
 8001262:	2101      	movs	r1, #1
 8001264:	4829      	ldr	r0, [pc, #164]	@ (800130c <DHT11_Read+0x1d4>)
 8001266:	f002 f87d 	bl	8003364 <HAL_GPIO_ReadPin>
 800126a:	4603      	mov	r3, r0
 800126c:	2b01      	cmp	r3, #1
 800126e:	d0f0      	beq.n	8001252 <DHT11_Read+0x11a>
 8001270:	e000      	b.n	8001274 <DHT11_Read+0x13c>
 8001272:	bf00      	nop

    data[i/8] <<= 1;
 8001274:	693b      	ldr	r3, [r7, #16]
 8001276:	2b00      	cmp	r3, #0
 8001278:	da00      	bge.n	800127c <DHT11_Read+0x144>
 800127a:	3307      	adds	r3, #7
 800127c:	10db      	asrs	r3, r3, #3
 800127e:	f103 0218 	add.w	r2, r3, #24
 8001282:	443a      	add	r2, r7
 8001284:	f812 2c10 	ldrb.w	r2, [r2, #-16]
 8001288:	0052      	lsls	r2, r2, #1
 800128a:	b2d2      	uxtb	r2, r2
 800128c:	3318      	adds	r3, #24
 800128e:	443b      	add	r3, r7
 8001290:	f803 2c10 	strb.w	r2, [r3, #-16]
    data[i/8] |= bit;
 8001294:	693b      	ldr	r3, [r7, #16]
 8001296:	2b00      	cmp	r3, #0
 8001298:	da00      	bge.n	800129c <DHT11_Read+0x164>
 800129a:	3307      	adds	r3, #7
 800129c:	10db      	asrs	r3, r3, #3
 800129e:	f103 0218 	add.w	r2, r3, #24
 80012a2:	443a      	add	r2, r7
 80012a4:	f812 1c10 	ldrb.w	r1, [r2, #-16]
 80012a8:	7bba      	ldrb	r2, [r7, #14]
 80012aa:	430a      	orrs	r2, r1
 80012ac:	b2d2      	uxtb	r2, r2
 80012ae:	3318      	adds	r3, #24
 80012b0:	443b      	add	r3, r7
 80012b2:	f803 2c10 	strb.w	r2, [r3, #-16]
  for (int i=0;i<40;i++){
 80012b6:	693b      	ldr	r3, [r7, #16]
 80012b8:	3301      	adds	r3, #1
 80012ba:	613b      	str	r3, [r7, #16]
 80012bc:	693b      	ldr	r3, [r7, #16]
 80012be:	2b27      	cmp	r3, #39	@ 0x27
 80012c0:	dda1      	ble.n	8001206 <DHT11_Read+0xce>
  }

  // 
  uint8_t sum = data[0]+data[1]+data[2]+data[3];
 80012c2:	7a3a      	ldrb	r2, [r7, #8]
 80012c4:	7a7b      	ldrb	r3, [r7, #9]
 80012c6:	4413      	add	r3, r2
 80012c8:	b2da      	uxtb	r2, r3
 80012ca:	7abb      	ldrb	r3, [r7, #10]
 80012cc:	4413      	add	r3, r2
 80012ce:	b2da      	uxtb	r2, r3
 80012d0:	7afb      	ldrb	r3, [r7, #11]
 80012d2:	4413      	add	r3, r2
 80012d4:	73fb      	strb	r3, [r7, #15]
  if ((sum & 0xFF) != data[4]) return -7;
 80012d6:	7b3b      	ldrb	r3, [r7, #12]
 80012d8:	7bfa      	ldrb	r2, [r7, #15]
 80012da:	429a      	cmp	r2, r3
 80012dc:	d002      	beq.n	80012e4 <DHT11_Read+0x1ac>
 80012de:	f06f 0306 	mvn.w	r3, #6
 80012e2:	e00e      	b.n	8001302 <DHT11_Read+0x1ca>

  *rh     = (float)data[0];  // DHT11  
 80012e4:	7a3b      	ldrb	r3, [r7, #8]
 80012e6:	4618      	mov	r0, r3
 80012e8:	f7ff fc84 	bl	8000bf4 <__aeabi_ui2f>
 80012ec:	4602      	mov	r2, r0
 80012ee:	683b      	ldr	r3, [r7, #0]
 80012f0:	601a      	str	r2, [r3, #0]
  *temp_c = (float)data[2];
 80012f2:	7abb      	ldrb	r3, [r7, #10]
 80012f4:	4618      	mov	r0, r3
 80012f6:	f7ff fc7d 	bl	8000bf4 <__aeabi_ui2f>
 80012fa:	4602      	mov	r2, r0
 80012fc:	687b      	ldr	r3, [r7, #4]
 80012fe:	601a      	str	r2, [r3, #0]
  return 0;
 8001300:	2300      	movs	r3, #0
}
 8001302:	4618      	mov	r0, r3
 8001304:	3718      	adds	r7, #24
 8001306:	46bd      	mov	sp, r7
 8001308:	bd80      	pop	{r7, pc}
 800130a:	bf00      	nop
 800130c:	40010c00 	.word	0x40010c00

08001310 <ADC1_Read_PA0>:

/* ---- ADC(PA0 = ADC1_IN0)  : CDS ---- */
static uint16_t ADC1_Read_PA0(void){
 8001310:	b580      	push	{r7, lr}
 8001312:	b084      	sub	sp, #16
 8001314:	af00      	add	r7, sp, #0
  ADC_ChannelConfTypeDef sConfig = {0};
 8001316:	463b      	mov	r3, r7
 8001318:	2200      	movs	r2, #0
 800131a:	601a      	str	r2, [r3, #0]
 800131c:	605a      	str	r2, [r3, #4]
 800131e:	609a      	str	r2, [r3, #8]
  sConfig.Channel      = ADC_CHANNEL_0; // PA0
 8001320:	2300      	movs	r3, #0
 8001322:	603b      	str	r3, [r7, #0]
  sConfig.Rank         = ADC_REGULAR_RANK_1;
 8001324:	2301      	movs	r3, #1
 8001326:	607b      	str	r3, [r7, #4]
  sConfig.SamplingTime = ADC_SAMPLETIME_239CYCLES_5;
 8001328:	2307      	movs	r3, #7
 800132a:	60bb      	str	r3, [r7, #8]
  HAL_ADC_ConfigChannel(&hadc1, &sConfig);
 800132c:	463b      	mov	r3, r7
 800132e:	4619      	mov	r1, r3
 8001330:	480b      	ldr	r0, [pc, #44]	@ (8001360 <ADC1_Read_PA0+0x50>)
 8001332:	f001 fa87 	bl	8002844 <HAL_ADC_ConfigChannel>

  HAL_ADC_Start(&hadc1);
 8001336:	480a      	ldr	r0, [pc, #40]	@ (8001360 <ADC1_Read_PA0+0x50>)
 8001338:	f000 ffc6 	bl	80022c8 <HAL_ADC_Start>
  HAL_ADC_PollForConversion(&hadc1, 10);
 800133c:	210a      	movs	r1, #10
 800133e:	4808      	ldr	r0, [pc, #32]	@ (8001360 <ADC1_Read_PA0+0x50>)
 8001340:	f001 f89c 	bl	800247c <HAL_ADC_PollForConversion>
  uint16_t v = HAL_ADC_GetValue(&hadc1); // 0~4095
 8001344:	4806      	ldr	r0, [pc, #24]	@ (8001360 <ADC1_Read_PA0+0x50>)
 8001346:	f001 f99f 	bl	8002688 <HAL_ADC_GetValue>
 800134a:	4603      	mov	r3, r0
 800134c:	81fb      	strh	r3, [r7, #14]
  HAL_ADC_Stop(&hadc1);
 800134e:	4804      	ldr	r0, [pc, #16]	@ (8001360 <ADC1_Read_PA0+0x50>)
 8001350:	f001 f868 	bl	8002424 <HAL_ADC_Stop>
  return v;
 8001354:	89fb      	ldrh	r3, [r7, #14]
}
 8001356:	4618      	mov	r0, r3
 8001358:	3710      	adds	r7, #16
 800135a:	46bd      	mov	sp, r7
 800135c:	bd80      	pop	{r7, pc}
 800135e:	bf00      	nop
 8001360:	200001f0 	.word	0x200001f0

08001364 <read_cds_avg>:
static uint16_t read_cds_avg(void){
 8001364:	b580      	push	{r7, lr}
 8001366:	b082      	sub	sp, #8
 8001368:	af00      	add	r7, sp, #0
  uint32_t acc=0;
 800136a:	2300      	movs	r3, #0
 800136c:	607b      	str	r3, [r7, #4]
  for(int i=0;i<16;i++){ acc += ADC1_Read_PA0(); HAL_Delay(2); }
 800136e:	2300      	movs	r3, #0
 8001370:	603b      	str	r3, [r7, #0]
 8001372:	e00c      	b.n	800138e <read_cds_avg+0x2a>
 8001374:	f7ff ffcc 	bl	8001310 <ADC1_Read_PA0>
 8001378:	4603      	mov	r3, r0
 800137a:	461a      	mov	r2, r3
 800137c:	687b      	ldr	r3, [r7, #4]
 800137e:	4413      	add	r3, r2
 8001380:	607b      	str	r3, [r7, #4]
 8001382:	2002      	movs	r0, #2
 8001384:	f000 fea4 	bl	80020d0 <HAL_Delay>
 8001388:	683b      	ldr	r3, [r7, #0]
 800138a:	3301      	adds	r3, #1
 800138c:	603b      	str	r3, [r7, #0]
 800138e:	683b      	ldr	r3, [r7, #0]
 8001390:	2b0f      	cmp	r3, #15
 8001392:	ddef      	ble.n	8001374 <read_cds_avg+0x10>
  return (uint16_t)(acc/16);
 8001394:	687b      	ldr	r3, [r7, #4]
 8001396:	091b      	lsrs	r3, r3, #4
 8001398:	b29b      	uxth	r3, r3
}
 800139a:	4618      	mov	r0, r3
 800139c:	3708      	adds	r7, #8
 800139e:	46bd      	mov	sp, r7
 80013a0:	bd80      	pop	{r7, pc}
	...

080013a4 <ADC1_Read_PC1>:

/* ---- ADC(PC1 = ADC1_IN11)  : Soil Pot ---- */
static uint16_t ADC1_Read_PC1(void){
 80013a4:	b580      	push	{r7, lr}
 80013a6:	b084      	sub	sp, #16
 80013a8:	af00      	add	r7, sp, #0
  ADC_ChannelConfTypeDef sConfig = {0};
 80013aa:	463b      	mov	r3, r7
 80013ac:	2200      	movs	r2, #0
 80013ae:	601a      	str	r2, [r3, #0]
 80013b0:	605a      	str	r2, [r3, #4]
 80013b2:	609a      	str	r2, [r3, #8]
  sConfig.Channel      = ADC_CHANNEL_11; // PC1
 80013b4:	230b      	movs	r3, #11
 80013b6:	603b      	str	r3, [r7, #0]
  sConfig.Rank         = ADC_REGULAR_RANK_1;
 80013b8:	2301      	movs	r3, #1
 80013ba:	607b      	str	r3, [r7, #4]
  sConfig.SamplingTime = ADC_SAMPLETIME_239CYCLES_5;
 80013bc:	2307      	movs	r3, #7
 80013be:	60bb      	str	r3, [r7, #8]
  HAL_ADC_ConfigChannel(&hadc1, &sConfig);
 80013c0:	463b      	mov	r3, r7
 80013c2:	4619      	mov	r1, r3
 80013c4:	480b      	ldr	r0, [pc, #44]	@ (80013f4 <ADC1_Read_PC1+0x50>)
 80013c6:	f001 fa3d 	bl	8002844 <HAL_ADC_ConfigChannel>

  HAL_ADC_Start(&hadc1);
 80013ca:	480a      	ldr	r0, [pc, #40]	@ (80013f4 <ADC1_Read_PC1+0x50>)
 80013cc:	f000 ff7c 	bl	80022c8 <HAL_ADC_Start>
  HAL_ADC_PollForConversion(&hadc1, 10);
 80013d0:	210a      	movs	r1, #10
 80013d2:	4808      	ldr	r0, [pc, #32]	@ (80013f4 <ADC1_Read_PC1+0x50>)
 80013d4:	f001 f852 	bl	800247c <HAL_ADC_PollForConversion>
  uint16_t v = HAL_ADC_GetValue(&hadc1); // 0~4095
 80013d8:	4806      	ldr	r0, [pc, #24]	@ (80013f4 <ADC1_Read_PC1+0x50>)
 80013da:	f001 f955 	bl	8002688 <HAL_ADC_GetValue>
 80013de:	4603      	mov	r3, r0
 80013e0:	81fb      	strh	r3, [r7, #14]
  HAL_ADC_Stop(&hadc1);
 80013e2:	4804      	ldr	r0, [pc, #16]	@ (80013f4 <ADC1_Read_PC1+0x50>)
 80013e4:	f001 f81e 	bl	8002424 <HAL_ADC_Stop>
  return v;
 80013e8:	89fb      	ldrh	r3, [r7, #14]
}
 80013ea:	4618      	mov	r0, r3
 80013ec:	3710      	adds	r7, #16
 80013ee:	46bd      	mov	sp, r7
 80013f0:	bd80      	pop	{r7, pc}
 80013f2:	bf00      	nop
 80013f4:	200001f0 	.word	0x200001f0

080013f8 <read_soil_avg>:
static uint16_t read_soil_avg(void){
 80013f8:	b580      	push	{r7, lr}
 80013fa:	b082      	sub	sp, #8
 80013fc:	af00      	add	r7, sp, #0
  uint32_t acc=0;
 80013fe:	2300      	movs	r3, #0
 8001400:	607b      	str	r3, [r7, #4]
  for(int i=0;i<16;i++){ acc += ADC1_Read_PC1(); HAL_Delay(2); }
 8001402:	2300      	movs	r3, #0
 8001404:	603b      	str	r3, [r7, #0]
 8001406:	e00c      	b.n	8001422 <read_soil_avg+0x2a>
 8001408:	f7ff ffcc 	bl	80013a4 <ADC1_Read_PC1>
 800140c:	4603      	mov	r3, r0
 800140e:	461a      	mov	r2, r3
 8001410:	687b      	ldr	r3, [r7, #4]
 8001412:	4413      	add	r3, r2
 8001414:	607b      	str	r3, [r7, #4]
 8001416:	2002      	movs	r0, #2
 8001418:	f000 fe5a 	bl	80020d0 <HAL_Delay>
 800141c:	683b      	ldr	r3, [r7, #0]
 800141e:	3301      	adds	r3, #1
 8001420:	603b      	str	r3, [r7, #0]
 8001422:	683b      	ldr	r3, [r7, #0]
 8001424:	2b0f      	cmp	r3, #15
 8001426:	ddef      	ble.n	8001408 <read_soil_avg+0x10>
  return (uint16_t)(acc/16);
 8001428:	687b      	ldr	r3, [r7, #4]
 800142a:	091b      	lsrs	r3, r3, #4
 800142c:	b29b      	uxth	r3, r3
}
 800142e:	4618      	mov	r0, r3
 8001430:	3708      	adds	r7, #8
 8001432:	46bd      	mov	sp, r7
 8001434:	bd80      	pop	{r7, pc}
	...

08001438 <HAL_UART_RxCpltCallback>:

// ---- UART Rx  (  ) ----
void HAL_UART_RxCpltCallback(UART_HandleTypeDef *huart) {
 8001438:	b580      	push	{r7, lr}
 800143a:	b086      	sub	sp, #24
 800143c:	af00      	add	r7, sp, #0
 800143e:	6078      	str	r0, [r7, #4]
  if (huart->Instance == USART1) {
 8001440:	687b      	ldr	r3, [r7, #4]
 8001442:	681b      	ldr	r3, [r3, #0]
 8001444:	4a34      	ldr	r2, [pc, #208]	@ (8001518 <HAL_UART_RxCpltCallback+0xe0>)
 8001446:	4293      	cmp	r3, r2
 8001448:	d162      	bne.n	8001510 <HAL_UART_RxCpltCallback+0xd8>
    char c = (char)rx1;
 800144a:	4b34      	ldr	r3, [pc, #208]	@ (800151c <HAL_UART_RxCpltCallback+0xe4>)
 800144c:	781b      	ldrb	r3, [r3, #0]
 800144e:	75fb      	strb	r3, [r7, #23]
    if (c == '\n' || c == '\r') {
 8001450:	7dfb      	ldrb	r3, [r7, #23]
 8001452:	2b0a      	cmp	r3, #10
 8001454:	d002      	beq.n	800145c <HAL_UART_RxCpltCallback+0x24>
 8001456:	7dfb      	ldrb	r3, [r7, #23]
 8001458:	2b0d      	cmp	r3, #13
 800145a:	d143      	bne.n	80014e4 <HAL_UART_RxCpltCallback+0xac>
      if (line_len > 0) {
 800145c:	4b30      	ldr	r3, [pc, #192]	@ (8001520 <HAL_UART_RxCpltCallback+0xe8>)
 800145e:	881b      	ldrh	r3, [r3, #0]
 8001460:	b29b      	uxth	r3, r3
 8001462:	2b00      	cmp	r3, #0
 8001464:	d052      	beq.n	800150c <HAL_UART_RxCpltCallback+0xd4>
        line_buf[line_len] = 0;
 8001466:	4b2e      	ldr	r3, [pc, #184]	@ (8001520 <HAL_UART_RxCpltCallback+0xe8>)
 8001468:	881b      	ldrh	r3, [r3, #0]
 800146a:	b29b      	uxth	r3, r3
 800146c:	461a      	mov	r2, r3
 800146e:	4b2d      	ldr	r3, [pc, #180]	@ (8001524 <HAL_UART_RxCpltCallback+0xec>)
 8001470:	2100      	movs	r1, #0
 8001472:	5499      	strb	r1, [r3, r2]
        const char *nl = "\r\n";
 8001474:	4b2c      	ldr	r3, [pc, #176]	@ (8001528 <HAL_UART_RxCpltCallback+0xf0>)
 8001476:	613b      	str	r3, [r7, #16]
        const char *prefix = "RX:";
 8001478:	4b2c      	ldr	r3, [pc, #176]	@ (800152c <HAL_UART_RxCpltCallback+0xf4>)
 800147a:	60fb      	str	r3, [r7, #12]
        HAL_UART_Transmit(&huart2, (uint8_t*)prefix, 3, HAL_MAX_DELAY);
 800147c:	f04f 33ff 	mov.w	r3, #4294967295
 8001480:	2203      	movs	r2, #3
 8001482:	68f9      	ldr	r1, [r7, #12]
 8001484:	482a      	ldr	r0, [pc, #168]	@ (8001530 <HAL_UART_RxCpltCallback+0xf8>)
 8001486:	f002 fd8b 	bl	8003fa0 <HAL_UART_Transmit>
        HAL_UART_Transmit(&huart2, (uint8_t*)line_buf, line_len, HAL_MAX_DELAY);
 800148a:	4b25      	ldr	r3, [pc, #148]	@ (8001520 <HAL_UART_RxCpltCallback+0xe8>)
 800148c:	881b      	ldrh	r3, [r3, #0]
 800148e:	b29a      	uxth	r2, r3
 8001490:	f04f 33ff 	mov.w	r3, #4294967295
 8001494:	4923      	ldr	r1, [pc, #140]	@ (8001524 <HAL_UART_RxCpltCallback+0xec>)
 8001496:	4826      	ldr	r0, [pc, #152]	@ (8001530 <HAL_UART_RxCpltCallback+0xf8>)
 8001498:	f002 fd82 	bl	8003fa0 <HAL_UART_Transmit>
        HAL_UART_Transmit(&huart2, (uint8_t*)nl, 2, HAL_MAX_DELAY);
 800149c:	f04f 33ff 	mov.w	r3, #4294967295
 80014a0:	2202      	movs	r2, #2
 80014a2:	6939      	ldr	r1, [r7, #16]
 80014a4:	4822      	ldr	r0, [pc, #136]	@ (8001530 <HAL_UART_RxCpltCallback+0xf8>)
 80014a6:	f002 fd7b 	bl	8003fa0 <HAL_UART_Transmit>

        const char *echo = "ECHO:";
 80014aa:	4b22      	ldr	r3, [pc, #136]	@ (8001534 <HAL_UART_RxCpltCallback+0xfc>)
 80014ac:	60bb      	str	r3, [r7, #8]
        HAL_UART_Transmit(&huart1, (uint8_t*)echo, 5, HAL_MAX_DELAY);
 80014ae:	f04f 33ff 	mov.w	r3, #4294967295
 80014b2:	2205      	movs	r2, #5
 80014b4:	68b9      	ldr	r1, [r7, #8]
 80014b6:	4820      	ldr	r0, [pc, #128]	@ (8001538 <HAL_UART_RxCpltCallback+0x100>)
 80014b8:	f002 fd72 	bl	8003fa0 <HAL_UART_Transmit>
        HAL_UART_Transmit(&huart1, (uint8_t*)line_buf, line_len, HAL_MAX_DELAY);
 80014bc:	4b18      	ldr	r3, [pc, #96]	@ (8001520 <HAL_UART_RxCpltCallback+0xe8>)
 80014be:	881b      	ldrh	r3, [r3, #0]
 80014c0:	b29a      	uxth	r2, r3
 80014c2:	f04f 33ff 	mov.w	r3, #4294967295
 80014c6:	4917      	ldr	r1, [pc, #92]	@ (8001524 <HAL_UART_RxCpltCallback+0xec>)
 80014c8:	481b      	ldr	r0, [pc, #108]	@ (8001538 <HAL_UART_RxCpltCallback+0x100>)
 80014ca:	f002 fd69 	bl	8003fa0 <HAL_UART_Transmit>
        HAL_UART_Transmit(&huart1, (uint8_t*)"\n", 1, HAL_MAX_DELAY);
 80014ce:	f04f 33ff 	mov.w	r3, #4294967295
 80014d2:	2201      	movs	r2, #1
 80014d4:	4919      	ldr	r1, [pc, #100]	@ (800153c <HAL_UART_RxCpltCallback+0x104>)
 80014d6:	4818      	ldr	r0, [pc, #96]	@ (8001538 <HAL_UART_RxCpltCallback+0x100>)
 80014d8:	f002 fd62 	bl	8003fa0 <HAL_UART_Transmit>

        line_len = 0;
 80014dc:	4b10      	ldr	r3, [pc, #64]	@ (8001520 <HAL_UART_RxCpltCallback+0xe8>)
 80014de:	2200      	movs	r2, #0
 80014e0:	801a      	strh	r2, [r3, #0]
      if (line_len > 0) {
 80014e2:	e013      	b.n	800150c <HAL_UART_RxCpltCallback+0xd4>
      }
    } else {
      if (line_len < sizeof(line_buf) - 1) line_buf[line_len++] = c;
 80014e4:	4b0e      	ldr	r3, [pc, #56]	@ (8001520 <HAL_UART_RxCpltCallback+0xe8>)
 80014e6:	881b      	ldrh	r3, [r3, #0]
 80014e8:	b29b      	uxth	r3, r3
 80014ea:	2b7e      	cmp	r3, #126	@ 0x7e
 80014ec:	d80b      	bhi.n	8001506 <HAL_UART_RxCpltCallback+0xce>
 80014ee:	4b0c      	ldr	r3, [pc, #48]	@ (8001520 <HAL_UART_RxCpltCallback+0xe8>)
 80014f0:	881b      	ldrh	r3, [r3, #0]
 80014f2:	b29b      	uxth	r3, r3
 80014f4:	1c5a      	adds	r2, r3, #1
 80014f6:	b291      	uxth	r1, r2
 80014f8:	4a09      	ldr	r2, [pc, #36]	@ (8001520 <HAL_UART_RxCpltCallback+0xe8>)
 80014fa:	8011      	strh	r1, [r2, #0]
 80014fc:	4619      	mov	r1, r3
 80014fe:	4a09      	ldr	r2, [pc, #36]	@ (8001524 <HAL_UART_RxCpltCallback+0xec>)
 8001500:	7dfb      	ldrb	r3, [r7, #23]
 8001502:	5453      	strb	r3, [r2, r1]
 8001504:	e002      	b.n	800150c <HAL_UART_RxCpltCallback+0xd4>
      else line_len = 0;
 8001506:	4b06      	ldr	r3, [pc, #24]	@ (8001520 <HAL_UART_RxCpltCallback+0xe8>)
 8001508:	2200      	movs	r2, #0
 800150a:	801a      	strh	r2, [r3, #0]
    }
    Uart1_RxStartIT();
 800150c:	f7ff fd90 	bl	8001030 <Uart1_RxStartIT>
  }
}
 8001510:	bf00      	nop
 8001512:	3718      	adds	r7, #24
 8001514:	46bd      	mov	sp, r7
 8001516:	bd80      	pop	{r7, pc}
 8001518:	40013800 	.word	0x40013800
 800151c:	200002e0 	.word	0x200002e0
 8001520:	20000364 	.word	0x20000364
 8001524:	200002e4 	.word	0x200002e4
 8001528:	080078c8 	.word	0x080078c8
 800152c:	080078cc 	.word	0x080078cc
 8001530:	20000298 	.word	0x20000298
 8001534:	080078d0 	.word	0x080078d0
 8001538:	20000250 	.word	0x20000250
 800153c:	080078d8 	.word	0x080078d8

08001540 <main>:
/**
  * @brief  The application entry point.
  * @retval int
  */
int main(void)
{
 8001540:	e92d 43f0 	stmdb	sp!, {r4, r5, r6, r7, r8, r9, lr}
 8001544:	b0c3      	sub	sp, #268	@ 0x10c
 8001546:	af08      	add	r7, sp, #32
  HAL_Init();
 8001548:	f000 fd60 	bl	800200c <HAL_Init>
  SystemClock_Config();
 800154c:	f000 f8f8 	bl	8001740 <SystemClock_Config>

  /* Initialize all configured peripherals */
  MX_GPIO_Init();
 8001550:	f000 fa20 	bl	8001994 <MX_GPIO_Init>
  MX_USART2_UART_Init();
 8001554:	f000 f9f4 	bl	8001940 <MX_USART2_UART_Init>
  MX_USART1_UART_Init();
 8001558:	f000 f9c8 	bl	80018ec <MX_USART1_UART_Init>
  MX_ADC1_Init();
 800155c:	f000 f94a 	bl	80017f4 <MX_ADC1_Init>
  MX_ADC2_Init();
 8001560:	f000 f986 	bl	8001870 <MX_ADC2_Init>

  /* USER CODE BEGIN 2 */
  HAL_ADCEx_Calibration_Start(&hadc1);
 8001564:	486d      	ldr	r0, [pc, #436]	@ (800171c <main+0x1dc>)
 8001566:	f001 fb01 	bl	8002b6c <HAL_ADCEx_Calibration_Start>
  DWT_Delay_Init();
 800156a:	f7ff fd6f 	bl	800104c <DWT_Delay_Init>

  const char *boot = "STM32 UART+Sensor ready\r\n";
 800156e:	4b6c      	ldr	r3, [pc, #432]	@ (8001720 <main+0x1e0>)
 8001570:	f8c7 30dc 	str.w	r3, [r7, #220]	@ 0xdc
  HAL_UART_Transmit(&huart2, (uint8_t*)boot, strlen(boot), HAL_MAX_DELAY);
 8001574:	f8d7 00dc 	ldr.w	r0, [r7, #220]	@ 0xdc
 8001578:	f7fe fdea 	bl	8000150 <strlen>
 800157c:	4603      	mov	r3, r0
 800157e:	b29a      	uxth	r2, r3
 8001580:	f04f 33ff 	mov.w	r3, #4294967295
 8001584:	f8d7 10dc 	ldr.w	r1, [r7, #220]	@ 0xdc
 8001588:	4866      	ldr	r0, [pc, #408]	@ (8001724 <main+0x1e4>)
 800158a:	f002 fd09 	bl	8003fa0 <HAL_UART_Transmit>

  // USART1 RX   Enable
  HAL_NVIC_SetPriority(USART1_IRQn, 1, 0);
 800158e:	2200      	movs	r2, #0
 8001590:	2101      	movs	r1, #1
 8001592:	2025      	movs	r0, #37	@ 0x25
 8001594:	f001 fc79 	bl	8002e8a <HAL_NVIC_SetPriority>
  HAL_NVIC_EnableIRQ(USART1_IRQn);
 8001598:	2025      	movs	r0, #37	@ 0x25
 800159a:	f001 fc92 	bl	8002ec2 <HAL_NVIC_EnableIRQ>

  DHT_PinInput();     //  
 800159e:	f7ff fdb1 	bl	8001104 <DHT_PinInput>
  Uart1_RxStartIT();  // UART1   
 80015a2:	f7ff fd45 	bl	8001030 <Uart1_RxStartIT>

  /* Infinite loop */
  while (1)
  {
    static uint32_t last = 0;
    if (HAL_GetTick() - last >= 1000) {
 80015a6:	f000 fd89 	bl	80020bc <HAL_GetTick>
 80015aa:	4602      	mov	r2, r0
 80015ac:	4b5e      	ldr	r3, [pc, #376]	@ (8001728 <main+0x1e8>)
 80015ae:	681b      	ldr	r3, [r3, #0]
 80015b0:	1ad3      	subs	r3, r2, r3
 80015b2:	f5b3 7f7a 	cmp.w	r3, #1000	@ 0x3e8
 80015b6:	d3f6      	bcc.n	80015a6 <main+0x66>
      last = HAL_GetTick();
 80015b8:	f000 fd80 	bl	80020bc <HAL_GetTick>
 80015bc:	4603      	mov	r3, r0
 80015be:	4a5a      	ldr	r2, [pc, #360]	@ (8001728 <main+0x1e8>)
 80015c0:	6013      	str	r3, [r2, #0]

      float tC=0, RH=0;
 80015c2:	f04f 0300 	mov.w	r3, #0
 80015c6:	f8c7 30d0 	str.w	r3, [r7, #208]	@ 0xd0
 80015ca:	f04f 0300 	mov.w	r3, #0
 80015ce:	f8c7 30cc 	str.w	r3, [r7, #204]	@ 0xcc
      int r = DHT11_Read(&tC, &RH);
 80015d2:	f107 02cc 	add.w	r2, r7, #204	@ 0xcc
 80015d6:	f107 03d0 	add.w	r3, r7, #208	@ 0xd0
 80015da:	4611      	mov	r1, r2
 80015dc:	4618      	mov	r0, r3
 80015de:	f7ff fdab 	bl	8001138 <DHT11_Read>
 80015e2:	f8c7 00d8 	str.w	r0, [r7, #216]	@ 0xd8

      // : PA0
      uint16_t cds_raw  = read_cds_avg();   // 0~4095
 80015e6:	f7ff febd 	bl	8001364 <read_cds_avg>
 80015ea:	4603      	mov	r3, r0
 80015ec:	f8a7 30d6 	strh.w	r3, [r7, #214]	@ 0xd6
      // (): PC1
      uint16_t soil_raw = read_soil_avg();  // 0~4095
 80015f0:	f7ff ff02 	bl	80013f8 <read_soil_avg>
 80015f4:	4603      	mov	r3, r0
 80015f6:	f8a7 30d4 	strh.w	r3, [r7, #212]	@ 0xd4
      float soil_pct = (1.0f - (float)soil_raw/4095.0f) * 100.0f; // =  
 80015fa:	f8b7 30d4 	ldrh.w	r3, [r7, #212]	@ 0xd4
 80015fe:	4618      	mov	r0, r3
 8001600:	f7ff faf8 	bl	8000bf4 <__aeabi_ui2f>
 8001604:	4603      	mov	r3, r0
 8001606:	4949      	ldr	r1, [pc, #292]	@ (800172c <main+0x1ec>)
 8001608:	4618      	mov	r0, r3
 800160a:	f7ff fbff 	bl	8000e0c <__aeabi_fdiv>
 800160e:	4603      	mov	r3, r0
 8001610:	4619      	mov	r1, r3
 8001612:	f04f 507e 	mov.w	r0, #1065353216	@ 0x3f800000
 8001616:	f7ff fa3b 	bl	8000a90 <__aeabi_fsub>
 800161a:	4603      	mov	r3, r0
 800161c:	4944      	ldr	r1, [pc, #272]	@ (8001730 <main+0x1f0>)
 800161e:	4618      	mov	r0, r3
 8001620:	f7ff fb40 	bl	8000ca4 <__aeabi_fmul>
 8001624:	4603      	mov	r3, r0
 8001626:	f8c7 30e4 	str.w	r3, [r7, #228]	@ 0xe4
      if (soil_pct < 0)   soil_pct = 0;
 800162a:	f04f 0100 	mov.w	r1, #0
 800162e:	f8d7 00e4 	ldr.w	r0, [r7, #228]	@ 0xe4
 8001632:	f7ff fcd5 	bl	8000fe0 <__aeabi_fcmplt>
 8001636:	4603      	mov	r3, r0
 8001638:	2b00      	cmp	r3, #0
 800163a:	d003      	beq.n	8001644 <main+0x104>
 800163c:	f04f 0300 	mov.w	r3, #0
 8001640:	f8c7 30e4 	str.w	r3, [r7, #228]	@ 0xe4
      if (soil_pct > 100) soil_pct = 100;
 8001644:	493a      	ldr	r1, [pc, #232]	@ (8001730 <main+0x1f0>)
 8001646:	f8d7 00e4 	ldr.w	r0, [r7, #228]	@ 0xe4
 800164a:	f7ff fce7 	bl	800101c <__aeabi_fcmpgt>
 800164e:	4603      	mov	r3, r0
 8001650:	2b00      	cmp	r3, #0
 8001652:	d002      	beq.n	800165a <main+0x11a>
 8001654:	4b36      	ldr	r3, [pc, #216]	@ (8001730 <main+0x1f0>)
 8001656:	f8c7 30e4 	str.w	r3, [r7, #228]	@ 0xe4

      char out[192];
      int n=0;
 800165a:	2300      	movs	r3, #0
 800165c:	f8c7 30e0 	str.w	r3, [r7, #224]	@ 0xe0
      if (r==0) {
 8001660:	f8d7 30d8 	ldr.w	r3, [r7, #216]	@ 0xd8
 8001664:	2b00      	cmp	r3, #0
 8001666:	d12a      	bne.n	80016be <main+0x17e>
        n = snprintf(out, sizeof(out),
 8001668:	f8d7 30d0 	ldr.w	r3, [r7, #208]	@ 0xd0
 800166c:	4618      	mov	r0, r3
 800166e:	f7fe fedb 	bl	8000428 <__aeabi_f2d>
 8001672:	4604      	mov	r4, r0
 8001674:	460d      	mov	r5, r1
 8001676:	f8d7 30cc 	ldr.w	r3, [r7, #204]	@ 0xcc
 800167a:	4618      	mov	r0, r3
 800167c:	f7fe fed4 	bl	8000428 <__aeabi_f2d>
 8001680:	4680      	mov	r8, r0
 8001682:	4689      	mov	r9, r1
 8001684:	f8b7 60d6 	ldrh.w	r6, [r7, #214]	@ 0xd6
 8001688:	f8b7 30d4 	ldrh.w	r3, [r7, #212]	@ 0xd4
 800168c:	607b      	str	r3, [r7, #4]
 800168e:	f8d7 00e4 	ldr.w	r0, [r7, #228]	@ 0xe4
 8001692:	f7fe fec9 	bl	8000428 <__aeabi_f2d>
 8001696:	4602      	mov	r2, r0
 8001698:	460b      	mov	r3, r1
 800169a:	f107 000c 	add.w	r0, r7, #12
 800169e:	e9cd 2306 	strd	r2, r3, [sp, #24]
 80016a2:	687b      	ldr	r3, [r7, #4]
 80016a4:	9305      	str	r3, [sp, #20]
 80016a6:	9604      	str	r6, [sp, #16]
 80016a8:	e9cd 8902 	strd	r8, r9, [sp, #8]
 80016ac:	e9cd 4500 	strd	r4, r5, [sp]
 80016b0:	4a20      	ldr	r2, [pc, #128]	@ (8001734 <main+0x1f4>)
 80016b2:	21c0      	movs	r1, #192	@ 0xc0
 80016b4:	f003 ffaa 	bl	800560c <sniprintf>
 80016b8:	f8c7 00e0 	str.w	r0, [r7, #224]	@ 0xe0
 80016bc:	e018      	b.n	80016f0 <main+0x1b0>
          "{\"temp_c\":%.1f,\"rh_pct\":%.1f,"
          "\"cds_raw\":%u,"
          "\"soil_raw\":%u,\"soil_pct\":%.1f}\n",
          tC, RH, cds_raw, soil_raw, soil_pct);
      } else {
        n = snprintf(out, sizeof(out),
 80016be:	f8b7 50d6 	ldrh.w	r5, [r7, #214]	@ 0xd6
 80016c2:	f8b7 40d4 	ldrh.w	r4, [r7, #212]	@ 0xd4
 80016c6:	f8d7 00e4 	ldr.w	r0, [r7, #228]	@ 0xe4
 80016ca:	f7fe fead 	bl	8000428 <__aeabi_f2d>
 80016ce:	4602      	mov	r2, r0
 80016d0:	460b      	mov	r3, r1
 80016d2:	f107 000c 	add.w	r0, r7, #12
 80016d6:	f8d7 10d8 	ldr.w	r1, [r7, #216]	@ 0xd8
 80016da:	9104      	str	r1, [sp, #16]
 80016dc:	e9cd 2302 	strd	r2, r3, [sp, #8]
 80016e0:	9400      	str	r4, [sp, #0]
 80016e2:	462b      	mov	r3, r5
 80016e4:	4a14      	ldr	r2, [pc, #80]	@ (8001738 <main+0x1f8>)
 80016e6:	21c0      	movs	r1, #192	@ 0xc0
 80016e8:	f003 ff90 	bl	800560c <sniprintf>
 80016ec:	f8c7 00e0 	str.w	r0, [r7, #224]	@ 0xe0
          "{\"temp_c\":-1,\"rh_pct\":-1,"
          "\"cds_raw\":%u,"
          "\"soil_raw\":%u,\"soil_pct\":%.1f,\"err\":%d}\n",
          cds_raw, soil_raw, soil_pct, r);
      }
      HAL_UART_Transmit(&huart1, (uint8_t*)out, n, HAL_MAX_DELAY); //  ESP32
 80016f0:	f8d7 30e0 	ldr.w	r3, [r7, #224]	@ 0xe0
 80016f4:	b29a      	uxth	r2, r3
 80016f6:	f107 010c 	add.w	r1, r7, #12
 80016fa:	f04f 33ff 	mov.w	r3, #4294967295
 80016fe:	480f      	ldr	r0, [pc, #60]	@ (800173c <main+0x1fc>)
 8001700:	f002 fc4e 	bl	8003fa0 <HAL_UART_Transmit>
      HAL_UART_Transmit(&huart2, (uint8_t*)out, n, HAL_MAX_DELAY); // PC 
 8001704:	f8d7 30e0 	ldr.w	r3, [r7, #224]	@ 0xe0
 8001708:	b29a      	uxth	r2, r3
 800170a:	f107 010c 	add.w	r1, r7, #12
 800170e:	f04f 33ff 	mov.w	r3, #4294967295
 8001712:	4804      	ldr	r0, [pc, #16]	@ (8001724 <main+0x1e4>)
 8001714:	f002 fc44 	bl	8003fa0 <HAL_UART_Transmit>
  {
 8001718:	e745      	b.n	80015a6 <main+0x66>
 800171a:	bf00      	nop
 800171c:	200001f0 	.word	0x200001f0
 8001720:	080078dc 	.word	0x080078dc
 8001724:	20000298 	.word	0x20000298
 8001728:	20000368 	.word	0x20000368
 800172c:	457ff000 	.word	0x457ff000
 8001730:	42c80000 	.word	0x42c80000
 8001734:	080078f8 	.word	0x080078f8
 8001738:	08007944 	.word	0x08007944
 800173c:	20000250 	.word	0x20000250

08001740 <SystemClock_Config>:
/**
  * @brief System Clock Configuration
  * @retval None
  */
void SystemClock_Config(void)
{
 8001740:	b580      	push	{r7, lr}
 8001742:	b094      	sub	sp, #80	@ 0x50
 8001744:	af00      	add	r7, sp, #0
  RCC_OscInitTypeDef RCC_OscInitStruct = {0};
 8001746:	f107 0328 	add.w	r3, r7, #40	@ 0x28
 800174a:	2228      	movs	r2, #40	@ 0x28
 800174c:	2100      	movs	r1, #0
 800174e:	4618      	mov	r0, r3
 8001750:	f003 ffd5 	bl	80056fe <memset>
  RCC_ClkInitTypeDef RCC_ClkInitStruct = {0};
 8001754:	f107 0314 	add.w	r3, r7, #20
 8001758:	2200      	movs	r2, #0
 800175a:	601a      	str	r2, [r3, #0]
 800175c:	605a      	str	r2, [r3, #4]
 800175e:	609a      	str	r2, [r3, #8]
 8001760:	60da      	str	r2, [r3, #12]
 8001762:	611a      	str	r2, [r3, #16]
  RCC_PeriphCLKInitTypeDef PeriphClkInit = {0};
 8001764:	1d3b      	adds	r3, r7, #4
 8001766:	2200      	movs	r2, #0
 8001768:	601a      	str	r2, [r3, #0]
 800176a:	605a      	str	r2, [r3, #4]
 800176c:	609a      	str	r2, [r3, #8]
 800176e:	60da      	str	r2, [r3, #12]

  RCC_OscInitStruct.OscillatorType = RCC_OSCILLATORTYPE_HSE;
 8001770:	2301      	movs	r3, #1
 8001772:	62bb      	str	r3, [r7, #40]	@ 0x28
  RCC_OscInitStruct.HSEState = RCC_HSE_BYPASS;
 8001774:	f44f 23a0 	mov.w	r3, #327680	@ 0x50000
 8001778:	62fb      	str	r3, [r7, #44]	@ 0x2c
  RCC_OscInitStruct.HSEPredivValue = RCC_HSE_PREDIV_DIV1;
 800177a:	2300      	movs	r3, #0
 800177c:	633b      	str	r3, [r7, #48]	@ 0x30
  RCC_OscInitStruct.HSIState = RCC_HSI_ON;
 800177e:	2301      	movs	r3, #1
 8001780:	63bb      	str	r3, [r7, #56]	@ 0x38
  RCC_OscInitStruct.PLL.PLLState = RCC_PLL_ON;
 8001782:	2302      	movs	r3, #2
 8001784:	647b      	str	r3, [r7, #68]	@ 0x44
  RCC_OscInitStruct.PLL.PLLSource = RCC_PLLSOURCE_HSE;
 8001786:	f44f 3380 	mov.w	r3, #65536	@ 0x10000
 800178a:	64bb      	str	r3, [r7, #72]	@ 0x48
  RCC_OscInitStruct.PLL.PLLMUL = RCC_PLL_MUL9;
 800178c:	f44f 13e0 	mov.w	r3, #1835008	@ 0x1c0000
 8001790:	64fb      	str	r3, [r7, #76]	@ 0x4c
  if (HAL_RCC_OscConfig(&RCC_OscInitStruct) != HAL_OK) { Error_Handler(); }
 8001792:	f107 0328 	add.w	r3, r7, #40	@ 0x28
 8001796:	4618      	mov	r0, r3
 8001798:	f001 fe36 	bl	8003408 <HAL_RCC_OscConfig>
 800179c:	4603      	mov	r3, r0
 800179e:	2b00      	cmp	r3, #0
 80017a0:	d001      	beq.n	80017a6 <SystemClock_Config+0x66>
 80017a2:	f000 f98b 	bl	8001abc <Error_Handler>

  RCC_ClkInitStruct.ClockType = RCC_CLOCKTYPE_HCLK|RCC_CLOCKTYPE_SYSCLK
 80017a6:	230f      	movs	r3, #15
 80017a8:	617b      	str	r3, [r7, #20]
                              |RCC_CLOCKTYPE_PCLK1|RCC_CLOCKTYPE_PCLK2;
  RCC_ClkInitStruct.SYSCLKSource = RCC_SYSCLKSOURCE_PLLCLK;
 80017aa:	2302      	movs	r3, #2
 80017ac:	61bb      	str	r3, [r7, #24]
  RCC_ClkInitStruct.AHBCLKDivider = RCC_SYSCLK_DIV1;
 80017ae:	2300      	movs	r3, #0
 80017b0:	61fb      	str	r3, [r7, #28]
  RCC_ClkInitStruct.APB1CLKDivider = RCC_HCLK_DIV2;
 80017b2:	f44f 6380 	mov.w	r3, #1024	@ 0x400
 80017b6:	623b      	str	r3, [r7, #32]
  RCC_ClkInitStruct.APB2CLKDivider = RCC_HCLK_DIV1;
 80017b8:	2300      	movs	r3, #0
 80017ba:	627b      	str	r3, [r7, #36]	@ 0x24
  if (HAL_RCC_ClockConfig(&RCC_ClkInitStruct, FLASH_LATENCY_2) != HAL_OK) { Error_Handler(); }
 80017bc:	f107 0314 	add.w	r3, r7, #20
 80017c0:	2102      	movs	r1, #2
 80017c2:	4618      	mov	r0, r3
 80017c4:	f002 f8a2 	bl	800390c <HAL_RCC_ClockConfig>
 80017c8:	4603      	mov	r3, r0
 80017ca:	2b00      	cmp	r3, #0
 80017cc:	d001      	beq.n	80017d2 <SystemClock_Config+0x92>
 80017ce:	f000 f975 	bl	8001abc <Error_Handler>

  PeriphClkInit.PeriphClockSelection = RCC_PERIPHCLK_ADC;
 80017d2:	2302      	movs	r3, #2
 80017d4:	607b      	str	r3, [r7, #4]
  PeriphClkInit.AdcClockSelection = RCC_ADCPCLK2_DIV2;
 80017d6:	2300      	movs	r3, #0
 80017d8:	60fb      	str	r3, [r7, #12]
  if (HAL_RCCEx_PeriphCLKConfig(&PeriphClkInit) != HAL_OK) { Error_Handler(); }
 80017da:	1d3b      	adds	r3, r7, #4
 80017dc:	4618      	mov	r0, r3
 80017de:	f002 fa23 	bl	8003c28 <HAL_RCCEx_PeriphCLKConfig>
 80017e2:	4603      	mov	r3, r0
 80017e4:	2b00      	cmp	r3, #0
 80017e6:	d001      	beq.n	80017ec <SystemClock_Config+0xac>
 80017e8:	f000 f968 	bl	8001abc <Error_Handler>
}
 80017ec:	bf00      	nop
 80017ee:	3750      	adds	r7, #80	@ 0x50
 80017f0:	46bd      	mov	sp, r7
 80017f2:	bd80      	pop	{r7, pc}

080017f4 <MX_ADC1_Init>:
  * @brief ADC1 Initialization Function
  * @param None
  * @retval None
  */
static void MX_ADC1_Init(void)
{
 80017f4:	b580      	push	{r7, lr}
 80017f6:	b084      	sub	sp, #16
 80017f8:	af00      	add	r7, sp, #0
  ADC_ChannelConfTypeDef sConfig = {0};
 80017fa:	1d3b      	adds	r3, r7, #4
 80017fc:	2200      	movs	r2, #0
 80017fe:	601a      	str	r2, [r3, #0]
 8001800:	605a      	str	r2, [r3, #4]
 8001802:	609a      	str	r2, [r3, #8]

  hadc1.Instance = ADC1;
 8001804:	4b18      	ldr	r3, [pc, #96]	@ (8001868 <MX_ADC1_Init+0x74>)
 8001806:	4a19      	ldr	r2, [pc, #100]	@ (800186c <MX_ADC1_Init+0x78>)
 8001808:	601a      	str	r2, [r3, #0]
  hadc1.Init.ScanConvMode = ADC_SCAN_DISABLE;
 800180a:	4b17      	ldr	r3, [pc, #92]	@ (8001868 <MX_ADC1_Init+0x74>)
 800180c:	2200      	movs	r2, #0
 800180e:	609a      	str	r2, [r3, #8]
  hadc1.Init.ContinuousConvMode = DISABLE;
 8001810:	4b15      	ldr	r3, [pc, #84]	@ (8001868 <MX_ADC1_Init+0x74>)
 8001812:	2200      	movs	r2, #0
 8001814:	731a      	strb	r2, [r3, #12]
  hadc1.Init.DiscontinuousConvMode = DISABLE;
 8001816:	4b14      	ldr	r3, [pc, #80]	@ (8001868 <MX_ADC1_Init+0x74>)
 8001818:	2200      	movs	r2, #0
 800181a:	751a      	strb	r2, [r3, #20]
  hadc1.Init.ExternalTrigConv = ADC_SOFTWARE_START;
 800181c:	4b12      	ldr	r3, [pc, #72]	@ (8001868 <MX_ADC1_Init+0x74>)
 800181e:	f44f 2260 	mov.w	r2, #917504	@ 0xe0000
 8001822:	61da      	str	r2, [r3, #28]
  hadc1.Init.DataAlign = ADC_DATAALIGN_RIGHT;
 8001824:	4b10      	ldr	r3, [pc, #64]	@ (8001868 <MX_ADC1_Init+0x74>)
 8001826:	2200      	movs	r2, #0
 8001828:	605a      	str	r2, [r3, #4]
  hadc1.Init.NbrOfConversion = 1;
 800182a:	4b0f      	ldr	r3, [pc, #60]	@ (8001868 <MX_ADC1_Init+0x74>)
 800182c:	2201      	movs	r2, #1
 800182e:	611a      	str	r2, [r3, #16]
  if (HAL_ADC_Init(&hadc1) != HAL_OK) { Error_Handler(); }
 8001830:	480d      	ldr	r0, [pc, #52]	@ (8001868 <MX_ADC1_Init+0x74>)
 8001832:	f000 fc71 	bl	8002118 <HAL_ADC_Init>
 8001836:	4603      	mov	r3, r0
 8001838:	2b00      	cmp	r3, #0
 800183a:	d001      	beq.n	8001840 <MX_ADC1_Init+0x4c>
 800183c:	f000 f93e 	bl	8001abc <Error_Handler>

  /*       /  */
  sConfig.Channel = ADC_CHANNEL_0;
 8001840:	2300      	movs	r3, #0
 8001842:	607b      	str	r3, [r7, #4]
  sConfig.Rank = ADC_REGULAR_RANK_1;
 8001844:	2301      	movs	r3, #1
 8001846:	60bb      	str	r3, [r7, #8]
  sConfig.SamplingTime = ADC_SAMPLETIME_1CYCLE_5;
 8001848:	2300      	movs	r3, #0
 800184a:	60fb      	str	r3, [r7, #12]
  if (HAL_ADC_ConfigChannel(&hadc1, &sConfig) != HAL_OK) { Error_Handler(); }
 800184c:	1d3b      	adds	r3, r7, #4
 800184e:	4619      	mov	r1, r3
 8001850:	4805      	ldr	r0, [pc, #20]	@ (8001868 <MX_ADC1_Init+0x74>)
 8001852:	f000 fff7 	bl	8002844 <HAL_ADC_ConfigChannel>
 8001856:	4603      	mov	r3, r0
 8001858:	2b00      	cmp	r3, #0
 800185a:	d001      	beq.n	8001860 <MX_ADC1_Init+0x6c>
 800185c:	f000 f92e 	bl	8001abc <Error_Handler>
}
 8001860:	bf00      	nop
 8001862:	3710      	adds	r7, #16
 8001864:	46bd      	mov	sp, r7
 8001866:	bd80      	pop	{r7, pc}
 8001868:	200001f0 	.word	0x200001f0
 800186c:	40012400 	.word	0x40012400

08001870 <MX_ADC2_Init>:
  * @brief ADC2 Initialization Function
  * @param None
  * @retval None
  */
static void MX_ADC2_Init(void)
{
 8001870:	b580      	push	{r7, lr}
 8001872:	b084      	sub	sp, #16
 8001874:	af00      	add	r7, sp, #0
  ADC_ChannelConfTypeDef sConfig = {0};
 8001876:	1d3b      	adds	r3, r7, #4
 8001878:	2200      	movs	r2, #0
 800187a:	601a      	str	r2, [r3, #0]
 800187c:	605a      	str	r2, [r3, #4]
 800187e:	609a      	str	r2, [r3, #8]

  hadc2.Instance = ADC2;
 8001880:	4b18      	ldr	r3, [pc, #96]	@ (80018e4 <MX_ADC2_Init+0x74>)
 8001882:	4a19      	ldr	r2, [pc, #100]	@ (80018e8 <MX_ADC2_Init+0x78>)
 8001884:	601a      	str	r2, [r3, #0]
  hadc2.Init.ScanConvMode = ADC_SCAN_DISABLE;
 8001886:	4b17      	ldr	r3, [pc, #92]	@ (80018e4 <MX_ADC2_Init+0x74>)
 8001888:	2200      	movs	r2, #0
 800188a:	609a      	str	r2, [r3, #8]
  hadc2.Init.ContinuousConvMode = DISABLE;
 800188c:	4b15      	ldr	r3, [pc, #84]	@ (80018e4 <MX_ADC2_Init+0x74>)
 800188e:	2200      	movs	r2, #0
 8001890:	731a      	strb	r2, [r3, #12]
  hadc2.Init.DiscontinuousConvMode = DISABLE;
 8001892:	4b14      	ldr	r3, [pc, #80]	@ (80018e4 <MX_ADC2_Init+0x74>)
 8001894:	2200      	movs	r2, #0
 8001896:	751a      	strb	r2, [r3, #20]
  hadc2.Init.ExternalTrigConv = ADC_SOFTWARE_START;
 8001898:	4b12      	ldr	r3, [pc, #72]	@ (80018e4 <MX_ADC2_Init+0x74>)
 800189a:	f44f 2260 	mov.w	r2, #917504	@ 0xe0000
 800189e:	61da      	str	r2, [r3, #28]
  hadc2.Init.DataAlign = ADC_DATAALIGN_RIGHT;
 80018a0:	4b10      	ldr	r3, [pc, #64]	@ (80018e4 <MX_ADC2_Init+0x74>)
 80018a2:	2200      	movs	r2, #0
 80018a4:	605a      	str	r2, [r3, #4]
  hadc2.Init.NbrOfConversion = 1;
 80018a6:	4b0f      	ldr	r3, [pc, #60]	@ (80018e4 <MX_ADC2_Init+0x74>)
 80018a8:	2201      	movs	r2, #1
 80018aa:	611a      	str	r2, [r3, #16]
  if (HAL_ADC_Init(&hadc2) != HAL_OK) { Error_Handler(); }
 80018ac:	480d      	ldr	r0, [pc, #52]	@ (80018e4 <MX_ADC2_Init+0x74>)
 80018ae:	f000 fc33 	bl	8002118 <HAL_ADC_Init>
 80018b2:	4603      	mov	r3, r0
 80018b4:	2b00      	cmp	r3, #0
 80018b6:	d001      	beq.n	80018bc <MX_ADC2_Init+0x4c>
 80018b8:	f000 f900 	bl	8001abc <Error_Handler>

  sConfig.Channel = ADC_CHANNEL_0;
 80018bc:	2300      	movs	r3, #0
 80018be:	607b      	str	r3, [r7, #4]
  sConfig.Rank = ADC_REGULAR_RANK_1;
 80018c0:	2301      	movs	r3, #1
 80018c2:	60bb      	str	r3, [r7, #8]
  sConfig.SamplingTime = ADC_SAMPLETIME_1CYCLE_5;
 80018c4:	2300      	movs	r3, #0
 80018c6:	60fb      	str	r3, [r7, #12]
  if (HAL_ADC_ConfigChannel(&hadc2, &sConfig) != HAL_OK) { Error_Handler(); }
 80018c8:	1d3b      	adds	r3, r7, #4
 80018ca:	4619      	mov	r1, r3
 80018cc:	4805      	ldr	r0, [pc, #20]	@ (80018e4 <MX_ADC2_Init+0x74>)
 80018ce:	f000 ffb9 	bl	8002844 <HAL_ADC_ConfigChannel>
 80018d2:	4603      	mov	r3, r0
 80018d4:	2b00      	cmp	r3, #0
 80018d6:	d001      	beq.n	80018dc <MX_ADC2_Init+0x6c>
 80018d8:	f000 f8f0 	bl	8001abc <Error_Handler>
}
 80018dc:	bf00      	nop
 80018de:	3710      	adds	r7, #16
 80018e0:	46bd      	mov	sp, r7
 80018e2:	bd80      	pop	{r7, pc}
 80018e4:	20000220 	.word	0x20000220
 80018e8:	40012800 	.word	0x40012800

080018ec <MX_USART1_UART_Init>:
  * @brief USART1 Initialization Function
  * @param None
  * @retval None
  */
static void MX_USART1_UART_Init(void)
{
 80018ec:	b580      	push	{r7, lr}
 80018ee:	af00      	add	r7, sp, #0
  huart1.Instance = USART1;
 80018f0:	4b11      	ldr	r3, [pc, #68]	@ (8001938 <MX_USART1_UART_Init+0x4c>)
 80018f2:	4a12      	ldr	r2, [pc, #72]	@ (800193c <MX_USART1_UART_Init+0x50>)
 80018f4:	601a      	str	r2, [r3, #0]
  huart1.Init.BaudRate = 115200;
 80018f6:	4b10      	ldr	r3, [pc, #64]	@ (8001938 <MX_USART1_UART_Init+0x4c>)
 80018f8:	f44f 32e1 	mov.w	r2, #115200	@ 0x1c200
 80018fc:	605a      	str	r2, [r3, #4]
  huart1.Init.WordLength = UART_WORDLENGTH_8B;
 80018fe:	4b0e      	ldr	r3, [pc, #56]	@ (8001938 <MX_USART1_UART_Init+0x4c>)
 8001900:	2200      	movs	r2, #0
 8001902:	609a      	str	r2, [r3, #8]
  huart1.Init.StopBits = UART_STOPBITS_1;
 8001904:	4b0c      	ldr	r3, [pc, #48]	@ (8001938 <MX_USART1_UART_Init+0x4c>)
 8001906:	2200      	movs	r2, #0
 8001908:	60da      	str	r2, [r3, #12]
  huart1.Init.Parity = UART_PARITY_NONE;
 800190a:	4b0b      	ldr	r3, [pc, #44]	@ (8001938 <MX_USART1_UART_Init+0x4c>)
 800190c:	2200      	movs	r2, #0
 800190e:	611a      	str	r2, [r3, #16]
  huart1.Init.Mode = UART_MODE_TX_RX;
 8001910:	4b09      	ldr	r3, [pc, #36]	@ (8001938 <MX_USART1_UART_Init+0x4c>)
 8001912:	220c      	movs	r2, #12
 8001914:	615a      	str	r2, [r3, #20]
  huart1.Init.HwFlowCtl = UART_HWCONTROL_NONE;
 8001916:	4b08      	ldr	r3, [pc, #32]	@ (8001938 <MX_USART1_UART_Init+0x4c>)
 8001918:	2200      	movs	r2, #0
 800191a:	619a      	str	r2, [r3, #24]
  huart1.Init.OverSampling = UART_OVERSAMPLING_16;
 800191c:	4b06      	ldr	r3, [pc, #24]	@ (8001938 <MX_USART1_UART_Init+0x4c>)
 800191e:	2200      	movs	r2, #0
 8001920:	61da      	str	r2, [r3, #28]
  if (HAL_UART_Init(&huart1) != HAL_OK) { Error_Handler(); }
 8001922:	4805      	ldr	r0, [pc, #20]	@ (8001938 <MX_USART1_UART_Init+0x4c>)
 8001924:	f002 faec 	bl	8003f00 <HAL_UART_Init>
 8001928:	4603      	mov	r3, r0
 800192a:	2b00      	cmp	r3, #0
 800192c:	d001      	beq.n	8001932 <MX_USART1_UART_Init+0x46>
 800192e:	f000 f8c5 	bl	8001abc <Error_Handler>
}
 8001932:	bf00      	nop
 8001934:	bd80      	pop	{r7, pc}
 8001936:	bf00      	nop
 8001938:	20000250 	.word	0x20000250
 800193c:	40013800 	.word	0x40013800

08001940 <MX_USART2_UART_Init>:
  * @brief USART2 Initialization Function
  * @param None
  * @retval None
  */
static void MX_USART2_UART_Init(void)
{
 8001940:	b580      	push	{r7, lr}
 8001942:	af00      	add	r7, sp, #0
  huart2.Instance = USART2;
 8001944:	4b11      	ldr	r3, [pc, #68]	@ (800198c <MX_USART2_UART_Init+0x4c>)
 8001946:	4a12      	ldr	r2, [pc, #72]	@ (8001990 <MX_USART2_UART_Init+0x50>)
 8001948:	601a      	str	r2, [r3, #0]
  huart2.Init.BaudRate = 115200;
 800194a:	4b10      	ldr	r3, [pc, #64]	@ (800198c <MX_USART2_UART_Init+0x4c>)
 800194c:	f44f 32e1 	mov.w	r2, #115200	@ 0x1c200
 8001950:	605a      	str	r2, [r3, #4]
  huart2.Init.WordLength = UART_WORDLENGTH_8B;
 8001952:	4b0e      	ldr	r3, [pc, #56]	@ (800198c <MX_USART2_UART_Init+0x4c>)
 8001954:	2200      	movs	r2, #0
 8001956:	609a      	str	r2, [r3, #8]
  huart2.Init.StopBits = UART_STOPBITS_1;
 8001958:	4b0c      	ldr	r3, [pc, #48]	@ (800198c <MX_USART2_UART_Init+0x4c>)
 800195a:	2200      	movs	r2, #0
 800195c:	60da      	str	r2, [r3, #12]
  huart2.Init.Parity = UART_PARITY_NONE;
 800195e:	4b0b      	ldr	r3, [pc, #44]	@ (800198c <MX_USART2_UART_Init+0x4c>)
 8001960:	2200      	movs	r2, #0
 8001962:	611a      	str	r2, [r3, #16]
  huart2.Init.Mode = UART_MODE_TX_RX;
 8001964:	4b09      	ldr	r3, [pc, #36]	@ (800198c <MX_USART2_UART_Init+0x4c>)
 8001966:	220c      	movs	r2, #12
 8001968:	615a      	str	r2, [r3, #20]
  huart2.Init.HwFlowCtl = UART_HWCONTROL_NONE;
 800196a:	4b08      	ldr	r3, [pc, #32]	@ (800198c <MX_USART2_UART_Init+0x4c>)
 800196c:	2200      	movs	r2, #0
 800196e:	619a      	str	r2, [r3, #24]
  huart2.Init.OverSampling = UART_OVERSAMPLING_16;
 8001970:	4b06      	ldr	r3, [pc, #24]	@ (800198c <MX_USART2_UART_Init+0x4c>)
 8001972:	2200      	movs	r2, #0
 8001974:	61da      	str	r2, [r3, #28]
  if (HAL_UART_Init(&huart2) != HAL_OK) { Error_Handler(); }
 8001976:	4805      	ldr	r0, [pc, #20]	@ (800198c <MX_USART2_UART_Init+0x4c>)
 8001978:	f002 fac2 	bl	8003f00 <HAL_UART_Init>
 800197c:	4603      	mov	r3, r0
 800197e:	2b00      	cmp	r3, #0
 8001980:	d001      	beq.n	8001986 <MX_USART2_UART_Init+0x46>
 8001982:	f000 f89b 	bl	8001abc <Error_Handler>
}
 8001986:	bf00      	nop
 8001988:	bd80      	pop	{r7, pc}
 800198a:	bf00      	nop
 800198c:	20000298 	.word	0x20000298
 8001990:	40004400 	.word	0x40004400

08001994 <MX_GPIO_Init>:
  * @brief GPIO Initialization Function
  * @param None
  * @retval None
  */
static void MX_GPIO_Init(void)
{
 8001994:	b580      	push	{r7, lr}
 8001996:	b088      	sub	sp, #32
 8001998:	af00      	add	r7, sp, #0
  GPIO_InitTypeDef GPIO_InitStruct = {0};
 800199a:	f107 0310 	add.w	r3, r7, #16
 800199e:	2200      	movs	r2, #0
 80019a0:	601a      	str	r2, [r3, #0]
 80019a2:	605a      	str	r2, [r3, #4]
 80019a4:	609a      	str	r2, [r3, #8]
 80019a6:	60da      	str	r2, [r3, #12]

  /* GPIO Ports Clock Enable */
  __HAL_RCC_GPIOC_CLK_ENABLE();
 80019a8:	4b3f      	ldr	r3, [pc, #252]	@ (8001aa8 <MX_GPIO_Init+0x114>)
 80019aa:	699b      	ldr	r3, [r3, #24]
 80019ac:	4a3e      	ldr	r2, [pc, #248]	@ (8001aa8 <MX_GPIO_Init+0x114>)
 80019ae:	f043 0310 	orr.w	r3, r3, #16
 80019b2:	6193      	str	r3, [r2, #24]
 80019b4:	4b3c      	ldr	r3, [pc, #240]	@ (8001aa8 <MX_GPIO_Init+0x114>)
 80019b6:	699b      	ldr	r3, [r3, #24]
 80019b8:	f003 0310 	and.w	r3, r3, #16
 80019bc:	60fb      	str	r3, [r7, #12]
 80019be:	68fb      	ldr	r3, [r7, #12]
  __HAL_RCC_GPIOD_CLK_ENABLE();
 80019c0:	4b39      	ldr	r3, [pc, #228]	@ (8001aa8 <MX_GPIO_Init+0x114>)
 80019c2:	699b      	ldr	r3, [r3, #24]
 80019c4:	4a38      	ldr	r2, [pc, #224]	@ (8001aa8 <MX_GPIO_Init+0x114>)
 80019c6:	f043 0320 	orr.w	r3, r3, #32
 80019ca:	6193      	str	r3, [r2, #24]
 80019cc:	4b36      	ldr	r3, [pc, #216]	@ (8001aa8 <MX_GPIO_Init+0x114>)
 80019ce:	699b      	ldr	r3, [r3, #24]
 80019d0:	f003 0320 	and.w	r3, r3, #32
 80019d4:	60bb      	str	r3, [r7, #8]
 80019d6:	68bb      	ldr	r3, [r7, #8]
  __HAL_RCC_GPIOA_CLK_ENABLE();
 80019d8:	4b33      	ldr	r3, [pc, #204]	@ (8001aa8 <MX_GPIO_Init+0x114>)
 80019da:	699b      	ldr	r3, [r3, #24]
 80019dc:	4a32      	ldr	r2, [pc, #200]	@ (8001aa8 <MX_GPIO_Init+0x114>)
 80019de:	f043 0304 	orr.w	r3, r3, #4
 80019e2:	6193      	str	r3, [r2, #24]
 80019e4:	4b30      	ldr	r3, [pc, #192]	@ (8001aa8 <MX_GPIO_Init+0x114>)
 80019e6:	699b      	ldr	r3, [r3, #24]
 80019e8:	f003 0304 	and.w	r3, r3, #4
 80019ec:	607b      	str	r3, [r7, #4]
 80019ee:	687b      	ldr	r3, [r7, #4]
  __HAL_RCC_GPIOB_CLK_ENABLE();
 80019f0:	4b2d      	ldr	r3, [pc, #180]	@ (8001aa8 <MX_GPIO_Init+0x114>)
 80019f2:	699b      	ldr	r3, [r3, #24]
 80019f4:	4a2c      	ldr	r2, [pc, #176]	@ (8001aa8 <MX_GPIO_Init+0x114>)
 80019f6:	f043 0308 	orr.w	r3, r3, #8
 80019fa:	6193      	str	r3, [r2, #24]
 80019fc:	4b2a      	ldr	r3, [pc, #168]	@ (8001aa8 <MX_GPIO_Init+0x114>)
 80019fe:	699b      	ldr	r3, [r3, #24]
 8001a00:	f003 0308 	and.w	r3, r3, #8
 8001a04:	603b      	str	r3, [r7, #0]
 8001a06:	683b      	ldr	r3, [r7, #0]

  /* LD2  */
  HAL_GPIO_WritePin(LD2_GPIO_Port, LD2_Pin, GPIO_PIN_RESET);
 8001a08:	2200      	movs	r2, #0
 8001a0a:	2120      	movs	r1, #32
 8001a0c:	4827      	ldr	r0, [pc, #156]	@ (8001aac <MX_GPIO_Init+0x118>)
 8001a0e:	f001 fcc0 	bl	8003392 <HAL_GPIO_WritePin>

  /* B1  (PC13) */
  GPIO_InitStruct.Pin = B1_Pin;
 8001a12:	f44f 5300 	mov.w	r3, #8192	@ 0x2000
 8001a16:	613b      	str	r3, [r7, #16]
  GPIO_InitStruct.Mode = GPIO_MODE_IT_RISING;
 8001a18:	4b25      	ldr	r3, [pc, #148]	@ (8001ab0 <MX_GPIO_Init+0x11c>)
 8001a1a:	617b      	str	r3, [r7, #20]
  GPIO_InitStruct.Pull = GPIO_NOPULL;
 8001a1c:	2300      	movs	r3, #0
 8001a1e:	61bb      	str	r3, [r7, #24]
  HAL_GPIO_Init(B1_GPIO_Port, &GPIO_InitStruct);
 8001a20:	f107 0310 	add.w	r3, r7, #16
 8001a24:	4619      	mov	r1, r3
 8001a26:	4823      	ldr	r0, [pc, #140]	@ (8001ab4 <MX_GPIO_Init+0x120>)
 8001a28:	f001 fb18 	bl	800305c <HAL_GPIO_Init>

  /* LD2 (PA5) */
  GPIO_InitStruct.Pin = LD2_Pin;
 8001a2c:	2320      	movs	r3, #32
 8001a2e:	613b      	str	r3, [r7, #16]
  GPIO_InitStruct.Mode = GPIO_MODE_OUTPUT_PP;
 8001a30:	2301      	movs	r3, #1
 8001a32:	617b      	str	r3, [r7, #20]
  GPIO_InitStruct.Pull = GPIO_NOPULL;
 8001a34:	2300      	movs	r3, #0
 8001a36:	61bb      	str	r3, [r7, #24]
  GPIO_InitStruct.Speed = GPIO_SPEED_FREQ_LOW;
 8001a38:	2302      	movs	r3, #2
 8001a3a:	61fb      	str	r3, [r7, #28]
  HAL_GPIO_Init(LD2_GPIO_Port, &GPIO_InitStruct);
 8001a3c:	f107 0310 	add.w	r3, r7, #16
 8001a40:	4619      	mov	r1, r3
 8001a42:	481a      	ldr	r0, [pc, #104]	@ (8001aac <MX_GPIO_Init+0x118>)
 8001a44:	f001 fb0a 	bl	800305c <HAL_GPIO_Init>

  /*  PA0 (ADC1_IN0) =   : CDS */
  GPIO_InitStruct.Pin  = GPIO_PIN_0;
 8001a48:	2301      	movs	r3, #1
 8001a4a:	613b      	str	r3, [r7, #16]
  GPIO_InitStruct.Mode = GPIO_MODE_ANALOG;
 8001a4c:	2303      	movs	r3, #3
 8001a4e:	617b      	str	r3, [r7, #20]
  GPIO_InitStruct.Pull = GPIO_NOPULL;
 8001a50:	2300      	movs	r3, #0
 8001a52:	61bb      	str	r3, [r7, #24]
  HAL_GPIO_Init(GPIOA, &GPIO_InitStruct);
 8001a54:	f107 0310 	add.w	r3, r7, #16
 8001a58:	4619      	mov	r1, r3
 8001a5a:	4814      	ldr	r0, [pc, #80]	@ (8001aac <MX_GPIO_Init+0x118>)
 8001a5c:	f001 fafe 	bl	800305c <HAL_GPIO_Init>

  /*  PB0 = DHT11   ( / ) */
  GPIO_InitStruct.Pin  = GPIO_PIN_0;
 8001a60:	2301      	movs	r3, #1
 8001a62:	613b      	str	r3, [r7, #16]
  GPIO_InitStruct.Mode = GPIO_MODE_INPUT;
 8001a64:	2300      	movs	r3, #0
 8001a66:	617b      	str	r3, [r7, #20]
  GPIO_InitStruct.Pull = GPIO_NOPULL;   //   
 8001a68:	2300      	movs	r3, #0
 8001a6a:	61bb      	str	r3, [r7, #24]
  HAL_GPIO_Init(GPIOB, &GPIO_InitStruct);
 8001a6c:	f107 0310 	add.w	r3, r7, #16
 8001a70:	4619      	mov	r1, r3
 8001a72:	4811      	ldr	r0, [pc, #68]	@ (8001ab8 <MX_GPIO_Init+0x124>)
 8001a74:	f001 faf2 	bl	800305c <HAL_GPIO_Init>

  /*  PC1 (ADC1_IN11) =   : Soil Pot */
  GPIO_InitStruct.Pin  = GPIO_PIN_1;
 8001a78:	2302      	movs	r3, #2
 8001a7a:	613b      	str	r3, [r7, #16]
  GPIO_InitStruct.Mode = GPIO_MODE_ANALOG;
 8001a7c:	2303      	movs	r3, #3
 8001a7e:	617b      	str	r3, [r7, #20]
  GPIO_InitStruct.Pull = GPIO_NOPULL;
 8001a80:	2300      	movs	r3, #0
 8001a82:	61bb      	str	r3, [r7, #24]
  HAL_GPIO_Init(GPIOC, &GPIO_InitStruct);
 8001a84:	f107 0310 	add.w	r3, r7, #16
 8001a88:	4619      	mov	r1, r3
 8001a8a:	480a      	ldr	r0, [pc, #40]	@ (8001ab4 <MX_GPIO_Init+0x120>)
 8001a8c:	f001 fae6 	bl	800305c <HAL_GPIO_Init>

  /* EXTI interrupt init*/
  HAL_NVIC_SetPriority(EXTI15_10_IRQn, 0, 0);
 8001a90:	2200      	movs	r2, #0
 8001a92:	2100      	movs	r1, #0
 8001a94:	2028      	movs	r0, #40	@ 0x28
 8001a96:	f001 f9f8 	bl	8002e8a <HAL_NVIC_SetPriority>
  HAL_NVIC_EnableIRQ(EXTI15_10_IRQn);
 8001a9a:	2028      	movs	r0, #40	@ 0x28
 8001a9c:	f001 fa11 	bl	8002ec2 <HAL_NVIC_EnableIRQ>
}
 8001aa0:	bf00      	nop
 8001aa2:	3720      	adds	r7, #32
 8001aa4:	46bd      	mov	sp, r7
 8001aa6:	bd80      	pop	{r7, pc}
 8001aa8:	40021000 	.word	0x40021000
 8001aac:	40010800 	.word	0x40010800
 8001ab0:	10110000 	.word	0x10110000
 8001ab4:	40011000 	.word	0x40011000
 8001ab8:	40010c00 	.word	0x40010c00

08001abc <Error_Handler>:
/**
  * @brief  This function is executed in case of error occurrence.
  * @retval None
  */
void Error_Handler(void)
{
 8001abc:	b480      	push	{r7}
 8001abe:	af00      	add	r7, sp, #0
  \details Disables IRQ interrupts by setting the I-bit in the CPSR.
           Can only be executed in Privileged modes.
 */
__STATIC_FORCEINLINE void __disable_irq(void)
{
  __ASM volatile ("cpsid i" : : : "memory");
 8001ac0:	b672      	cpsid	i
}
 8001ac2:	bf00      	nop
  __disable_irq();
  while (1) { }
 8001ac4:	bf00      	nop
 8001ac6:	e7fd      	b.n	8001ac4 <Error_Handler+0x8>

08001ac8 <HAL_MspInit>:
/* USER CODE END 0 */
/**
  * Initializes the Global MSP.
  */
void HAL_MspInit(void)
{
 8001ac8:	b480      	push	{r7}
 8001aca:	b085      	sub	sp, #20
 8001acc:	af00      	add	r7, sp, #0

  /* USER CODE BEGIN MspInit 0 */

  /* USER CODE END MspInit 0 */

  __HAL_RCC_AFIO_CLK_ENABLE();
 8001ace:	4b15      	ldr	r3, [pc, #84]	@ (8001b24 <HAL_MspInit+0x5c>)
 8001ad0:	699b      	ldr	r3, [r3, #24]
 8001ad2:	4a14      	ldr	r2, [pc, #80]	@ (8001b24 <HAL_MspInit+0x5c>)
 8001ad4:	f043 0301 	orr.w	r3, r3, #1
 8001ad8:	6193      	str	r3, [r2, #24]
 8001ada:	4b12      	ldr	r3, [pc, #72]	@ (8001b24 <HAL_MspInit+0x5c>)
 8001adc:	699b      	ldr	r3, [r3, #24]
 8001ade:	f003 0301 	and.w	r3, r3, #1
 8001ae2:	60bb      	str	r3, [r7, #8]
 8001ae4:	68bb      	ldr	r3, [r7, #8]
  __HAL_RCC_PWR_CLK_ENABLE();
 8001ae6:	4b0f      	ldr	r3, [pc, #60]	@ (8001b24 <HAL_MspInit+0x5c>)
 8001ae8:	69db      	ldr	r3, [r3, #28]
 8001aea:	4a0e      	ldr	r2, [pc, #56]	@ (8001b24 <HAL_MspInit+0x5c>)
 8001aec:	f043 5380 	orr.w	r3, r3, #268435456	@ 0x10000000
 8001af0:	61d3      	str	r3, [r2, #28]
 8001af2:	4b0c      	ldr	r3, [pc, #48]	@ (8001b24 <HAL_MspInit+0x5c>)
 8001af4:	69db      	ldr	r3, [r3, #28]
 8001af6:	f003 5380 	and.w	r3, r3, #268435456	@ 0x10000000
 8001afa:	607b      	str	r3, [r7, #4]
 8001afc:	687b      	ldr	r3, [r7, #4]

  /* System interrupt init*/

  /** NOJTAG: JTAG-DP Disabled and SW-DP Enabled
  */
  __HAL_AFIO_REMAP_SWJ_NOJTAG();
 8001afe:	4b0a      	ldr	r3, [pc, #40]	@ (8001b28 <HAL_MspInit+0x60>)
 8001b00:	685b      	ldr	r3, [r3, #4]
 8001b02:	60fb      	str	r3, [r7, #12]
 8001b04:	68fb      	ldr	r3, [r7, #12]
 8001b06:	f023 63e0 	bic.w	r3, r3, #117440512	@ 0x7000000
 8001b0a:	60fb      	str	r3, [r7, #12]
 8001b0c:	68fb      	ldr	r3, [r7, #12]
 8001b0e:	f043 7300 	orr.w	r3, r3, #33554432	@ 0x2000000
 8001b12:	60fb      	str	r3, [r7, #12]
 8001b14:	4a04      	ldr	r2, [pc, #16]	@ (8001b28 <HAL_MspInit+0x60>)
 8001b16:	68fb      	ldr	r3, [r7, #12]
 8001b18:	6053      	str	r3, [r2, #4]

  /* USER CODE BEGIN MspInit 1 */

  /* USER CODE END MspInit 1 */
}
 8001b1a:	bf00      	nop
 8001b1c:	3714      	adds	r7, #20
 8001b1e:	46bd      	mov	sp, r7
 8001b20:	bc80      	pop	{r7}
 8001b22:	4770      	bx	lr
 8001b24:	40021000 	.word	0x40021000
 8001b28:	40010000 	.word	0x40010000

08001b2c <HAL_ADC_MspInit>:
  * This function configures the hardware resources used in this example
  * @param hadc: ADC handle pointer
  * @retval None
  */
void HAL_ADC_MspInit(ADC_HandleTypeDef* hadc)
{
 8001b2c:	b580      	push	{r7, lr}
 8001b2e:	b08c      	sub	sp, #48	@ 0x30
 8001b30:	af00      	add	r7, sp, #0
 8001b32:	6078      	str	r0, [r7, #4]
  GPIO_InitTypeDef GPIO_InitStruct = {0};
 8001b34:	f107 0320 	add.w	r3, r7, #32
 8001b38:	2200      	movs	r2, #0
 8001b3a:	601a      	str	r2, [r3, #0]
 8001b3c:	605a      	str	r2, [r3, #4]
 8001b3e:	609a      	str	r2, [r3, #8]
 8001b40:	60da      	str	r2, [r3, #12]
  if(hadc->Instance==ADC1)
 8001b42:	687b      	ldr	r3, [r7, #4]
 8001b44:	681b      	ldr	r3, [r3, #0]
 8001b46:	4a46      	ldr	r2, [pc, #280]	@ (8001c60 <HAL_ADC_MspInit+0x134>)
 8001b48:	4293      	cmp	r3, r2
 8001b4a:	d140      	bne.n	8001bce <HAL_ADC_MspInit+0xa2>
  {
    /* USER CODE BEGIN ADC1_MspInit 0 */

    /* USER CODE END ADC1_MspInit 0 */
    /* Peripheral clock enable */
    __HAL_RCC_ADC1_CLK_ENABLE();
 8001b4c:	4b45      	ldr	r3, [pc, #276]	@ (8001c64 <HAL_ADC_MspInit+0x138>)
 8001b4e:	699b      	ldr	r3, [r3, #24]
 8001b50:	4a44      	ldr	r2, [pc, #272]	@ (8001c64 <HAL_ADC_MspInit+0x138>)
 8001b52:	f443 7300 	orr.w	r3, r3, #512	@ 0x200
 8001b56:	6193      	str	r3, [r2, #24]
 8001b58:	4b42      	ldr	r3, [pc, #264]	@ (8001c64 <HAL_ADC_MspInit+0x138>)
 8001b5a:	699b      	ldr	r3, [r3, #24]
 8001b5c:	f403 7300 	and.w	r3, r3, #512	@ 0x200
 8001b60:	61fb      	str	r3, [r7, #28]
 8001b62:	69fb      	ldr	r3, [r7, #28]

    __HAL_RCC_GPIOC_CLK_ENABLE();
 8001b64:	4b3f      	ldr	r3, [pc, #252]	@ (8001c64 <HAL_ADC_MspInit+0x138>)
 8001b66:	699b      	ldr	r3, [r3, #24]
 8001b68:	4a3e      	ldr	r2, [pc, #248]	@ (8001c64 <HAL_ADC_MspInit+0x138>)
 8001b6a:	f043 0310 	orr.w	r3, r3, #16
 8001b6e:	6193      	str	r3, [r2, #24]
 8001b70:	4b3c      	ldr	r3, [pc, #240]	@ (8001c64 <HAL_ADC_MspInit+0x138>)
 8001b72:	699b      	ldr	r3, [r3, #24]
 8001b74:	f003 0310 	and.w	r3, r3, #16
 8001b78:	61bb      	str	r3, [r7, #24]
 8001b7a:	69bb      	ldr	r3, [r7, #24]
    __HAL_RCC_GPIOA_CLK_ENABLE();
 8001b7c:	4b39      	ldr	r3, [pc, #228]	@ (8001c64 <HAL_ADC_MspInit+0x138>)
 8001b7e:	699b      	ldr	r3, [r3, #24]
 8001b80:	4a38      	ldr	r2, [pc, #224]	@ (8001c64 <HAL_ADC_MspInit+0x138>)
 8001b82:	f043 0304 	orr.w	r3, r3, #4
 8001b86:	6193      	str	r3, [r2, #24]
 8001b88:	4b36      	ldr	r3, [pc, #216]	@ (8001c64 <HAL_ADC_MspInit+0x138>)
 8001b8a:	699b      	ldr	r3, [r3, #24]
 8001b8c:	f003 0304 	and.w	r3, r3, #4
 8001b90:	617b      	str	r3, [r7, #20]
 8001b92:	697b      	ldr	r3, [r7, #20]
    /**ADC1 GPIO Configuration
    PC1     ------> ADC1_IN11
    PA0-WKUP     ------> ADC1_IN0
    */
    GPIO_InitStruct.Pin = GPIO_PIN_1;
 8001b94:	2302      	movs	r3, #2
 8001b96:	623b      	str	r3, [r7, #32]
    GPIO_InitStruct.Mode = GPIO_MODE_ANALOG;
 8001b98:	2303      	movs	r3, #3
 8001b9a:	627b      	str	r3, [r7, #36]	@ 0x24
    HAL_GPIO_Init(GPIOC, &GPIO_InitStruct);
 8001b9c:	f107 0320 	add.w	r3, r7, #32
 8001ba0:	4619      	mov	r1, r3
 8001ba2:	4831      	ldr	r0, [pc, #196]	@ (8001c68 <HAL_ADC_MspInit+0x13c>)
 8001ba4:	f001 fa5a 	bl	800305c <HAL_GPIO_Init>

    GPIO_InitStruct.Pin = GPIO_PIN_0;
 8001ba8:	2301      	movs	r3, #1
 8001baa:	623b      	str	r3, [r7, #32]
    GPIO_InitStruct.Mode = GPIO_MODE_ANALOG;
 8001bac:	2303      	movs	r3, #3
 8001bae:	627b      	str	r3, [r7, #36]	@ 0x24
    HAL_GPIO_Init(GPIOA, &GPIO_InitStruct);
 8001bb0:	f107 0320 	add.w	r3, r7, #32
 8001bb4:	4619      	mov	r1, r3
 8001bb6:	482d      	ldr	r0, [pc, #180]	@ (8001c6c <HAL_ADC_MspInit+0x140>)
 8001bb8:	f001 fa50 	bl	800305c <HAL_GPIO_Init>

    /* ADC1 interrupt Init */
    HAL_NVIC_SetPriority(ADC1_2_IRQn, 0, 0);
 8001bbc:	2200      	movs	r2, #0
 8001bbe:	2100      	movs	r1, #0
 8001bc0:	2012      	movs	r0, #18
 8001bc2:	f001 f962 	bl	8002e8a <HAL_NVIC_SetPriority>
    HAL_NVIC_EnableIRQ(ADC1_2_IRQn);
 8001bc6:	2012      	movs	r0, #18
 8001bc8:	f001 f97b 	bl	8002ec2 <HAL_NVIC_EnableIRQ>
    /* USER CODE BEGIN ADC2_MspInit 1 */

    /* USER CODE END ADC2_MspInit 1 */
  }

}
 8001bcc:	e044      	b.n	8001c58 <HAL_ADC_MspInit+0x12c>
  else if(hadc->Instance==ADC2)
 8001bce:	687b      	ldr	r3, [r7, #4]
 8001bd0:	681b      	ldr	r3, [r3, #0]
 8001bd2:	4a27      	ldr	r2, [pc, #156]	@ (8001c70 <HAL_ADC_MspInit+0x144>)
 8001bd4:	4293      	cmp	r3, r2
 8001bd6:	d13f      	bne.n	8001c58 <HAL_ADC_MspInit+0x12c>
    __HAL_RCC_ADC2_CLK_ENABLE();
 8001bd8:	4b22      	ldr	r3, [pc, #136]	@ (8001c64 <HAL_ADC_MspInit+0x138>)
 8001bda:	699b      	ldr	r3, [r3, #24]
 8001bdc:	4a21      	ldr	r2, [pc, #132]	@ (8001c64 <HAL_ADC_MspInit+0x138>)
 8001bde:	f443 6380 	orr.w	r3, r3, #1024	@ 0x400
 8001be2:	6193      	str	r3, [r2, #24]
 8001be4:	4b1f      	ldr	r3, [pc, #124]	@ (8001c64 <HAL_ADC_MspInit+0x138>)
 8001be6:	699b      	ldr	r3, [r3, #24]
 8001be8:	f403 6380 	and.w	r3, r3, #1024	@ 0x400
 8001bec:	613b      	str	r3, [r7, #16]
 8001bee:	693b      	ldr	r3, [r7, #16]
    __HAL_RCC_GPIOC_CLK_ENABLE();
 8001bf0:	4b1c      	ldr	r3, [pc, #112]	@ (8001c64 <HAL_ADC_MspInit+0x138>)
 8001bf2:	699b      	ldr	r3, [r3, #24]
 8001bf4:	4a1b      	ldr	r2, [pc, #108]	@ (8001c64 <HAL_ADC_MspInit+0x138>)
 8001bf6:	f043 0310 	orr.w	r3, r3, #16
 8001bfa:	6193      	str	r3, [r2, #24]
 8001bfc:	4b19      	ldr	r3, [pc, #100]	@ (8001c64 <HAL_ADC_MspInit+0x138>)
 8001bfe:	699b      	ldr	r3, [r3, #24]
 8001c00:	f003 0310 	and.w	r3, r3, #16
 8001c04:	60fb      	str	r3, [r7, #12]
 8001c06:	68fb      	ldr	r3, [r7, #12]
    __HAL_RCC_GPIOA_CLK_ENABLE();
 8001c08:	4b16      	ldr	r3, [pc, #88]	@ (8001c64 <HAL_ADC_MspInit+0x138>)
 8001c0a:	699b      	ldr	r3, [r3, #24]
 8001c0c:	4a15      	ldr	r2, [pc, #84]	@ (8001c64 <HAL_ADC_MspInit+0x138>)
 8001c0e:	f043 0304 	orr.w	r3, r3, #4
 8001c12:	6193      	str	r3, [r2, #24]
 8001c14:	4b13      	ldr	r3, [pc, #76]	@ (8001c64 <HAL_ADC_MspInit+0x138>)
 8001c16:	699b      	ldr	r3, [r3, #24]
 8001c18:	f003 0304 	and.w	r3, r3, #4
 8001c1c:	60bb      	str	r3, [r7, #8]
 8001c1e:	68bb      	ldr	r3, [r7, #8]
    GPIO_InitStruct.Pin = GPIO_PIN_1;
 8001c20:	2302      	movs	r3, #2
 8001c22:	623b      	str	r3, [r7, #32]
    GPIO_InitStruct.Mode = GPIO_MODE_ANALOG;
 8001c24:	2303      	movs	r3, #3
 8001c26:	627b      	str	r3, [r7, #36]	@ 0x24
    HAL_GPIO_Init(GPIOC, &GPIO_InitStruct);
 8001c28:	f107 0320 	add.w	r3, r7, #32
 8001c2c:	4619      	mov	r1, r3
 8001c2e:	480e      	ldr	r0, [pc, #56]	@ (8001c68 <HAL_ADC_MspInit+0x13c>)
 8001c30:	f001 fa14 	bl	800305c <HAL_GPIO_Init>
    GPIO_InitStruct.Pin = GPIO_PIN_0;
 8001c34:	2301      	movs	r3, #1
 8001c36:	623b      	str	r3, [r7, #32]
    GPIO_InitStruct.Mode = GPIO_MODE_ANALOG;
 8001c38:	2303      	movs	r3, #3
 8001c3a:	627b      	str	r3, [r7, #36]	@ 0x24
    HAL_GPIO_Init(GPIOA, &GPIO_InitStruct);
 8001c3c:	f107 0320 	add.w	r3, r7, #32
 8001c40:	4619      	mov	r1, r3
 8001c42:	480a      	ldr	r0, [pc, #40]	@ (8001c6c <HAL_ADC_MspInit+0x140>)
 8001c44:	f001 fa0a 	bl	800305c <HAL_GPIO_Init>
    HAL_NVIC_SetPriority(ADC1_2_IRQn, 0, 0);
 8001c48:	2200      	movs	r2, #0
 8001c4a:	2100      	movs	r1, #0
 8001c4c:	2012      	movs	r0, #18
 8001c4e:	f001 f91c 	bl	8002e8a <HAL_NVIC_SetPriority>
    HAL_NVIC_EnableIRQ(ADC1_2_IRQn);
 8001c52:	2012      	movs	r0, #18
 8001c54:	f001 f935 	bl	8002ec2 <HAL_NVIC_EnableIRQ>
}
 8001c58:	bf00      	nop
 8001c5a:	3730      	adds	r7, #48	@ 0x30
 8001c5c:	46bd      	mov	sp, r7
 8001c5e:	bd80      	pop	{r7, pc}
 8001c60:	40012400 	.word	0x40012400
 8001c64:	40021000 	.word	0x40021000
 8001c68:	40011000 	.word	0x40011000
 8001c6c:	40010800 	.word	0x40010800
 8001c70:	40012800 	.word	0x40012800

08001c74 <HAL_UART_MspInit>:
  * This function configures the hardware resources used in this example
  * @param huart: UART handle pointer
  * @retval None
  */
void HAL_UART_MspInit(UART_HandleTypeDef* huart)
{
 8001c74:	b580      	push	{r7, lr}
 8001c76:	b08a      	sub	sp, #40	@ 0x28
 8001c78:	af00      	add	r7, sp, #0
 8001c7a:	6078      	str	r0, [r7, #4]
  GPIO_InitTypeDef GPIO_InitStruct = {0};
 8001c7c:	f107 0318 	add.w	r3, r7, #24
 8001c80:	2200      	movs	r2, #0
 8001c82:	601a      	str	r2, [r3, #0]
 8001c84:	605a      	str	r2, [r3, #4]
 8001c86:	609a      	str	r2, [r3, #8]
 8001c88:	60da      	str	r2, [r3, #12]
  if(huart->Instance==USART1)
 8001c8a:	687b      	ldr	r3, [r7, #4]
 8001c8c:	681b      	ldr	r3, [r3, #0]
 8001c8e:	4a39      	ldr	r2, [pc, #228]	@ (8001d74 <HAL_UART_MspInit+0x100>)
 8001c90:	4293      	cmp	r3, r2
 8001c92:	d13a      	bne.n	8001d0a <HAL_UART_MspInit+0x96>
  {
    /* USER CODE BEGIN USART1_MspInit 0 */

    /* USER CODE END USART1_MspInit 0 */
    /* Peripheral clock enable */
    __HAL_RCC_USART1_CLK_ENABLE();
 8001c94:	4b38      	ldr	r3, [pc, #224]	@ (8001d78 <HAL_UART_MspInit+0x104>)
 8001c96:	699b      	ldr	r3, [r3, #24]
 8001c98:	4a37      	ldr	r2, [pc, #220]	@ (8001d78 <HAL_UART_MspInit+0x104>)
 8001c9a:	f443 4380 	orr.w	r3, r3, #16384	@ 0x4000
 8001c9e:	6193      	str	r3, [r2, #24]
 8001ca0:	4b35      	ldr	r3, [pc, #212]	@ (8001d78 <HAL_UART_MspInit+0x104>)
 8001ca2:	699b      	ldr	r3, [r3, #24]
 8001ca4:	f403 4380 	and.w	r3, r3, #16384	@ 0x4000
 8001ca8:	617b      	str	r3, [r7, #20]
 8001caa:	697b      	ldr	r3, [r7, #20]

    __HAL_RCC_GPIOA_CLK_ENABLE();
 8001cac:	4b32      	ldr	r3, [pc, #200]	@ (8001d78 <HAL_UART_MspInit+0x104>)
 8001cae:	699b      	ldr	r3, [r3, #24]
 8001cb0:	4a31      	ldr	r2, [pc, #196]	@ (8001d78 <HAL_UART_MspInit+0x104>)
 8001cb2:	f043 0304 	orr.w	r3, r3, #4
 8001cb6:	6193      	str	r3, [r2, #24]
 8001cb8:	4b2f      	ldr	r3, [pc, #188]	@ (8001d78 <HAL_UART_MspInit+0x104>)
 8001cba:	699b      	ldr	r3, [r3, #24]
 8001cbc:	f003 0304 	and.w	r3, r3, #4
 8001cc0:	613b      	str	r3, [r7, #16]
 8001cc2:	693b      	ldr	r3, [r7, #16]
    /**USART1 GPIO Configuration
    PA9     ------> USART1_TX
    PA10     ------> USART1_RX
    */
    GPIO_InitStruct.Pin = GPIO_PIN_9;
 8001cc4:	f44f 7300 	mov.w	r3, #512	@ 0x200
 8001cc8:	61bb      	str	r3, [r7, #24]
    GPIO_InitStruct.Mode = GPIO_MODE_AF_PP;
 8001cca:	2302      	movs	r3, #2
 8001ccc:	61fb      	str	r3, [r7, #28]
    GPIO_InitStruct.Speed = GPIO_SPEED_FREQ_HIGH;
 8001cce:	2303      	movs	r3, #3
 8001cd0:	627b      	str	r3, [r7, #36]	@ 0x24
    HAL_GPIO_Init(GPIOA, &GPIO_InitStruct);
 8001cd2:	f107 0318 	add.w	r3, r7, #24
 8001cd6:	4619      	mov	r1, r3
 8001cd8:	4828      	ldr	r0, [pc, #160]	@ (8001d7c <HAL_UART_MspInit+0x108>)
 8001cda:	f001 f9bf 	bl	800305c <HAL_GPIO_Init>

    GPIO_InitStruct.Pin = GPIO_PIN_10;
 8001cde:	f44f 6380 	mov.w	r3, #1024	@ 0x400
 8001ce2:	61bb      	str	r3, [r7, #24]
    GPIO_InitStruct.Mode = GPIO_MODE_INPUT;
 8001ce4:	2300      	movs	r3, #0
 8001ce6:	61fb      	str	r3, [r7, #28]
    GPIO_InitStruct.Pull = GPIO_NOPULL;
 8001ce8:	2300      	movs	r3, #0
 8001cea:	623b      	str	r3, [r7, #32]
    HAL_GPIO_Init(GPIOA, &GPIO_InitStruct);
 8001cec:	f107 0318 	add.w	r3, r7, #24
 8001cf0:	4619      	mov	r1, r3
 8001cf2:	4822      	ldr	r0, [pc, #136]	@ (8001d7c <HAL_UART_MspInit+0x108>)
 8001cf4:	f001 f9b2 	bl	800305c <HAL_GPIO_Init>

    /* USART1 interrupt Init */
    HAL_NVIC_SetPriority(USART1_IRQn, 0, 0);
 8001cf8:	2200      	movs	r2, #0
 8001cfa:	2100      	movs	r1, #0
 8001cfc:	2025      	movs	r0, #37	@ 0x25
 8001cfe:	f001 f8c4 	bl	8002e8a <HAL_NVIC_SetPriority>
    HAL_NVIC_EnableIRQ(USART1_IRQn);
 8001d02:	2025      	movs	r0, #37	@ 0x25
 8001d04:	f001 f8dd 	bl	8002ec2 <HAL_NVIC_EnableIRQ>
    /* USER CODE BEGIN USART2_MspInit 1 */

    /* USER CODE END USART2_MspInit 1 */
  }

}
 8001d08:	e030      	b.n	8001d6c <HAL_UART_MspInit+0xf8>
  else if(huart->Instance==USART2)
 8001d0a:	687b      	ldr	r3, [r7, #4]
 8001d0c:	681b      	ldr	r3, [r3, #0]
 8001d0e:	4a1c      	ldr	r2, [pc, #112]	@ (8001d80 <HAL_UART_MspInit+0x10c>)
 8001d10:	4293      	cmp	r3, r2
 8001d12:	d12b      	bne.n	8001d6c <HAL_UART_MspInit+0xf8>
    __HAL_RCC_USART2_CLK_ENABLE();
 8001d14:	4b18      	ldr	r3, [pc, #96]	@ (8001d78 <HAL_UART_MspInit+0x104>)
 8001d16:	69db      	ldr	r3, [r3, #28]
 8001d18:	4a17      	ldr	r2, [pc, #92]	@ (8001d78 <HAL_UART_MspInit+0x104>)
 8001d1a:	f443 3300 	orr.w	r3, r3, #131072	@ 0x20000
 8001d1e:	61d3      	str	r3, [r2, #28]
 8001d20:	4b15      	ldr	r3, [pc, #84]	@ (8001d78 <HAL_UART_MspInit+0x104>)
 8001d22:	69db      	ldr	r3, [r3, #28]
 8001d24:	f403 3300 	and.w	r3, r3, #131072	@ 0x20000
 8001d28:	60fb      	str	r3, [r7, #12]
 8001d2a:	68fb      	ldr	r3, [r7, #12]
    __HAL_RCC_GPIOA_CLK_ENABLE();
 8001d2c:	4b12      	ldr	r3, [pc, #72]	@ (8001d78 <HAL_UART_MspInit+0x104>)
 8001d2e:	699b      	ldr	r3, [r3, #24]
 8001d30:	4a11      	ldr	r2, [pc, #68]	@ (8001d78 <HAL_UART_MspInit+0x104>)
 8001d32:	f043 0304 	orr.w	r3, r3, #4
 8001d36:	6193      	str	r3, [r2, #24]
 8001d38:	4b0f      	ldr	r3, [pc, #60]	@ (8001d78 <HAL_UART_MspInit+0x104>)
 8001d3a:	699b      	ldr	r3, [r3, #24]
 8001d3c:	f003 0304 	and.w	r3, r3, #4
 8001d40:	60bb      	str	r3, [r7, #8]
 8001d42:	68bb      	ldr	r3, [r7, #8]
    GPIO_InitStruct.Pin = USART_TX_Pin|USART_RX_Pin;
 8001d44:	230c      	movs	r3, #12
 8001d46:	61bb      	str	r3, [r7, #24]
    GPIO_InitStruct.Mode = GPIO_MODE_AF_PP;
 8001d48:	2302      	movs	r3, #2
 8001d4a:	61fb      	str	r3, [r7, #28]
    GPIO_InitStruct.Speed = GPIO_SPEED_FREQ_LOW;
 8001d4c:	2302      	movs	r3, #2
 8001d4e:	627b      	str	r3, [r7, #36]	@ 0x24
    HAL_GPIO_Init(GPIOA, &GPIO_InitStruct);
 8001d50:	f107 0318 	add.w	r3, r7, #24
 8001d54:	4619      	mov	r1, r3
 8001d56:	4809      	ldr	r0, [pc, #36]	@ (8001d7c <HAL_UART_MspInit+0x108>)
 8001d58:	f001 f980 	bl	800305c <HAL_GPIO_Init>
    HAL_NVIC_SetPriority(USART2_IRQn, 0, 0);
 8001d5c:	2200      	movs	r2, #0
 8001d5e:	2100      	movs	r1, #0
 8001d60:	2026      	movs	r0, #38	@ 0x26
 8001d62:	f001 f892 	bl	8002e8a <HAL_NVIC_SetPriority>
    HAL_NVIC_EnableIRQ(USART2_IRQn);
 8001d66:	2026      	movs	r0, #38	@ 0x26
 8001d68:	f001 f8ab 	bl	8002ec2 <HAL_NVIC_EnableIRQ>
}
 8001d6c:	bf00      	nop
 8001d6e:	3728      	adds	r7, #40	@ 0x28
 8001d70:	46bd      	mov	sp, r7
 8001d72:	bd80      	pop	{r7, pc}
 8001d74:	40013800 	.word	0x40013800
 8001d78:	40021000 	.word	0x40021000
 8001d7c:	40010800 	.word	0x40010800
 8001d80:	40004400 	.word	0x40004400

08001d84 <NMI_Handler>:
/******************************************************************************/
/**
  * @brief This function handles Non maskable interrupt.
  */
void NMI_Handler(void)
{
 8001d84:	b480      	push	{r7}
 8001d86:	af00      	add	r7, sp, #0
  /* USER CODE BEGIN NonMaskableInt_IRQn 0 */

  /* USER CODE END NonMaskableInt_IRQn 0 */
  /* USER CODE BEGIN NonMaskableInt_IRQn 1 */
   while (1)
 8001d88:	bf00      	nop
 8001d8a:	e7fd      	b.n	8001d88 <NMI_Handler+0x4>

08001d8c <HardFault_Handler>:

/**
  * @brief This function handles Hard fault interrupt.
  */
void HardFault_Handler(void)
{
 8001d8c:	b480      	push	{r7}
 8001d8e:	af00      	add	r7, sp, #0
  /* USER CODE BEGIN HardFault_IRQn 0 */

  /* USER CODE END HardFault_IRQn 0 */
  while (1)
 8001d90:	bf00      	nop
 8001d92:	e7fd      	b.n	8001d90 <HardFault_Handler+0x4>

08001d94 <MemManage_Handler>:

/**
  * @brief This function handles Memory management fault.
  */
void MemManage_Handler(void)
{
 8001d94:	b480      	push	{r7}
 8001d96:	af00      	add	r7, sp, #0
  /* USER CODE BEGIN MemoryManagement_IRQn 0 */

  /* USER CODE END MemoryManagement_IRQn 0 */
  while (1)
 8001d98:	bf00      	nop
 8001d9a:	e7fd      	b.n	8001d98 <MemManage_Handler+0x4>

08001d9c <BusFault_Handler>:

/**
  * @brief This function handles Prefetch fault, memory access fault.
  */
void BusFault_Handler(void)
{
 8001d9c:	b480      	push	{r7}
 8001d9e:	af00      	add	r7, sp, #0
  /* USER CODE BEGIN BusFault_IRQn 0 */

  /* USER CODE END BusFault_IRQn 0 */
  while (1)
 8001da0:	bf00      	nop
 8001da2:	e7fd      	b.n	8001da0 <BusFault_Handler+0x4>

08001da4 <UsageFault_Handler>:

/**
  * @brief This function handles Undefined instruction or illegal state.
  */
void UsageFault_Handler(void)
{
 8001da4:	b480      	push	{r7}
 8001da6:	af00      	add	r7, sp, #0
  /* USER CODE BEGIN UsageFault_IRQn 0 */

  /* USER CODE END UsageFault_IRQn 0 */
  while (1)
 8001da8:	bf00      	nop
 8001daa:	e7fd      	b.n	8001da8 <UsageFault_Handler+0x4>

08001dac <SVC_Handler>:

/**
  * @brief This function handles System service call via SWI instruction.
  */
void SVC_Handler(void)
{
 8001dac:	b480      	push	{r7}
 8001dae:	af00      	add	r7, sp, #0

  /* USER CODE END SVCall_IRQn 0 */
  /* USER CODE BEGIN SVCall_IRQn 1 */

  /* USER CODE END SVCall_IRQn 1 */
}
 8001db0:	bf00      	nop
 8001db2:	46bd      	mov	sp, r7
 8001db4:	bc80      	pop	{r7}
 8001db6:	4770      	bx	lr

08001db8 <DebugMon_Handler>:

/**
  * @brief This function handles Debug monitor.
  */
void DebugMon_Handler(void)
{
 8001db8:	b480      	push	{r7}
 8001dba:	af00      	add	r7, sp, #0

  /* USER CODE END DebugMonitor_IRQn 0 */
  /* USER CODE BEGIN DebugMonitor_IRQn 1 */

  /* USER CODE END DebugMonitor_IRQn 1 */
}
 8001dbc:	bf00      	nop
 8001dbe:	46bd      	mov	sp, r7
 8001dc0:	bc80      	pop	{r7}
 8001dc2:	4770      	bx	lr

08001dc4 <PendSV_Handler>:

/**
  * @brief This function handles Pendable request for system service.
  */
void PendSV_Handler(void)
{
 8001dc4:	b480      	push	{r7}
 8001dc6:	af00      	add	r7, sp, #0

  /* USER CODE END PendSV_IRQn 0 */
  /* USER CODE BEGIN PendSV_IRQn 1 */

  /* USER CODE END PendSV_IRQn 1 */
}
 8001dc8:	bf00      	nop
 8001dca:	46bd      	mov	sp, r7
 8001dcc:	bc80      	pop	{r7}
 8001dce:	4770      	bx	lr

08001dd0 <SysTick_Handler>:

/**
  * @brief This function handles System tick timer.
  */
void SysTick_Handler(void)
{
 8001dd0:	b580      	push	{r7, lr}
 8001dd2:	af00      	add	r7, sp, #0
  /* USER CODE BEGIN SysTick_IRQn 0 */

  /* USER CODE END SysTick_IRQn 0 */
  HAL_IncTick();
 8001dd4:	f000 f960 	bl	8002098 <HAL_IncTick>
  /* USER CODE BEGIN SysTick_IRQn 1 */

  /* USER CODE END SysTick_IRQn 1 */
}
 8001dd8:	bf00      	nop
 8001dda:	bd80      	pop	{r7, pc}

08001ddc <ADC1_2_IRQHandler>:

/**
  * @brief This function handles ADC1 and ADC2 global interrupts.
  */
void ADC1_2_IRQHandler(void)
{
 8001ddc:	b580      	push	{r7, lr}
 8001dde:	af00      	add	r7, sp, #0
  /* USER CODE BEGIN ADC1_2_IRQn 0 */

  /* USER CODE END ADC1_2_IRQn 0 */
  HAL_ADC_IRQHandler(&hadc1);
 8001de0:	4803      	ldr	r0, [pc, #12]	@ (8001df0 <ADC1_2_IRQHandler+0x14>)
 8001de2:	f000 fc5d 	bl	80026a0 <HAL_ADC_IRQHandler>
  HAL_ADC_IRQHandler(&hadc2);
 8001de6:	4803      	ldr	r0, [pc, #12]	@ (8001df4 <ADC1_2_IRQHandler+0x18>)
 8001de8:	f000 fc5a 	bl	80026a0 <HAL_ADC_IRQHandler>
  /* USER CODE BEGIN ADC1_2_IRQn 1 */

  /* USER CODE END ADC1_2_IRQn 1 */
}
 8001dec:	bf00      	nop
 8001dee:	bd80      	pop	{r7, pc}
 8001df0:	200001f0 	.word	0x200001f0
 8001df4:	20000220 	.word	0x20000220

08001df8 <USART1_IRQHandler>:

/**
  * @brief This function handles USART1 global interrupt.
  */
void USART1_IRQHandler(void)
{
 8001df8:	b580      	push	{r7, lr}
 8001dfa:	af00      	add	r7, sp, #0
  /* USER CODE BEGIN USART1_IRQn 0 */

  /* USER CODE END USART1_IRQn 0 */
  HAL_UART_IRQHandler(&huart1);
 8001dfc:	4802      	ldr	r0, [pc, #8]	@ (8001e08 <USART1_IRQHandler+0x10>)
 8001dfe:	f002 f97f 	bl	8004100 <HAL_UART_IRQHandler>
  /* USER CODE BEGIN USART1_IRQn 1 */

  /* USER CODE END USART1_IRQn 1 */
}
 8001e02:	bf00      	nop
 8001e04:	bd80      	pop	{r7, pc}
 8001e06:	bf00      	nop
 8001e08:	20000250 	.word	0x20000250

08001e0c <USART2_IRQHandler>:

/**
  * @brief This function handles USART2 global interrupt.
  */
void USART2_IRQHandler(void)
{
 8001e0c:	b580      	push	{r7, lr}
 8001e0e:	af00      	add	r7, sp, #0
  /* USER CODE BEGIN USART2_IRQn 0 */

  /* USER CODE END USART2_IRQn 0 */
  HAL_UART_IRQHandler(&huart2);
 8001e10:	4802      	ldr	r0, [pc, #8]	@ (8001e1c <USART2_IRQHandler+0x10>)
 8001e12:	f002 f975 	bl	8004100 <HAL_UART_IRQHandler>
  /* USER CODE BEGIN USART2_IRQn 1 */

  /* USER CODE END USART2_IRQn 1 */
}
 8001e16:	bf00      	nop
 8001e18:	bd80      	pop	{r7, pc}
 8001e1a:	bf00      	nop
 8001e1c:	20000298 	.word	0x20000298

08001e20 <EXTI15_10_IRQHandler>:

/**
  * @brief This function handles EXTI line[15:10] interrupts.
  */
void EXTI15_10_IRQHandler(void)
{
 8001e20:	b580      	push	{r7, lr}
 8001e22:	af00      	add	r7, sp, #0
  /* USER CODE BEGIN EXTI15_10_IRQn 0 */

  /* USER CODE END EXTI15_10_IRQn 0 */
  HAL_GPIO_EXTI_IRQHandler(B1_Pin);
 8001e24:	f44f 5000 	mov.w	r0, #8192	@ 0x2000
 8001e28:	f001 facc 	bl	80033c4 <HAL_GPIO_EXTI_IRQHandler>
  /* USER CODE BEGIN EXTI15_10_IRQn 1 */

  /* USER CODE END EXTI15_10_IRQn 1 */
}
 8001e2c:	bf00      	nop
 8001e2e:	bd80      	pop	{r7, pc}

08001e30 <_getpid>:
void initialise_monitor_handles()
{
}

int _getpid(void)
{
 8001e30:	b480      	push	{r7}
 8001e32:	af00      	add	r7, sp, #0
  return 1;
 8001e34:	2301      	movs	r3, #1
}
 8001e36:	4618      	mov	r0, r3
 8001e38:	46bd      	mov	sp, r7
 8001e3a:	bc80      	pop	{r7}
 8001e3c:	4770      	bx	lr

08001e3e <_kill>:

int _kill(int pid, int sig)
{
 8001e3e:	b580      	push	{r7, lr}
 8001e40:	b082      	sub	sp, #8
 8001e42:	af00      	add	r7, sp, #0
 8001e44:	6078      	str	r0, [r7, #4]
 8001e46:	6039      	str	r1, [r7, #0]
  (void)pid;
  (void)sig;
  errno = EINVAL;
 8001e48:	f003 fcac 	bl	80057a4 <__errno>
 8001e4c:	4603      	mov	r3, r0
 8001e4e:	2216      	movs	r2, #22
 8001e50:	601a      	str	r2, [r3, #0]
  return -1;
 8001e52:	f04f 33ff 	mov.w	r3, #4294967295
}
 8001e56:	4618      	mov	r0, r3
 8001e58:	3708      	adds	r7, #8
 8001e5a:	46bd      	mov	sp, r7
 8001e5c:	bd80      	pop	{r7, pc}

08001e5e <_exit>:

void _exit (int status)
{
 8001e5e:	b580      	push	{r7, lr}
 8001e60:	b082      	sub	sp, #8
 8001e62:	af00      	add	r7, sp, #0
 8001e64:	6078      	str	r0, [r7, #4]
  _kill(status, -1);
 8001e66:	f04f 31ff 	mov.w	r1, #4294967295
 8001e6a:	6878      	ldr	r0, [r7, #4]
 8001e6c:	f7ff ffe7 	bl	8001e3e <_kill>
  while (1) {}    /* Make sure we hang here */
 8001e70:	bf00      	nop
 8001e72:	e7fd      	b.n	8001e70 <_exit+0x12>

08001e74 <_read>:
}

__attribute__((weak)) int _read(int file, char *ptr, int len)
{
 8001e74:	b580      	push	{r7, lr}
 8001e76:	b086      	sub	sp, #24
 8001e78:	af00      	add	r7, sp, #0
 8001e7a:	60f8      	str	r0, [r7, #12]
 8001e7c:	60b9      	str	r1, [r7, #8]
 8001e7e:	607a      	str	r2, [r7, #4]
  (void)file;
  int DataIdx;

  for (DataIdx = 0; DataIdx < len; DataIdx++)
 8001e80:	2300      	movs	r3, #0
 8001e82:	617b      	str	r3, [r7, #20]
 8001e84:	e00a      	b.n	8001e9c <_read+0x28>
  {
    *ptr++ = __io_getchar();
 8001e86:	f3af 8000 	nop.w
 8001e8a:	4601      	mov	r1, r0
 8001e8c:	68bb      	ldr	r3, [r7, #8]
 8001e8e:	1c5a      	adds	r2, r3, #1
 8001e90:	60ba      	str	r2, [r7, #8]
 8001e92:	b2ca      	uxtb	r2, r1
 8001e94:	701a      	strb	r2, [r3, #0]
  for (DataIdx = 0; DataIdx < len; DataIdx++)
 8001e96:	697b      	ldr	r3, [r7, #20]
 8001e98:	3301      	adds	r3, #1
 8001e9a:	617b      	str	r3, [r7, #20]
 8001e9c:	697a      	ldr	r2, [r7, #20]
 8001e9e:	687b      	ldr	r3, [r7, #4]
 8001ea0:	429a      	cmp	r2, r3
 8001ea2:	dbf0      	blt.n	8001e86 <_read+0x12>
  }

  return len;
 8001ea4:	687b      	ldr	r3, [r7, #4]
}
 8001ea6:	4618      	mov	r0, r3
 8001ea8:	3718      	adds	r7, #24
 8001eaa:	46bd      	mov	sp, r7
 8001eac:	bd80      	pop	{r7, pc}

08001eae <_write>:

__attribute__((weak)) int _write(int file, char *ptr, int len)
{
 8001eae:	b580      	push	{r7, lr}
 8001eb0:	b086      	sub	sp, #24
 8001eb2:	af00      	add	r7, sp, #0
 8001eb4:	60f8      	str	r0, [r7, #12]
 8001eb6:	60b9      	str	r1, [r7, #8]
 8001eb8:	607a      	str	r2, [r7, #4]
  (void)file;
  int DataIdx;

  for (DataIdx = 0; DataIdx < len; DataIdx++)
 8001eba:	2300      	movs	r3, #0
 8001ebc:	617b      	str	r3, [r7, #20]
 8001ebe:	e009      	b.n	8001ed4 <_write+0x26>
  {
    __io_putchar(*ptr++);
 8001ec0:	68bb      	ldr	r3, [r7, #8]
 8001ec2:	1c5a      	adds	r2, r3, #1
 8001ec4:	60ba      	str	r2, [r7, #8]
 8001ec6:	781b      	ldrb	r3, [r3, #0]
 8001ec8:	4618      	mov	r0, r3
 8001eca:	f3af 8000 	nop.w
  for (DataIdx = 0; DataIdx < len; DataIdx++)
 8001ece:	697b      	ldr	r3, [r7, #20]
 8001ed0:	3301      	adds	r3, #1
 8001ed2:	617b      	str	r3, [r7, #20]
 8001ed4:	697a      	ldr	r2, [r7, #20]
 8001ed6:	687b      	ldr	r3, [r7, #4]
 8001ed8:	429a      	cmp	r2, r3
 8001eda:	dbf1      	blt.n	8001ec0 <_write+0x12>
  }
  return len;
 8001edc:	687b      	ldr	r3, [r7, #4]
}
 8001ede:	4618      	mov	r0, r3
 8001ee0:	3718      	adds	r7, #24
 8001ee2:	46bd      	mov	sp, r7
 8001ee4:	bd80      	pop	{r7, pc}

08001ee6 <_close>:

int _close(int file)
{
 8001ee6:	b480      	push	{r7}
 8001ee8:	b083      	sub	sp, #12
 8001eea:	af00      	add	r7, sp, #0
 8001eec:	6078      	str	r0, [r7, #4]
  (void)file;
  return -1;
 8001eee:	f04f 33ff 	mov.w	r3, #4294967295
}
 8001ef2:	4618      	mov	r0, r3
 8001ef4:	370c      	adds	r7, #12
 8001ef6:	46bd      	mov	sp, r7
 8001ef8:	bc80      	pop	{r7}
 8001efa:	4770      	bx	lr

08001efc <_fstat>:


int _fstat(int file, struct stat *st)
{
 8001efc:	b480      	push	{r7}
 8001efe:	b083      	sub	sp, #12
 8001f00:	af00      	add	r7, sp, #0
 8001f02:	6078      	str	r0, [r7, #4]
 8001f04:	6039      	str	r1, [r7, #0]
  (void)file;
  st->st_mode = S_IFCHR;
 8001f06:	683b      	ldr	r3, [r7, #0]
 8001f08:	f44f 5200 	mov.w	r2, #8192	@ 0x2000
 8001f0c:	605a      	str	r2, [r3, #4]
  return 0;
 8001f0e:	2300      	movs	r3, #0
}
 8001f10:	4618      	mov	r0, r3
 8001f12:	370c      	adds	r7, #12
 8001f14:	46bd      	mov	sp, r7
 8001f16:	bc80      	pop	{r7}
 8001f18:	4770      	bx	lr

08001f1a <_isatty>:

int _isatty(int file)
{
 8001f1a:	b480      	push	{r7}
 8001f1c:	b083      	sub	sp, #12
 8001f1e:	af00      	add	r7, sp, #0
 8001f20:	6078      	str	r0, [r7, #4]
  (void)file;
  return 1;
 8001f22:	2301      	movs	r3, #1
}
 8001f24:	4618      	mov	r0, r3
 8001f26:	370c      	adds	r7, #12
 8001f28:	46bd      	mov	sp, r7
 8001f2a:	bc80      	pop	{r7}
 8001f2c:	4770      	bx	lr

08001f2e <_lseek>:

int _lseek(int file, int ptr, int dir)
{
 8001f2e:	b480      	push	{r7}
 8001f30:	b085      	sub	sp, #20
 8001f32:	af00      	add	r7, sp, #0
 8001f34:	60f8      	str	r0, [r7, #12]
 8001f36:	60b9      	str	r1, [r7, #8]
 8001f38:	607a      	str	r2, [r7, #4]
  (void)file;
  (void)ptr;
  (void)dir;
  return 0;
 8001f3a:	2300      	movs	r3, #0
}
 8001f3c:	4618      	mov	r0, r3
 8001f3e:	3714      	adds	r7, #20
 8001f40:	46bd      	mov	sp, r7
 8001f42:	bc80      	pop	{r7}
 8001f44:	4770      	bx	lr
	...

08001f48 <_sbrk>:
 *
 * @param incr Memory size
 * @return Pointer to allocated memory
 */
void *_sbrk(ptrdiff_t incr)
{
 8001f48:	b580      	push	{r7, lr}
 8001f4a:	b086      	sub	sp, #24
 8001f4c:	af00      	add	r7, sp, #0
 8001f4e:	6078      	str	r0, [r7, #4]
  extern uint8_t _end; /* Symbol defined in the linker script */
  extern uint8_t _estack; /* Symbol defined in the linker script */
  extern uint32_t _Min_Stack_Size; /* Symbol defined in the linker script */
  const uint32_t stack_limit = (uint32_t)&_estack - (uint32_t)&_Min_Stack_Size;
 8001f50:	4a14      	ldr	r2, [pc, #80]	@ (8001fa4 <_sbrk+0x5c>)
 8001f52:	4b15      	ldr	r3, [pc, #84]	@ (8001fa8 <_sbrk+0x60>)
 8001f54:	1ad3      	subs	r3, r2, r3
 8001f56:	617b      	str	r3, [r7, #20]
  const uint8_t *max_heap = (uint8_t *)stack_limit;
 8001f58:	697b      	ldr	r3, [r7, #20]
 8001f5a:	613b      	str	r3, [r7, #16]
  uint8_t *prev_heap_end;

  /* Initialize heap end at first call */
  if (NULL == __sbrk_heap_end)
 8001f5c:	4b13      	ldr	r3, [pc, #76]	@ (8001fac <_sbrk+0x64>)
 8001f5e:	681b      	ldr	r3, [r3, #0]
 8001f60:	2b00      	cmp	r3, #0
 8001f62:	d102      	bne.n	8001f6a <_sbrk+0x22>
  {
    __sbrk_heap_end = &_end;
 8001f64:	4b11      	ldr	r3, [pc, #68]	@ (8001fac <_sbrk+0x64>)
 8001f66:	4a12      	ldr	r2, [pc, #72]	@ (8001fb0 <_sbrk+0x68>)
 8001f68:	601a      	str	r2, [r3, #0]
  }

  /* Protect heap from growing into the reserved MSP stack */
  if (__sbrk_heap_end + incr > max_heap)
 8001f6a:	4b10      	ldr	r3, [pc, #64]	@ (8001fac <_sbrk+0x64>)
 8001f6c:	681a      	ldr	r2, [r3, #0]
 8001f6e:	687b      	ldr	r3, [r7, #4]
 8001f70:	4413      	add	r3, r2
 8001f72:	693a      	ldr	r2, [r7, #16]
 8001f74:	429a      	cmp	r2, r3
 8001f76:	d207      	bcs.n	8001f88 <_sbrk+0x40>
  {
    errno = ENOMEM;
 8001f78:	f003 fc14 	bl	80057a4 <__errno>
 8001f7c:	4603      	mov	r3, r0
 8001f7e:	220c      	movs	r2, #12
 8001f80:	601a      	str	r2, [r3, #0]
    return (void *)-1;
 8001f82:	f04f 33ff 	mov.w	r3, #4294967295
 8001f86:	e009      	b.n	8001f9c <_sbrk+0x54>
  }

  prev_heap_end = __sbrk_heap_end;
 8001f88:	4b08      	ldr	r3, [pc, #32]	@ (8001fac <_sbrk+0x64>)
 8001f8a:	681b      	ldr	r3, [r3, #0]
 8001f8c:	60fb      	str	r3, [r7, #12]
  __sbrk_heap_end += incr;
 8001f8e:	4b07      	ldr	r3, [pc, #28]	@ (8001fac <_sbrk+0x64>)
 8001f90:	681a      	ldr	r2, [r3, #0]
 8001f92:	687b      	ldr	r3, [r7, #4]
 8001f94:	4413      	add	r3, r2
 8001f96:	4a05      	ldr	r2, [pc, #20]	@ (8001fac <_sbrk+0x64>)
 8001f98:	6013      	str	r3, [r2, #0]

  return (void *)prev_heap_end;
 8001f9a:	68fb      	ldr	r3, [r7, #12]
}
 8001f9c:	4618      	mov	r0, r3
 8001f9e:	3718      	adds	r7, #24
 8001fa0:	46bd      	mov	sp, r7
 8001fa2:	bd80      	pop	{r7, pc}
 8001fa4:	20005000 	.word	0x20005000
 8001fa8:	00000400 	.word	0x00000400
 8001fac:	2000036c 	.word	0x2000036c
 8001fb0:	200004c0 	.word	0x200004c0

08001fb4 <SystemInit>:
  * @note   This function should be used only after reset.
  * @param  None
  * @retval None
  */
void SystemInit (void)
{
 8001fb4:	b480      	push	{r7}
 8001fb6:	af00      	add	r7, sp, #0

  /* Configure the Vector Table location -------------------------------------*/
#if defined(USER_VECT_TAB_ADDRESS)
  SCB->VTOR = VECT_TAB_BASE_ADDRESS | VECT_TAB_OFFSET; /* Vector Table Relocation in Internal SRAM. */
#endif /* USER_VECT_TAB_ADDRESS */
}
 8001fb8:	bf00      	nop
 8001fba:	46bd      	mov	sp, r7
 8001fbc:	bc80      	pop	{r7}
 8001fbe:	4770      	bx	lr

08001fc0 <Reset_Handler>:
  .weak Reset_Handler
  .type Reset_Handler, %function
Reset_Handler:

/* Call the clock system initialization function.*/
    bl  SystemInit
 8001fc0:	f7ff fff8 	bl	8001fb4 <SystemInit>

/* Copy the data segment initializers from flash to SRAM */
  ldr r0, =_sdata
 8001fc4:	480b      	ldr	r0, [pc, #44]	@ (8001ff4 <LoopFillZerobss+0xe>)
  ldr r1, =_edata
 8001fc6:	490c      	ldr	r1, [pc, #48]	@ (8001ff8 <LoopFillZerobss+0x12>)
  ldr r2, =_sidata
 8001fc8:	4a0c      	ldr	r2, [pc, #48]	@ (8001ffc <LoopFillZerobss+0x16>)
  movs r3, #0
 8001fca:	2300      	movs	r3, #0
  b LoopCopyDataInit
 8001fcc:	e002      	b.n	8001fd4 <LoopCopyDataInit>

08001fce <CopyDataInit>:

CopyDataInit:
  ldr r4, [r2, r3]
 8001fce:	58d4      	ldr	r4, [r2, r3]
  str r4, [r0, r3]
 8001fd0:	50c4      	str	r4, [r0, r3]
  adds r3, r3, #4
 8001fd2:	3304      	adds	r3, #4

08001fd4 <LoopCopyDataInit>:

LoopCopyDataInit:
  adds r4, r0, r3
 8001fd4:	18c4      	adds	r4, r0, r3
  cmp r4, r1
 8001fd6:	428c      	cmp	r4, r1
  bcc CopyDataInit
 8001fd8:	d3f9      	bcc.n	8001fce <CopyDataInit>
  
/* Zero fill the bss segment. */
  ldr r2, =_sbss
 8001fda:	4a09      	ldr	r2, [pc, #36]	@ (8002000 <LoopFillZerobss+0x1a>)
  ldr r4, =_ebss
 8001fdc:	4c09      	ldr	r4, [pc, #36]	@ (8002004 <LoopFillZerobss+0x1e>)
  movs r3, #0
 8001fde:	2300      	movs	r3, #0
  b LoopFillZerobss
 8001fe0:	e001      	b.n	8001fe6 <LoopFillZerobss>

08001fe2 <FillZerobss>:

FillZerobss:
  str  r3, [r2]
 8001fe2:	6013      	str	r3, [r2, #0]
  adds r2, r2, #4
 8001fe4:	3204      	adds	r2, #4

08001fe6 <LoopFillZerobss>:

LoopFillZerobss:
  cmp r2, r4
 8001fe6:	42a2      	cmp	r2, r4
  bcc FillZerobss
 8001fe8:	d3fb      	bcc.n	8001fe2 <FillZerobss>

/* Call static constructors */
    bl __libc_init_array
 8001fea:	f003 fbe1 	bl	80057b0 <__libc_init_array>
/* Call the application's entry point.*/
  bl main
 8001fee:	f7ff faa7 	bl	8001540 <main>
  bx lr
 8001ff2:	4770      	bx	lr
  ldr r0, =_sdata
 8001ff4:	20000000 	.word	0x20000000
  ldr r1, =_edata
 8001ff8:	200001d4 	.word	0x200001d4
  ldr r2, =_sidata
 8001ffc:	08007d54 	.word	0x08007d54
  ldr r2, =_sbss
 8002000:	200001d4 	.word	0x200001d4
  ldr r4, =_ebss
 8002004:	200004c0 	.word	0x200004c0

08002008 <CAN1_RX1_IRQHandler>:
 * @retval : None
*/
    .section .text.Default_Handler,"ax",%progbits
Default_Handler:
Infinite_Loop:
  b Infinite_Loop
 8002008:	e7fe      	b.n	8002008 <CAN1_RX1_IRQHandler>
	...

0800200c <HAL_Init>:
  *         need to ensure that the SysTick time base is always set to 1 millisecond
  *         to have correct HAL operation.
  * @retval HAL status
  */
HAL_StatusTypeDef HAL_Init(void)
{
 800200c:	b580      	push	{r7, lr}
 800200e:	af00      	add	r7, sp, #0
    defined(STM32F102x6) || defined(STM32F102xB) || \
    defined(STM32F103x6) || defined(STM32F103xB) || defined(STM32F103xE) || defined(STM32F103xG) || \
    defined(STM32F105xC) || defined(STM32F107xC)

  /* Prefetch buffer is not available on value line devices */
  __HAL_FLASH_PREFETCH_BUFFER_ENABLE();
 8002010:	4b08      	ldr	r3, [pc, #32]	@ (8002034 <HAL_Init+0x28>)
 8002012:	681b      	ldr	r3, [r3, #0]
 8002014:	4a07      	ldr	r2, [pc, #28]	@ (8002034 <HAL_Init+0x28>)
 8002016:	f043 0310 	orr.w	r3, r3, #16
 800201a:	6013      	str	r3, [r2, #0]
#endif
#endif /* PREFETCH_ENABLE */

  /* Set Interrupt Group Priority */
  HAL_NVIC_SetPriorityGrouping(NVIC_PRIORITYGROUP_4);
 800201c:	2003      	movs	r0, #3
 800201e:	f000 ff29 	bl	8002e74 <HAL_NVIC_SetPriorityGrouping>

  /* Use systick as time base source and configure 1ms tick (default clock after Reset is HSI) */
  HAL_InitTick(TICK_INT_PRIORITY);
 8002022:	2000      	movs	r0, #0
 8002024:	f000 f808 	bl	8002038 <HAL_InitTick>

  /* Init the low level hardware */
  HAL_MspInit();
 8002028:	f7ff fd4e 	bl	8001ac8 <HAL_MspInit>

  /* Return function status */
  return HAL_OK;
 800202c:	2300      	movs	r3, #0
}
 800202e:	4618      	mov	r0, r3
 8002030:	bd80      	pop	{r7, pc}
 8002032:	bf00      	nop
 8002034:	40022000 	.word	0x40022000

08002038 <HAL_InitTick>:
  *       implementation  in user file.
  * @param TickPriority Tick interrupt priority.
  * @retval HAL status
  */
__weak HAL_StatusTypeDef HAL_InitTick(uint32_t TickPriority)
{
 8002038:	b580      	push	{r7, lr}
 800203a:	b082      	sub	sp, #8
 800203c:	af00      	add	r7, sp, #0
 800203e:	6078      	str	r0, [r7, #4]
  /* Configure the SysTick to have interrupt in 1ms time basis*/
  if (HAL_SYSTICK_Config(SystemCoreClock / (1000U / uwTickFreq)) > 0U)
 8002040:	4b12      	ldr	r3, [pc, #72]	@ (800208c <HAL_InitTick+0x54>)
 8002042:	681a      	ldr	r2, [r3, #0]
 8002044:	4b12      	ldr	r3, [pc, #72]	@ (8002090 <HAL_InitTick+0x58>)
 8002046:	781b      	ldrb	r3, [r3, #0]
 8002048:	4619      	mov	r1, r3
 800204a:	f44f 737a 	mov.w	r3, #1000	@ 0x3e8
 800204e:	fbb3 f3f1 	udiv	r3, r3, r1
 8002052:	fbb2 f3f3 	udiv	r3, r2, r3
 8002056:	4618      	mov	r0, r3
 8002058:	f000 ff41 	bl	8002ede <HAL_SYSTICK_Config>
 800205c:	4603      	mov	r3, r0
 800205e:	2b00      	cmp	r3, #0
 8002060:	d001      	beq.n	8002066 <HAL_InitTick+0x2e>
  {
    return HAL_ERROR;
 8002062:	2301      	movs	r3, #1
 8002064:	e00e      	b.n	8002084 <HAL_InitTick+0x4c>
  }

  /* Configure the SysTick IRQ priority */
  if (TickPriority < (1UL << __NVIC_PRIO_BITS))
 8002066:	687b      	ldr	r3, [r7, #4]
 8002068:	2b0f      	cmp	r3, #15
 800206a:	d80a      	bhi.n	8002082 <HAL_InitTick+0x4a>
  {
    HAL_NVIC_SetPriority(SysTick_IRQn, TickPriority, 0U);
 800206c:	2200      	movs	r2, #0
 800206e:	6879      	ldr	r1, [r7, #4]
 8002070:	f04f 30ff 	mov.w	r0, #4294967295
 8002074:	f000 ff09 	bl	8002e8a <HAL_NVIC_SetPriority>
    uwTickPrio = TickPriority;
 8002078:	4a06      	ldr	r2, [pc, #24]	@ (8002094 <HAL_InitTick+0x5c>)
 800207a:	687b      	ldr	r3, [r7, #4]
 800207c:	6013      	str	r3, [r2, #0]
  {
    return HAL_ERROR;
  }

  /* Return function status */
  return HAL_OK;
 800207e:	2300      	movs	r3, #0
 8002080:	e000      	b.n	8002084 <HAL_InitTick+0x4c>
    return HAL_ERROR;
 8002082:	2301      	movs	r3, #1
}
 8002084:	4618      	mov	r0, r3
 8002086:	3708      	adds	r7, #8
 8002088:	46bd      	mov	sp, r7
 800208a:	bd80      	pop	{r7, pc}
 800208c:	20000000 	.word	0x20000000
 8002090:	20000008 	.word	0x20000008
 8002094:	20000004 	.word	0x20000004

08002098 <HAL_IncTick>:
  * @note This function is declared as __weak to be overwritten in case of other
  *      implementations in user file.
  * @retval None
  */
__weak void HAL_IncTick(void)
{
 8002098:	b480      	push	{r7}
 800209a:	af00      	add	r7, sp, #0
  uwTick += uwTickFreq;
 800209c:	4b05      	ldr	r3, [pc, #20]	@ (80020b4 <HAL_IncTick+0x1c>)
 800209e:	781b      	ldrb	r3, [r3, #0]
 80020a0:	461a      	mov	r2, r3
 80020a2:	4b05      	ldr	r3, [pc, #20]	@ (80020b8 <HAL_IncTick+0x20>)
 80020a4:	681b      	ldr	r3, [r3, #0]
 80020a6:	4413      	add	r3, r2
 80020a8:	4a03      	ldr	r2, [pc, #12]	@ (80020b8 <HAL_IncTick+0x20>)
 80020aa:	6013      	str	r3, [r2, #0]
}
 80020ac:	bf00      	nop
 80020ae:	46bd      	mov	sp, r7
 80020b0:	bc80      	pop	{r7}
 80020b2:	4770      	bx	lr
 80020b4:	20000008 	.word	0x20000008
 80020b8:	20000370 	.word	0x20000370

080020bc <HAL_GetTick>:
  * @note  This function is declared as __weak to be overwritten in case of other
  *       implementations in user file.
  * @retval tick value
  */
__weak uint32_t HAL_GetTick(void)
{
 80020bc:	b480      	push	{r7}
 80020be:	af00      	add	r7, sp, #0
  return uwTick;
 80020c0:	4b02      	ldr	r3, [pc, #8]	@ (80020cc <HAL_GetTick+0x10>)
 80020c2:	681b      	ldr	r3, [r3, #0]
}
 80020c4:	4618      	mov	r0, r3
 80020c6:	46bd      	mov	sp, r7
 80020c8:	bc80      	pop	{r7}
 80020ca:	4770      	bx	lr
 80020cc:	20000370 	.word	0x20000370

080020d0 <HAL_Delay>:
  *       implementations in user file.
  * @param Delay specifies the delay time length, in milliseconds.
  * @retval None
  */
__weak void HAL_Delay(uint32_t Delay)
{
 80020d0:	b580      	push	{r7, lr}
 80020d2:	b084      	sub	sp, #16
 80020d4:	af00      	add	r7, sp, #0
 80020d6:	6078      	str	r0, [r7, #4]
  uint32_t tickstart = HAL_GetTick();
 80020d8:	f7ff fff0 	bl	80020bc <HAL_GetTick>
 80020dc:	60b8      	str	r0, [r7, #8]
  uint32_t wait = Delay;
 80020de:	687b      	ldr	r3, [r7, #4]
 80020e0:	60fb      	str	r3, [r7, #12]

  /* Add a freq to guarantee minimum wait */
  if (wait < HAL_MAX_DELAY)
 80020e2:	68fb      	ldr	r3, [r7, #12]
 80020e4:	f1b3 3fff 	cmp.w	r3, #4294967295
 80020e8:	d005      	beq.n	80020f6 <HAL_Delay+0x26>
  {
    wait += (uint32_t)(uwTickFreq);
 80020ea:	4b0a      	ldr	r3, [pc, #40]	@ (8002114 <HAL_Delay+0x44>)
 80020ec:	781b      	ldrb	r3, [r3, #0]
 80020ee:	461a      	mov	r2, r3
 80020f0:	68fb      	ldr	r3, [r7, #12]
 80020f2:	4413      	add	r3, r2
 80020f4:	60fb      	str	r3, [r7, #12]
  }

  while ((HAL_GetTick() - tickstart) < wait)
 80020f6:	bf00      	nop
 80020f8:	f7ff ffe0 	bl	80020bc <HAL_GetTick>
 80020fc:	4602      	mov	r2, r0
 80020fe:	68bb      	ldr	r3, [r7, #8]
 8002100:	1ad3      	subs	r3, r2, r3
 8002102:	68fa      	ldr	r2, [r7, #12]
 8002104:	429a      	cmp	r2, r3
 8002106:	d8f7      	bhi.n	80020f8 <HAL_Delay+0x28>
  {
  }
}
 8002108:	bf00      	nop
 800210a:	bf00      	nop
 800210c:	3710      	adds	r7, #16
 800210e:	46bd      	mov	sp, r7
 8002110:	bd80      	pop	{r7, pc}
 8002112:	bf00      	nop
 8002114:	20000008 	.word	0x20000008

08002118 <HAL_ADC_Init>:
  *         of structure "ADC_InitTypeDef".
  * @param  hadc: ADC handle
  * @retval HAL status
  */
HAL_StatusTypeDef HAL_ADC_Init(ADC_HandleTypeDef* hadc)
{
 8002118:	b580      	push	{r7, lr}
 800211a:	b086      	sub	sp, #24
 800211c:	af00      	add	r7, sp, #0
 800211e:	6078      	str	r0, [r7, #4]
  HAL_StatusTypeDef tmp_hal_status = HAL_OK;
 8002120:	2300      	movs	r3, #0
 8002122:	75fb      	strb	r3, [r7, #23]
  uint32_t tmp_cr1 = 0U;
 8002124:	2300      	movs	r3, #0
 8002126:	613b      	str	r3, [r7, #16]
  uint32_t tmp_cr2 = 0U;
 8002128:	2300      	movs	r3, #0
 800212a:	60bb      	str	r3, [r7, #8]
  uint32_t tmp_sqr1 = 0U;
 800212c:	2300      	movs	r3, #0
 800212e:	60fb      	str	r3, [r7, #12]
  
  /* Check ADC handle */
  if(hadc == NULL)
 8002130:	687b      	ldr	r3, [r7, #4]
 8002132:	2b00      	cmp	r3, #0
 8002134:	d101      	bne.n	800213a <HAL_ADC_Init+0x22>
  {
    return HAL_ERROR;
 8002136:	2301      	movs	r3, #1
 8002138:	e0be      	b.n	80022b8 <HAL_ADC_Init+0x1a0>
  assert_param(IS_ADC_DATA_ALIGN(hadc->Init.DataAlign));
  assert_param(IS_ADC_SCAN_MODE(hadc->Init.ScanConvMode));
  assert_param(IS_FUNCTIONAL_STATE(hadc->Init.ContinuousConvMode));
  assert_param(IS_ADC_EXTTRIG(hadc->Init.ExternalTrigConv));
  
  if(hadc->Init.ScanConvMode != ADC_SCAN_DISABLE)
 800213a:	687b      	ldr	r3, [r7, #4]
 800213c:	689b      	ldr	r3, [r3, #8]
 800213e:	2b00      	cmp	r3, #0
  /* Refer to header of this file for more details on clock enabling          */
  /* procedure.                                                               */

  /* Actions performed only if ADC is coming from state reset:                */
  /* - Initialization of ADC MSP                                              */
  if (hadc->State == HAL_ADC_STATE_RESET)
 8002140:	687b      	ldr	r3, [r7, #4]
 8002142:	6a9b      	ldr	r3, [r3, #40]	@ 0x28
 8002144:	2b00      	cmp	r3, #0
 8002146:	d109      	bne.n	800215c <HAL_ADC_Init+0x44>
  {
    /* Initialize ADC error code */
    ADC_CLEAR_ERRORCODE(hadc);
 8002148:	687b      	ldr	r3, [r7, #4]
 800214a:	2200      	movs	r2, #0
 800214c:	62da      	str	r2, [r3, #44]	@ 0x2c
    
    /* Allocate lock resource and initialize it */
    hadc->Lock = HAL_UNLOCKED;
 800214e:	687b      	ldr	r3, [r7, #4]
 8002150:	2200      	movs	r2, #0
 8002152:	f883 2024 	strb.w	r2, [r3, #36]	@ 0x24
    
    /* Init the low level hardware */
    hadc->MspInitCallback(hadc);
#else
    /* Init the low level hardware */
    HAL_ADC_MspInit(hadc);
 8002156:	6878      	ldr	r0, [r7, #4]
 8002158:	f7ff fce8 	bl	8001b2c <HAL_ADC_MspInit>
  /* Stop potential conversion on going, on regular and injected groups */
  /* Disable ADC peripheral */
  /* Note: In case of ADC already enabled, precaution to not launch an        */
  /*       unwanted conversion while modifying register CR2 by writing 1 to   */
  /*       bit ADON.                                                          */
  tmp_hal_status = ADC_ConversionStop_Disable(hadc);
 800215c:	6878      	ldr	r0, [r7, #4]
 800215e:	f000 fcc3 	bl	8002ae8 <ADC_ConversionStop_Disable>
 8002162:	4603      	mov	r3, r0
 8002164:	75fb      	strb	r3, [r7, #23]
  
  
  /* Configuration of ADC parameters if previous preliminary actions are      */ 
  /* correctly completed.                                                     */
  if (HAL_IS_BIT_CLR(hadc->State, HAL_ADC_STATE_ERROR_INTERNAL) &&
 8002166:	687b      	ldr	r3, [r7, #4]
 8002168:	6a9b      	ldr	r3, [r3, #40]	@ 0x28
 800216a:	f003 0310 	and.w	r3, r3, #16
 800216e:	2b00      	cmp	r3, #0
 8002170:	f040 8099 	bne.w	80022a6 <HAL_ADC_Init+0x18e>
 8002174:	7dfb      	ldrb	r3, [r7, #23]
 8002176:	2b00      	cmp	r3, #0
 8002178:	f040 8095 	bne.w	80022a6 <HAL_ADC_Init+0x18e>
      (tmp_hal_status == HAL_OK)                                  )
  {
    /* Set ADC state */
    ADC_STATE_CLR_SET(hadc->State,
 800217c:	687b      	ldr	r3, [r7, #4]
 800217e:	6a9b      	ldr	r3, [r3, #40]	@ 0x28
 8002180:	f423 5388 	bic.w	r3, r3, #4352	@ 0x1100
 8002184:	f023 0302 	bic.w	r3, r3, #2
 8002188:	f043 0202 	orr.w	r2, r3, #2
 800218c:	687b      	ldr	r3, [r7, #4]
 800218e:	629a      	str	r2, [r3, #40]	@ 0x28
    /*  - continuous conversion mode                                          */
    /* Note: External trigger polarity (ADC_CR2_EXTTRIG) is set into          */
    /*       HAL_ADC_Start_xxx functions because if set in this function,     */
    /*       a conversion on injected group would start a conversion also on  */
    /*       regular group after ADC enabling.                                */
    tmp_cr2 |= (hadc->Init.DataAlign                                          |
 8002190:	687b      	ldr	r3, [r7, #4]
 8002192:	685a      	ldr	r2, [r3, #4]
                ADC_CFGR_EXTSEL(hadc, hadc->Init.ExternalTrigConv)            |
 8002194:	687b      	ldr	r3, [r7, #4]
 8002196:	69db      	ldr	r3, [r3, #28]
    tmp_cr2 |= (hadc->Init.DataAlign                                          |
 8002198:	431a      	orrs	r2, r3
                ADC_CR2_CONTINUOUS((uint32_t)hadc->Init.ContinuousConvMode)   );
 800219a:	687b      	ldr	r3, [r7, #4]
 800219c:	7b1b      	ldrb	r3, [r3, #12]
 800219e:	005b      	lsls	r3, r3, #1
                ADC_CFGR_EXTSEL(hadc, hadc->Init.ExternalTrigConv)            |
 80021a0:	4313      	orrs	r3, r2
    tmp_cr2 |= (hadc->Init.DataAlign                                          |
 80021a2:	68ba      	ldr	r2, [r7, #8]
 80021a4:	4313      	orrs	r3, r2
 80021a6:	60bb      	str	r3, [r7, #8]

    /* Configuration of ADC:                                                  */
    /*  - scan mode                                                           */
    /*  - discontinuous mode disable/enable                                   */
    /*  - discontinuous mode number of conversions                            */
    tmp_cr1 |= (ADC_CR1_SCAN_SET(hadc->Init.ScanConvMode));
 80021a8:	687b      	ldr	r3, [r7, #4]
 80021aa:	689b      	ldr	r3, [r3, #8]
 80021ac:	f5b3 7f80 	cmp.w	r3, #256	@ 0x100
 80021b0:	d003      	beq.n	80021ba <HAL_ADC_Init+0xa2>
 80021b2:	687b      	ldr	r3, [r7, #4]
 80021b4:	689b      	ldr	r3, [r3, #8]
 80021b6:	2b01      	cmp	r3, #1
 80021b8:	d102      	bne.n	80021c0 <HAL_ADC_Init+0xa8>
 80021ba:	f44f 7380 	mov.w	r3, #256	@ 0x100
 80021be:	e000      	b.n	80021c2 <HAL_ADC_Init+0xaa>
 80021c0:	2300      	movs	r3, #0
 80021c2:	693a      	ldr	r2, [r7, #16]
 80021c4:	4313      	orrs	r3, r2
 80021c6:	613b      	str	r3, [r7, #16]
    
    /* Enable discontinuous mode only if continuous mode is disabled */
    /* Note: If parameter "Init.ScanConvMode" is set to disable, parameter    */
    /*       discontinuous is set anyway, but will have no effect on ADC HW.  */
    if (hadc->Init.DiscontinuousConvMode == ENABLE)
 80021c8:	687b      	ldr	r3, [r7, #4]
 80021ca:	7d1b      	ldrb	r3, [r3, #20]
 80021cc:	2b01      	cmp	r3, #1
 80021ce:	d119      	bne.n	8002204 <HAL_ADC_Init+0xec>
    {
      if (hadc->Init.ContinuousConvMode == DISABLE)
 80021d0:	687b      	ldr	r3, [r7, #4]
 80021d2:	7b1b      	ldrb	r3, [r3, #12]
 80021d4:	2b00      	cmp	r3, #0
 80021d6:	d109      	bne.n	80021ec <HAL_ADC_Init+0xd4>
      {
        /* Enable the selected ADC regular discontinuous mode */
        /* Set the number of channels to be converted in discontinuous mode */
        SET_BIT(tmp_cr1, ADC_CR1_DISCEN                                            |
 80021d8:	687b      	ldr	r3, [r7, #4]
 80021da:	699b      	ldr	r3, [r3, #24]
 80021dc:	3b01      	subs	r3, #1
 80021de:	035a      	lsls	r2, r3, #13
 80021e0:	693b      	ldr	r3, [r7, #16]
 80021e2:	4313      	orrs	r3, r2
 80021e4:	f443 6300 	orr.w	r3, r3, #2048	@ 0x800
 80021e8:	613b      	str	r3, [r7, #16]
 80021ea:	e00b      	b.n	8002204 <HAL_ADC_Init+0xec>
      {
        /* ADC regular group settings continuous and sequencer discontinuous*/
        /* cannot be enabled simultaneously.                                */
        
        /* Update ADC state machine to error */
        SET_BIT(hadc->State, HAL_ADC_STATE_ERROR_CONFIG);
 80021ec:	687b      	ldr	r3, [r7, #4]
 80021ee:	6a9b      	ldr	r3, [r3, #40]	@ 0x28
 80021f0:	f043 0220 	orr.w	r2, r3, #32
 80021f4:	687b      	ldr	r3, [r7, #4]
 80021f6:	629a      	str	r2, [r3, #40]	@ 0x28
        
        /* Set ADC error code to ADC IP internal error */
        SET_BIT(hadc->ErrorCode, HAL_ADC_ERROR_INTERNAL);
 80021f8:	687b      	ldr	r3, [r7, #4]
 80021fa:	6adb      	ldr	r3, [r3, #44]	@ 0x2c
 80021fc:	f043 0201 	orr.w	r2, r3, #1
 8002200:	687b      	ldr	r3, [r7, #4]
 8002202:	62da      	str	r2, [r3, #44]	@ 0x2c
      }
    }
    
    /* Update ADC configuration register CR1 with previous settings */
      MODIFY_REG(hadc->Instance->CR1,
 8002204:	687b      	ldr	r3, [r7, #4]
 8002206:	681b      	ldr	r3, [r3, #0]
 8002208:	685b      	ldr	r3, [r3, #4]
 800220a:	f423 4169 	bic.w	r1, r3, #59648	@ 0xe900
 800220e:	687b      	ldr	r3, [r7, #4]
 8002210:	681b      	ldr	r3, [r3, #0]
 8002212:	693a      	ldr	r2, [r7, #16]
 8002214:	430a      	orrs	r2, r1
 8002216:	605a      	str	r2, [r3, #4]
                 ADC_CR1_DISCEN  |
                 ADC_CR1_DISCNUM    ,
                 tmp_cr1             );
    
    /* Update ADC configuration register CR2 with previous settings */
      MODIFY_REG(hadc->Instance->CR2,
 8002218:	687b      	ldr	r3, [r7, #4]
 800221a:	681b      	ldr	r3, [r3, #0]
 800221c:	689a      	ldr	r2, [r3, #8]
 800221e:	4b28      	ldr	r3, [pc, #160]	@ (80022c0 <HAL_ADC_Init+0x1a8>)
 8002220:	4013      	ands	r3, r2
 8002222:	687a      	ldr	r2, [r7, #4]
 8002224:	6812      	ldr	r2, [r2, #0]
 8002226:	68b9      	ldr	r1, [r7, #8]
 8002228:	430b      	orrs	r3, r1
 800222a:	6093      	str	r3, [r2, #8]
    /*   Note: Scan mode is present by hardware on this device and, if        */
    /*   disabled, discards automatically nb of conversions. Anyway, nb of    */
    /*   conversions is forced to 0x00 for alignment over all STM32 devices.  */
    /* - if scan mode is enabled, regular channels sequence length is set to  */
    /*   parameter "NbrOfConversion"                                          */
    if (ADC_CR1_SCAN_SET(hadc->Init.ScanConvMode) == ADC_SCAN_ENABLE)
 800222c:	687b      	ldr	r3, [r7, #4]
 800222e:	689b      	ldr	r3, [r3, #8]
 8002230:	f5b3 7f80 	cmp.w	r3, #256	@ 0x100
 8002234:	d003      	beq.n	800223e <HAL_ADC_Init+0x126>
 8002236:	687b      	ldr	r3, [r7, #4]
 8002238:	689b      	ldr	r3, [r3, #8]
 800223a:	2b01      	cmp	r3, #1
 800223c:	d104      	bne.n	8002248 <HAL_ADC_Init+0x130>
    {
      tmp_sqr1 = ADC_SQR1_L_SHIFT(hadc->Init.NbrOfConversion);
 800223e:	687b      	ldr	r3, [r7, #4]
 8002240:	691b      	ldr	r3, [r3, #16]
 8002242:	3b01      	subs	r3, #1
 8002244:	051b      	lsls	r3, r3, #20
 8002246:	60fb      	str	r3, [r7, #12]
    }
      
    MODIFY_REG(hadc->Instance->SQR1,
 8002248:	687b      	ldr	r3, [r7, #4]
 800224a:	681b      	ldr	r3, [r3, #0]
 800224c:	6adb      	ldr	r3, [r3, #44]	@ 0x2c
 800224e:	f423 0170 	bic.w	r1, r3, #15728640	@ 0xf00000
 8002252:	687b      	ldr	r3, [r7, #4]
 8002254:	681b      	ldr	r3, [r3, #0]
 8002256:	68fa      	ldr	r2, [r7, #12]
 8002258:	430a      	orrs	r2, r1
 800225a:	62da      	str	r2, [r3, #44]	@ 0x2c
    /* ensure of no potential problem of ADC core IP clocking.                */
    /* Check through register CR2 (excluding bits set in other functions:     */
    /* execution control bits (ADON, JSWSTART, SWSTART), regular group bits   */
    /* (DMA), injected group bits (JEXTTRIG and JEXTSEL), channel internal    */
    /* measurement path bit (TSVREFE).                                        */
    if (READ_BIT(hadc->Instance->CR2, ~(ADC_CR2_ADON | ADC_CR2_DMA |
 800225c:	687b      	ldr	r3, [r7, #4]
 800225e:	681b      	ldr	r3, [r3, #0]
 8002260:	689a      	ldr	r2, [r3, #8]
 8002262:	4b18      	ldr	r3, [pc, #96]	@ (80022c4 <HAL_ADC_Init+0x1ac>)
 8002264:	4013      	ands	r3, r2
 8002266:	68ba      	ldr	r2, [r7, #8]
 8002268:	429a      	cmp	r2, r3
 800226a:	d10b      	bne.n	8002284 <HAL_ADC_Init+0x16c>
                                        ADC_CR2_JEXTTRIG | ADC_CR2_JEXTSEL |
                                        ADC_CR2_TSVREFE                     ))
         == tmp_cr2)
    {
      /* Set ADC error code to none */
      ADC_CLEAR_ERRORCODE(hadc);
 800226c:	687b      	ldr	r3, [r7, #4]
 800226e:	2200      	movs	r2, #0
 8002270:	62da      	str	r2, [r3, #44]	@ 0x2c
      
      /* Set the ADC state */
      ADC_STATE_CLR_SET(hadc->State,
 8002272:	687b      	ldr	r3, [r7, #4]
 8002274:	6a9b      	ldr	r3, [r3, #40]	@ 0x28
 8002276:	f023 0303 	bic.w	r3, r3, #3
 800227a:	f043 0201 	orr.w	r2, r3, #1
 800227e:	687b      	ldr	r3, [r7, #4]
 8002280:	629a      	str	r2, [r3, #40]	@ 0x28
    if (READ_BIT(hadc->Instance->CR2, ~(ADC_CR2_ADON | ADC_CR2_DMA |
 8002282:	e018      	b.n	80022b6 <HAL_ADC_Init+0x19e>
                        HAL_ADC_STATE_READY);
    }
    else
    {
      /* Update ADC state machine to error */
      ADC_STATE_CLR_SET(hadc->State,
 8002284:	687b      	ldr	r3, [r7, #4]
 8002286:	6a9b      	ldr	r3, [r3, #40]	@ 0x28
 8002288:	f023 0312 	bic.w	r3, r3, #18
 800228c:	f043 0210 	orr.w	r2, r3, #16
 8002290:	687b      	ldr	r3, [r7, #4]
 8002292:	629a      	str	r2, [r3, #40]	@ 0x28
                        HAL_ADC_STATE_BUSY_INTERNAL,
                        HAL_ADC_STATE_ERROR_INTERNAL);
      
      /* Set ADC error code to ADC IP internal error */
      SET_BIT(hadc->ErrorCode, HAL_ADC_ERROR_INTERNAL);
 8002294:	687b      	ldr	r3, [r7, #4]
 8002296:	6adb      	ldr	r3, [r3, #44]	@ 0x2c
 8002298:	f043 0201 	orr.w	r2, r3, #1
 800229c:	687b      	ldr	r3, [r7, #4]
 800229e:	62da      	str	r2, [r3, #44]	@ 0x2c
      
      tmp_hal_status = HAL_ERROR;
 80022a0:	2301      	movs	r3, #1
 80022a2:	75fb      	strb	r3, [r7, #23]
    if (READ_BIT(hadc->Instance->CR2, ~(ADC_CR2_ADON | ADC_CR2_DMA |
 80022a4:	e007      	b.n	80022b6 <HAL_ADC_Init+0x19e>
  
  }
  else
  {
    /* Update ADC state machine to error */
    SET_BIT(hadc->State, HAL_ADC_STATE_ERROR_INTERNAL);
 80022a6:	687b      	ldr	r3, [r7, #4]
 80022a8:	6a9b      	ldr	r3, [r3, #40]	@ 0x28
 80022aa:	f043 0210 	orr.w	r2, r3, #16
 80022ae:	687b      	ldr	r3, [r7, #4]
 80022b0:	629a      	str	r2, [r3, #40]	@ 0x28
        
    tmp_hal_status = HAL_ERROR;
 80022b2:	2301      	movs	r3, #1
 80022b4:	75fb      	strb	r3, [r7, #23]
  }
  
  /* Return function status */
  return tmp_hal_status;
 80022b6:	7dfb      	ldrb	r3, [r7, #23]
}
 80022b8:	4618      	mov	r0, r3
 80022ba:	3718      	adds	r7, #24
 80022bc:	46bd      	mov	sp, r7
 80022be:	bd80      	pop	{r7, pc}
 80022c0:	ffe1f7fd 	.word	0xffe1f7fd
 80022c4:	ff1f0efe 	.word	0xff1f0efe

080022c8 <HAL_ADC_Start>:
  *         Interruptions enabled in this function: None.
  * @param  hadc: ADC handle
  * @retval HAL status
  */
HAL_StatusTypeDef HAL_ADC_Start(ADC_HandleTypeDef* hadc)
{
 80022c8:	b580      	push	{r7, lr}
 80022ca:	b084      	sub	sp, #16
 80022cc:	af00      	add	r7, sp, #0
 80022ce:	6078      	str	r0, [r7, #4]
  HAL_StatusTypeDef tmp_hal_status = HAL_OK;
 80022d0:	2300      	movs	r3, #0
 80022d2:	73fb      	strb	r3, [r7, #15]
  
  /* Check the parameters */
  assert_param(IS_ADC_ALL_INSTANCE(hadc->Instance));
  
  /* Process locked */
  __HAL_LOCK(hadc);
 80022d4:	687b      	ldr	r3, [r7, #4]
 80022d6:	f893 3024 	ldrb.w	r3, [r3, #36]	@ 0x24
 80022da:	2b01      	cmp	r3, #1
 80022dc:	d101      	bne.n	80022e2 <HAL_ADC_Start+0x1a>
 80022de:	2302      	movs	r3, #2
 80022e0:	e098      	b.n	8002414 <HAL_ADC_Start+0x14c>
 80022e2:	687b      	ldr	r3, [r7, #4]
 80022e4:	2201      	movs	r2, #1
 80022e6:	f883 2024 	strb.w	r2, [r3, #36]	@ 0x24
   
  /* Enable the ADC peripheral */
  tmp_hal_status = ADC_Enable(hadc);
 80022ea:	6878      	ldr	r0, [r7, #4]
 80022ec:	f000 fba2 	bl	8002a34 <ADC_Enable>
 80022f0:	4603      	mov	r3, r0
 80022f2:	73fb      	strb	r3, [r7, #15]
  
  /* Start conversion if ADC is effectively enabled */
  if (tmp_hal_status == HAL_OK)
 80022f4:	7bfb      	ldrb	r3, [r7, #15]
 80022f6:	2b00      	cmp	r3, #0
 80022f8:	f040 8087 	bne.w	800240a <HAL_ADC_Start+0x142>
  {
    /* Set ADC state                                                          */
    /* - Clear state bitfield related to regular group conversion results     */
    /* - Set state bitfield related to regular operation                      */
    ADC_STATE_CLR_SET(hadc->State,
 80022fc:	687b      	ldr	r3, [r7, #4]
 80022fe:	6a9b      	ldr	r3, [r3, #40]	@ 0x28
 8002300:	f423 7340 	bic.w	r3, r3, #768	@ 0x300
 8002304:	f023 0301 	bic.w	r3, r3, #1
 8002308:	f443 7280 	orr.w	r2, r3, #256	@ 0x100
 800230c:	687b      	ldr	r3, [r7, #4]
 800230e:	629a      	str	r2, [r3, #40]	@ 0x28
                      HAL_ADC_STATE_REG_BUSY);
    
    /* Set group injected state (from auto-injection) and multimode state     */
    /* for all cases of multimode: independent mode, multimode ADC master     */
    /* or multimode ADC slave (for devices with several ADCs):                */
    if (ADC_NONMULTIMODE_OR_MULTIMODEMASTER(hadc))
 8002310:	687b      	ldr	r3, [r7, #4]
 8002312:	681b      	ldr	r3, [r3, #0]
 8002314:	4a41      	ldr	r2, [pc, #260]	@ (800241c <HAL_ADC_Start+0x154>)
 8002316:	4293      	cmp	r3, r2
 8002318:	d105      	bne.n	8002326 <HAL_ADC_Start+0x5e>
 800231a:	4b41      	ldr	r3, [pc, #260]	@ (8002420 <HAL_ADC_Start+0x158>)
 800231c:	685b      	ldr	r3, [r3, #4]
 800231e:	f403 2370 	and.w	r3, r3, #983040	@ 0xf0000
 8002322:	2b00      	cmp	r3, #0
 8002324:	d115      	bne.n	8002352 <HAL_ADC_Start+0x8a>
    {
      /* Set ADC state (ADC independent or master) */
      CLEAR_BIT(hadc->State, HAL_ADC_STATE_MULTIMODE_SLAVE);
 8002326:	687b      	ldr	r3, [r7, #4]
 8002328:	6a9b      	ldr	r3, [r3, #40]	@ 0x28
 800232a:	f423 1280 	bic.w	r2, r3, #1048576	@ 0x100000
 800232e:	687b      	ldr	r3, [r7, #4]
 8002330:	629a      	str	r2, [r3, #40]	@ 0x28
      
      /* If conversions on group regular are also triggering group injected,  */
      /* update ADC state.                                                    */
      if (READ_BIT(hadc->Instance->CR1, ADC_CR1_JAUTO) != RESET)
 8002332:	687b      	ldr	r3, [r7, #4]
 8002334:	681b      	ldr	r3, [r3, #0]
 8002336:	685b      	ldr	r3, [r3, #4]
 8002338:	f403 6380 	and.w	r3, r3, #1024	@ 0x400
 800233c:	2b00      	cmp	r3, #0
 800233e:	d026      	beq.n	800238e <HAL_ADC_Start+0xc6>
      {
        ADC_STATE_CLR_SET(hadc->State, HAL_ADC_STATE_INJ_EOC, HAL_ADC_STATE_INJ_BUSY);  
 8002340:	687b      	ldr	r3, [r7, #4]
 8002342:	6a9b      	ldr	r3, [r3, #40]	@ 0x28
 8002344:	f423 5340 	bic.w	r3, r3, #12288	@ 0x3000
 8002348:	f443 5280 	orr.w	r2, r3, #4096	@ 0x1000
 800234c:	687b      	ldr	r3, [r7, #4]
 800234e:	629a      	str	r2, [r3, #40]	@ 0x28
      if (READ_BIT(hadc->Instance->CR1, ADC_CR1_JAUTO) != RESET)
 8002350:	e01d      	b.n	800238e <HAL_ADC_Start+0xc6>
      }
    }
    else
    {
      /* Set ADC state (ADC slave) */
      SET_BIT(hadc->State, HAL_ADC_STATE_MULTIMODE_SLAVE);
 8002352:	687b      	ldr	r3, [r7, #4]
 8002354:	6a9b      	ldr	r3, [r3, #40]	@ 0x28
 8002356:	f443 1280 	orr.w	r2, r3, #1048576	@ 0x100000
 800235a:	687b      	ldr	r3, [r7, #4]
 800235c:	629a      	str	r2, [r3, #40]	@ 0x28
      
      /* If conversions on group regular are also triggering group injected,  */
      /* update ADC state.                                                    */
      if (ADC_MULTIMODE_AUTO_INJECTED(hadc))
 800235e:	687b      	ldr	r3, [r7, #4]
 8002360:	681b      	ldr	r3, [r3, #0]
 8002362:	4a2f      	ldr	r2, [pc, #188]	@ (8002420 <HAL_ADC_Start+0x158>)
 8002364:	4293      	cmp	r3, r2
 8002366:	d004      	beq.n	8002372 <HAL_ADC_Start+0xaa>
 8002368:	687b      	ldr	r3, [r7, #4]
 800236a:	681b      	ldr	r3, [r3, #0]
 800236c:	4a2b      	ldr	r2, [pc, #172]	@ (800241c <HAL_ADC_Start+0x154>)
 800236e:	4293      	cmp	r3, r2
 8002370:	d10d      	bne.n	800238e <HAL_ADC_Start+0xc6>
 8002372:	4b2b      	ldr	r3, [pc, #172]	@ (8002420 <HAL_ADC_Start+0x158>)
 8002374:	685b      	ldr	r3, [r3, #4]
 8002376:	f403 6380 	and.w	r3, r3, #1024	@ 0x400
 800237a:	2b00      	cmp	r3, #0
 800237c:	d007      	beq.n	800238e <HAL_ADC_Start+0xc6>
      {
        ADC_STATE_CLR_SET(hadc->State, HAL_ADC_STATE_INJ_EOC, HAL_ADC_STATE_INJ_BUSY);
 800237e:	687b      	ldr	r3, [r7, #4]
 8002380:	6a9b      	ldr	r3, [r3, #40]	@ 0x28
 8002382:	f423 5340 	bic.w	r3, r3, #12288	@ 0x3000
 8002386:	f443 5280 	orr.w	r2, r3, #4096	@ 0x1000
 800238a:	687b      	ldr	r3, [r7, #4]
 800238c:	629a      	str	r2, [r3, #40]	@ 0x28
      }
    }
    
    /* State machine update: Check if an injected conversion is ongoing */
    if (HAL_IS_BIT_SET(hadc->State, HAL_ADC_STATE_INJ_BUSY))
 800238e:	687b      	ldr	r3, [r7, #4]
 8002390:	6a9b      	ldr	r3, [r3, #40]	@ 0x28
 8002392:	f403 5380 	and.w	r3, r3, #4096	@ 0x1000
 8002396:	2b00      	cmp	r3, #0
 8002398:	d006      	beq.n	80023a8 <HAL_ADC_Start+0xe0>
    {
      /* Reset ADC error code fields related to conversions on group regular */
      CLEAR_BIT(hadc->ErrorCode, (HAL_ADC_ERROR_OVR | HAL_ADC_ERROR_DMA));         
 800239a:	687b      	ldr	r3, [r7, #4]
 800239c:	6adb      	ldr	r3, [r3, #44]	@ 0x2c
 800239e:	f023 0206 	bic.w	r2, r3, #6
 80023a2:	687b      	ldr	r3, [r7, #4]
 80023a4:	62da      	str	r2, [r3, #44]	@ 0x2c
 80023a6:	e002      	b.n	80023ae <HAL_ADC_Start+0xe6>
    }
    else
    {
      /* Reset ADC all error code fields */
      ADC_CLEAR_ERRORCODE(hadc);
 80023a8:	687b      	ldr	r3, [r7, #4]
 80023aa:	2200      	movs	r2, #0
 80023ac:	62da      	str	r2, [r3, #44]	@ 0x2c
    }
    
    /* Process unlocked */
    /* Unlock before starting ADC conversions: in case of potential           */
    /* interruption, to let the process to ADC IRQ Handler.                   */
    __HAL_UNLOCK(hadc);
 80023ae:	687b      	ldr	r3, [r7, #4]
 80023b0:	2200      	movs	r2, #0
 80023b2:	f883 2024 	strb.w	r2, [r3, #36]	@ 0x24
  
    /* Clear regular group conversion flag */
    /* (To ensure of no unknown state from potential previous ADC operations) */
    __HAL_ADC_CLEAR_FLAG(hadc, ADC_FLAG_EOC);
 80023b6:	687b      	ldr	r3, [r7, #4]
 80023b8:	681b      	ldr	r3, [r3, #0]
 80023ba:	f06f 0202 	mvn.w	r2, #2
 80023be:	601a      	str	r2, [r3, #0]
    /*  - if ADC is slave, ADC is enabled only (conversion is not started).   */
    /*  - if ADC is master, ADC is enabled and conversion is started.         */
    /* If ADC is master, ADC is enabled and conversion is started.            */
    /* Note: Alternate trigger for single conversion could be to force an     */
    /*       additional set of bit ADON "hadc->Instance->CR2 |= ADC_CR2_ADON;"*/
    if (ADC_IS_SOFTWARE_START_REGULAR(hadc)      &&
 80023c0:	687b      	ldr	r3, [r7, #4]
 80023c2:	681b      	ldr	r3, [r3, #0]
 80023c4:	689b      	ldr	r3, [r3, #8]
 80023c6:	f403 2360 	and.w	r3, r3, #917504	@ 0xe0000
 80023ca:	f5b3 2f60 	cmp.w	r3, #917504	@ 0xe0000
 80023ce:	d113      	bne.n	80023f8 <HAL_ADC_Start+0x130>
        ADC_NONMULTIMODE_OR_MULTIMODEMASTER(hadc)  )
 80023d0:	687b      	ldr	r3, [r7, #4]
 80023d2:	681b      	ldr	r3, [r3, #0]
    if (ADC_IS_SOFTWARE_START_REGULAR(hadc)      &&
 80023d4:	4a11      	ldr	r2, [pc, #68]	@ (800241c <HAL_ADC_Start+0x154>)
 80023d6:	4293      	cmp	r3, r2
 80023d8:	d105      	bne.n	80023e6 <HAL_ADC_Start+0x11e>
        ADC_NONMULTIMODE_OR_MULTIMODEMASTER(hadc)  )
 80023da:	4b11      	ldr	r3, [pc, #68]	@ (8002420 <HAL_ADC_Start+0x158>)
 80023dc:	685b      	ldr	r3, [r3, #4]
 80023de:	f403 2370 	and.w	r3, r3, #983040	@ 0xf0000
    if (ADC_IS_SOFTWARE_START_REGULAR(hadc)      &&
 80023e2:	2b00      	cmp	r3, #0
 80023e4:	d108      	bne.n	80023f8 <HAL_ADC_Start+0x130>
    {
      /* Start ADC conversion on regular group with SW start */
      SET_BIT(hadc->Instance->CR2, (ADC_CR2_SWSTART | ADC_CR2_EXTTRIG));
 80023e6:	687b      	ldr	r3, [r7, #4]
 80023e8:	681b      	ldr	r3, [r3, #0]
 80023ea:	689a      	ldr	r2, [r3, #8]
 80023ec:	687b      	ldr	r3, [r7, #4]
 80023ee:	681b      	ldr	r3, [r3, #0]
 80023f0:	f442 02a0 	orr.w	r2, r2, #5242880	@ 0x500000
 80023f4:	609a      	str	r2, [r3, #8]
 80023f6:	e00c      	b.n	8002412 <HAL_ADC_Start+0x14a>
    }
    else
    {
      /* Start ADC conversion on regular group with external trigger */
      SET_BIT(hadc->Instance->CR2, ADC_CR2_EXTTRIG);
 80023f8:	687b      	ldr	r3, [r7, #4]
 80023fa:	681b      	ldr	r3, [r3, #0]
 80023fc:	689a      	ldr	r2, [r3, #8]
 80023fe:	687b      	ldr	r3, [r7, #4]
 8002400:	681b      	ldr	r3, [r3, #0]
 8002402:	f442 1280 	orr.w	r2, r2, #1048576	@ 0x100000
 8002406:	609a      	str	r2, [r3, #8]
 8002408:	e003      	b.n	8002412 <HAL_ADC_Start+0x14a>
    }
  }
  else
  {
    /* Process unlocked */
    __HAL_UNLOCK(hadc);
 800240a:	687b      	ldr	r3, [r7, #4]
 800240c:	2200      	movs	r2, #0
 800240e:	f883 2024 	strb.w	r2, [r3, #36]	@ 0x24
  }
    
  /* Return function status */
  return tmp_hal_status;
 8002412:	7bfb      	ldrb	r3, [r7, #15]
}
 8002414:	4618      	mov	r0, r3
 8002416:	3710      	adds	r7, #16
 8002418:	46bd      	mov	sp, r7
 800241a:	bd80      	pop	{r7, pc}
 800241c:	40012800 	.word	0x40012800
 8002420:	40012400 	.word	0x40012400

08002424 <HAL_ADC_Stop>:
  *         should be preliminarily stopped using HAL_ADCEx_InjectedStop function.
  * @param  hadc: ADC handle
  * @retval HAL status.
  */
HAL_StatusTypeDef HAL_ADC_Stop(ADC_HandleTypeDef* hadc)
{
 8002424:	b580      	push	{r7, lr}
 8002426:	b084      	sub	sp, #16
 8002428:	af00      	add	r7, sp, #0
 800242a:	6078      	str	r0, [r7, #4]
  HAL_StatusTypeDef tmp_hal_status = HAL_OK;
 800242c:	2300      	movs	r3, #0
 800242e:	73fb      	strb	r3, [r7, #15]
  
  /* Check the parameters */
  assert_param(IS_ADC_ALL_INSTANCE(hadc->Instance));
     
  /* Process locked */
  __HAL_LOCK(hadc);
 8002430:	687b      	ldr	r3, [r7, #4]
 8002432:	f893 3024 	ldrb.w	r3, [r3, #36]	@ 0x24
 8002436:	2b01      	cmp	r3, #1
 8002438:	d101      	bne.n	800243e <HAL_ADC_Stop+0x1a>
 800243a:	2302      	movs	r3, #2
 800243c:	e01a      	b.n	8002474 <HAL_ADC_Stop+0x50>
 800243e:	687b      	ldr	r3, [r7, #4]
 8002440:	2201      	movs	r2, #1
 8002442:	f883 2024 	strb.w	r2, [r3, #36]	@ 0x24
  
  /* Stop potential conversion on going, on regular and injected groups */
  /* Disable ADC peripheral */
  tmp_hal_status = ADC_ConversionStop_Disable(hadc);
 8002446:	6878      	ldr	r0, [r7, #4]
 8002448:	f000 fb4e 	bl	8002ae8 <ADC_ConversionStop_Disable>
 800244c:	4603      	mov	r3, r0
 800244e:	73fb      	strb	r3, [r7, #15]
  
  /* Check if ADC is effectively disabled */
  if (tmp_hal_status == HAL_OK)
 8002450:	7bfb      	ldrb	r3, [r7, #15]
 8002452:	2b00      	cmp	r3, #0
 8002454:	d109      	bne.n	800246a <HAL_ADC_Stop+0x46>
  {
    /* Set ADC state */
    ADC_STATE_CLR_SET(hadc->State,
 8002456:	687b      	ldr	r3, [r7, #4]
 8002458:	6a9b      	ldr	r3, [r3, #40]	@ 0x28
 800245a:	f423 5388 	bic.w	r3, r3, #4352	@ 0x1100
 800245e:	f023 0301 	bic.w	r3, r3, #1
 8002462:	f043 0201 	orr.w	r2, r3, #1
 8002466:	687b      	ldr	r3, [r7, #4]
 8002468:	629a      	str	r2, [r3, #40]	@ 0x28
                      HAL_ADC_STATE_REG_BUSY | HAL_ADC_STATE_INJ_BUSY,
                      HAL_ADC_STATE_READY);
  }
  
  /* Process unlocked */
  __HAL_UNLOCK(hadc);
 800246a:	687b      	ldr	r3, [r7, #4]
 800246c:	2200      	movs	r2, #0
 800246e:	f883 2024 	strb.w	r2, [r3, #36]	@ 0x24
  
  /* Return function status */
  return tmp_hal_status;
 8002472:	7bfb      	ldrb	r3, [r7, #15]
}
 8002474:	4618      	mov	r0, r3
 8002476:	3710      	adds	r7, #16
 8002478:	46bd      	mov	sp, r7
 800247a:	bd80      	pop	{r7, pc}

0800247c <HAL_ADC_PollForConversion>:
  * @param  hadc: ADC handle
  * @param  Timeout: Timeout value in millisecond.
  * @retval HAL status
  */
HAL_StatusTypeDef HAL_ADC_PollForConversion(ADC_HandleTypeDef* hadc, uint32_t Timeout)
{
 800247c:	b590      	push	{r4, r7, lr}
 800247e:	b087      	sub	sp, #28
 8002480:	af00      	add	r7, sp, #0
 8002482:	6078      	str	r0, [r7, #4]
 8002484:	6039      	str	r1, [r7, #0]
  uint32_t tickstart = 0U;
 8002486:	2300      	movs	r3, #0
 8002488:	617b      	str	r3, [r7, #20]
  
  /* Variables for polling in case of scan mode enabled and polling for each  */
  /* conversion.                                                              */
  __IO uint32_t Conversion_Timeout_CPU_cycles = 0U;
 800248a:	2300      	movs	r3, #0
 800248c:	60fb      	str	r3, [r7, #12]
  uint32_t Conversion_Timeout_CPU_cycles_max = 0U;
 800248e:	2300      	movs	r3, #0
 8002490:	613b      	str	r3, [r7, #16]
 
  /* Check the parameters */
  assert_param(IS_ADC_ALL_INSTANCE(hadc->Instance));
  
  /* Get tick count */
  tickstart = HAL_GetTick();
 8002492:	f7ff fe13 	bl	80020bc <HAL_GetTick>
 8002496:	6178      	str	r0, [r7, #20]
  
  /* Verification that ADC configuration is compliant with polling for        */
  /* each conversion:                                                         */
  /* Particular case is ADC configured in DMA mode                            */
  if (HAL_IS_BIT_SET(hadc->Instance->CR2, ADC_CR2_DMA))
 8002498:	687b      	ldr	r3, [r7, #4]
 800249a:	681b      	ldr	r3, [r3, #0]
 800249c:	689b      	ldr	r3, [r3, #8]
 800249e:	f403 7380 	and.w	r3, r3, #256	@ 0x100
 80024a2:	2b00      	cmp	r3, #0
 80024a4:	d00b      	beq.n	80024be <HAL_ADC_PollForConversion+0x42>
  {
    /* Update ADC state machine to error */
    SET_BIT(hadc->State, HAL_ADC_STATE_ERROR_CONFIG);
 80024a6:	687b      	ldr	r3, [r7, #4]
 80024a8:	6a9b      	ldr	r3, [r3, #40]	@ 0x28
 80024aa:	f043 0220 	orr.w	r2, r3, #32
 80024ae:	687b      	ldr	r3, [r7, #4]
 80024b0:	629a      	str	r2, [r3, #40]	@ 0x28
    
    /* Process unlocked */
    __HAL_UNLOCK(hadc);
 80024b2:	687b      	ldr	r3, [r7, #4]
 80024b4:	2200      	movs	r2, #0
 80024b6:	f883 2024 	strb.w	r2, [r3, #36]	@ 0x24
    
    return HAL_ERROR;
 80024ba:	2301      	movs	r3, #1
 80024bc:	e0d3      	b.n	8002666 <HAL_ADC_PollForConversion+0x1ea>
  /*    from ADC conversion time (selected sampling time + conversion time of */
  /*    12.5 ADC clock cycles) and APB2/ADC clock prescalers (depending on    */
  /*    settings, conversion time range can be from 28 to 32256 CPU cycles).  */
  /*    As flag EOC is not set after each conversion, no timeout status can   */
  /*    be set.                                                               */
  if (HAL_IS_BIT_CLR(hadc->Instance->CR1, ADC_CR1_SCAN) &&
 80024be:	687b      	ldr	r3, [r7, #4]
 80024c0:	681b      	ldr	r3, [r3, #0]
 80024c2:	685b      	ldr	r3, [r3, #4]
 80024c4:	f403 7380 	and.w	r3, r3, #256	@ 0x100
 80024c8:	2b00      	cmp	r3, #0
 80024ca:	d131      	bne.n	8002530 <HAL_ADC_PollForConversion+0xb4>
      HAL_IS_BIT_CLR(hadc->Instance->SQR1, ADC_SQR1_L)    )
 80024cc:	687b      	ldr	r3, [r7, #4]
 80024ce:	681b      	ldr	r3, [r3, #0]
 80024d0:	6adb      	ldr	r3, [r3, #44]	@ 0x2c
 80024d2:	f403 0370 	and.w	r3, r3, #15728640	@ 0xf00000
  if (HAL_IS_BIT_CLR(hadc->Instance->CR1, ADC_CR1_SCAN) &&
 80024d6:	2b00      	cmp	r3, #0
 80024d8:	d12a      	bne.n	8002530 <HAL_ADC_PollForConversion+0xb4>
  {
    /* Wait until End of Conversion flag is raised */
    while(HAL_IS_BIT_CLR(hadc->Instance->SR, ADC_FLAG_EOC))
 80024da:	e021      	b.n	8002520 <HAL_ADC_PollForConversion+0xa4>
    {
      /* Check if timeout is disabled (set to infinite wait) */
      if(Timeout != HAL_MAX_DELAY)
 80024dc:	683b      	ldr	r3, [r7, #0]
 80024de:	f1b3 3fff 	cmp.w	r3, #4294967295
 80024e2:	d01d      	beq.n	8002520 <HAL_ADC_PollForConversion+0xa4>
      {
        if((Timeout == 0U) || ((HAL_GetTick() - tickstart ) > Timeout))
 80024e4:	683b      	ldr	r3, [r7, #0]
 80024e6:	2b00      	cmp	r3, #0
 80024e8:	d007      	beq.n	80024fa <HAL_ADC_PollForConversion+0x7e>
 80024ea:	f7ff fde7 	bl	80020bc <HAL_GetTick>
 80024ee:	4602      	mov	r2, r0
 80024f0:	697b      	ldr	r3, [r7, #20]
 80024f2:	1ad3      	subs	r3, r2, r3
 80024f4:	683a      	ldr	r2, [r7, #0]
 80024f6:	429a      	cmp	r2, r3
 80024f8:	d212      	bcs.n	8002520 <HAL_ADC_PollForConversion+0xa4>
        {
          /* New check to avoid false timeout detection in case of preemption */
          if(HAL_IS_BIT_CLR(hadc->Instance->SR, ADC_FLAG_EOC))
 80024fa:	687b      	ldr	r3, [r7, #4]
 80024fc:	681b      	ldr	r3, [r3, #0]
 80024fe:	681b      	ldr	r3, [r3, #0]
 8002500:	f003 0302 	and.w	r3, r3, #2
 8002504:	2b00      	cmp	r3, #0
 8002506:	d10b      	bne.n	8002520 <HAL_ADC_PollForConversion+0xa4>
          {
            /* Update ADC state machine to timeout */
            SET_BIT(hadc->State, HAL_ADC_STATE_TIMEOUT);
 8002508:	687b      	ldr	r3, [r7, #4]
 800250a:	6a9b      	ldr	r3, [r3, #40]	@ 0x28
 800250c:	f043 0204 	orr.w	r2, r3, #4
 8002510:	687b      	ldr	r3, [r7, #4]
 8002512:	629a      	str	r2, [r3, #40]	@ 0x28
            
            /* Process unlocked */
            __HAL_UNLOCK(hadc);
 8002514:	687b      	ldr	r3, [r7, #4]
 8002516:	2200      	movs	r2, #0
 8002518:	f883 2024 	strb.w	r2, [r3, #36]	@ 0x24
            
            return HAL_TIMEOUT;
 800251c:	2303      	movs	r3, #3
 800251e:	e0a2      	b.n	8002666 <HAL_ADC_PollForConversion+0x1ea>
    while(HAL_IS_BIT_CLR(hadc->Instance->SR, ADC_FLAG_EOC))
 8002520:	687b      	ldr	r3, [r7, #4]
 8002522:	681b      	ldr	r3, [r3, #0]
 8002524:	681b      	ldr	r3, [r3, #0]
 8002526:	f003 0302 	and.w	r3, r3, #2
 800252a:	2b00      	cmp	r3, #0
 800252c:	d0d6      	beq.n	80024dc <HAL_ADC_PollForConversion+0x60>
  if (HAL_IS_BIT_CLR(hadc->Instance->CR1, ADC_CR1_SCAN) &&
 800252e:	e070      	b.n	8002612 <HAL_ADC_PollForConversion+0x196>
    /* Replace polling by wait for maximum conversion time */
    /*  - Computation of CPU clock cycles corresponding to ADC clock cycles   */
    /*    and ADC maximum conversion cycles on all channels.                  */
    /*  - Wait for the expected ADC clock cycles delay                        */
    Conversion_Timeout_CPU_cycles_max = ((SystemCoreClock
                                          / HAL_RCCEx_GetPeriphCLKFreq(RCC_PERIPHCLK_ADC))
 8002530:	4b4f      	ldr	r3, [pc, #316]	@ (8002670 <HAL_ADC_PollForConversion+0x1f4>)
 8002532:	681c      	ldr	r4, [r3, #0]
 8002534:	2002      	movs	r0, #2
 8002536:	f001 fc2d 	bl	8003d94 <HAL_RCCEx_GetPeriphCLKFreq>
 800253a:	4603      	mov	r3, r0
 800253c:	fbb4 f2f3 	udiv	r2, r4, r3
                                         * ADC_CONVCYCLES_MAX_RANGE(hadc)                 );
 8002540:	687b      	ldr	r3, [r7, #4]
 8002542:	681b      	ldr	r3, [r3, #0]
 8002544:	6919      	ldr	r1, [r3, #16]
 8002546:	4b4b      	ldr	r3, [pc, #300]	@ (8002674 <HAL_ADC_PollForConversion+0x1f8>)
 8002548:	400b      	ands	r3, r1
 800254a:	2b00      	cmp	r3, #0
 800254c:	d118      	bne.n	8002580 <HAL_ADC_PollForConversion+0x104>
 800254e:	687b      	ldr	r3, [r7, #4]
 8002550:	681b      	ldr	r3, [r3, #0]
 8002552:	68d9      	ldr	r1, [r3, #12]
 8002554:	4b48      	ldr	r3, [pc, #288]	@ (8002678 <HAL_ADC_PollForConversion+0x1fc>)
 8002556:	400b      	ands	r3, r1
 8002558:	2b00      	cmp	r3, #0
 800255a:	d111      	bne.n	8002580 <HAL_ADC_PollForConversion+0x104>
 800255c:	687b      	ldr	r3, [r7, #4]
 800255e:	681b      	ldr	r3, [r3, #0]
 8002560:	6919      	ldr	r1, [r3, #16]
 8002562:	4b46      	ldr	r3, [pc, #280]	@ (800267c <HAL_ADC_PollForConversion+0x200>)
 8002564:	400b      	ands	r3, r1
 8002566:	2b00      	cmp	r3, #0
 8002568:	d108      	bne.n	800257c <HAL_ADC_PollForConversion+0x100>
 800256a:	687b      	ldr	r3, [r7, #4]
 800256c:	681b      	ldr	r3, [r3, #0]
 800256e:	68d9      	ldr	r1, [r3, #12]
 8002570:	4b43      	ldr	r3, [pc, #268]	@ (8002680 <HAL_ADC_PollForConversion+0x204>)
 8002572:	400b      	ands	r3, r1
 8002574:	2b00      	cmp	r3, #0
 8002576:	d101      	bne.n	800257c <HAL_ADC_PollForConversion+0x100>
 8002578:	2314      	movs	r3, #20
 800257a:	e020      	b.n	80025be <HAL_ADC_PollForConversion+0x142>
 800257c:	2329      	movs	r3, #41	@ 0x29
 800257e:	e01e      	b.n	80025be <HAL_ADC_PollForConversion+0x142>
 8002580:	687b      	ldr	r3, [r7, #4]
 8002582:	681b      	ldr	r3, [r3, #0]
 8002584:	6919      	ldr	r1, [r3, #16]
 8002586:	4b3d      	ldr	r3, [pc, #244]	@ (800267c <HAL_ADC_PollForConversion+0x200>)
 8002588:	400b      	ands	r3, r1
 800258a:	2b00      	cmp	r3, #0
 800258c:	d106      	bne.n	800259c <HAL_ADC_PollForConversion+0x120>
 800258e:	687b      	ldr	r3, [r7, #4]
 8002590:	681b      	ldr	r3, [r3, #0]
 8002592:	68d9      	ldr	r1, [r3, #12]
 8002594:	4b3a      	ldr	r3, [pc, #232]	@ (8002680 <HAL_ADC_PollForConversion+0x204>)
 8002596:	400b      	ands	r3, r1
 8002598:	2b00      	cmp	r3, #0
 800259a:	d00d      	beq.n	80025b8 <HAL_ADC_PollForConversion+0x13c>
 800259c:	687b      	ldr	r3, [r7, #4]
 800259e:	681b      	ldr	r3, [r3, #0]
 80025a0:	6919      	ldr	r1, [r3, #16]
 80025a2:	4b38      	ldr	r3, [pc, #224]	@ (8002684 <HAL_ADC_PollForConversion+0x208>)
 80025a4:	400b      	ands	r3, r1
 80025a6:	2b00      	cmp	r3, #0
 80025a8:	d108      	bne.n	80025bc <HAL_ADC_PollForConversion+0x140>
 80025aa:	687b      	ldr	r3, [r7, #4]
 80025ac:	681b      	ldr	r3, [r3, #0]
 80025ae:	68d9      	ldr	r1, [r3, #12]
 80025b0:	4b34      	ldr	r3, [pc, #208]	@ (8002684 <HAL_ADC_PollForConversion+0x208>)
 80025b2:	400b      	ands	r3, r1
 80025b4:	2b00      	cmp	r3, #0
 80025b6:	d101      	bne.n	80025bc <HAL_ADC_PollForConversion+0x140>
 80025b8:	2354      	movs	r3, #84	@ 0x54
 80025ba:	e000      	b.n	80025be <HAL_ADC_PollForConversion+0x142>
 80025bc:	23fc      	movs	r3, #252	@ 0xfc
    Conversion_Timeout_CPU_cycles_max = ((SystemCoreClock
 80025be:	fb02 f303 	mul.w	r3, r2, r3
 80025c2:	613b      	str	r3, [r7, #16]
    
    while(Conversion_Timeout_CPU_cycles < Conversion_Timeout_CPU_cycles_max)
 80025c4:	e021      	b.n	800260a <HAL_ADC_PollForConversion+0x18e>
    {
      /* Check if timeout is disabled (set to infinite wait) */
      if(Timeout != HAL_MAX_DELAY)
 80025c6:	683b      	ldr	r3, [r7, #0]
 80025c8:	f1b3 3fff 	cmp.w	r3, #4294967295
 80025cc:	d01a      	beq.n	8002604 <HAL_ADC_PollForConversion+0x188>
      {
        if((Timeout == 0U) || ((HAL_GetTick() - tickstart) > Timeout))
 80025ce:	683b      	ldr	r3, [r7, #0]
 80025d0:	2b00      	cmp	r3, #0
 80025d2:	d007      	beq.n	80025e4 <HAL_ADC_PollForConversion+0x168>
 80025d4:	f7ff fd72 	bl	80020bc <HAL_GetTick>
 80025d8:	4602      	mov	r2, r0
 80025da:	697b      	ldr	r3, [r7, #20]
 80025dc:	1ad3      	subs	r3, r2, r3
 80025de:	683a      	ldr	r2, [r7, #0]
 80025e0:	429a      	cmp	r2, r3
 80025e2:	d20f      	bcs.n	8002604 <HAL_ADC_PollForConversion+0x188>
        {
          /* New check to avoid false timeout detection in case of preemption */
          if(Conversion_Timeout_CPU_cycles < Conversion_Timeout_CPU_cycles_max)
 80025e4:	68fb      	ldr	r3, [r7, #12]
 80025e6:	693a      	ldr	r2, [r7, #16]
 80025e8:	429a      	cmp	r2, r3
 80025ea:	d90b      	bls.n	8002604 <HAL_ADC_PollForConversion+0x188>
          {
            /* Update ADC state machine to timeout */
            SET_BIT(hadc->State, HAL_ADC_STATE_TIMEOUT);
 80025ec:	687b      	ldr	r3, [r7, #4]
 80025ee:	6a9b      	ldr	r3, [r3, #40]	@ 0x28
 80025f0:	f043 0204 	orr.w	r2, r3, #4
 80025f4:	687b      	ldr	r3, [r7, #4]
 80025f6:	629a      	str	r2, [r3, #40]	@ 0x28

            /* Process unlocked */
            __HAL_UNLOCK(hadc);
 80025f8:	687b      	ldr	r3, [r7, #4]
 80025fa:	2200      	movs	r2, #0
 80025fc:	f883 2024 	strb.w	r2, [r3, #36]	@ 0x24

            return HAL_TIMEOUT;
 8002600:	2303      	movs	r3, #3
 8002602:	e030      	b.n	8002666 <HAL_ADC_PollForConversion+0x1ea>
          }
        }
      }
      Conversion_Timeout_CPU_cycles ++;
 8002604:	68fb      	ldr	r3, [r7, #12]
 8002606:	3301      	adds	r3, #1
 8002608:	60fb      	str	r3, [r7, #12]
    while(Conversion_Timeout_CPU_cycles < Conversion_Timeout_CPU_cycles_max)
 800260a:	68fb      	ldr	r3, [r7, #12]
 800260c:	693a      	ldr	r2, [r7, #16]
 800260e:	429a      	cmp	r2, r3
 8002610:	d8d9      	bhi.n	80025c6 <HAL_ADC_PollForConversion+0x14a>
    }
  }
  
  /* Clear regular group conversion flag */
  __HAL_ADC_CLEAR_FLAG(hadc, ADC_FLAG_STRT | ADC_FLAG_EOC);
 8002612:	687b      	ldr	r3, [r7, #4]
 8002614:	681b      	ldr	r3, [r3, #0]
 8002616:	f06f 0212 	mvn.w	r2, #18
 800261a:	601a      	str	r2, [r3, #0]
  
  /* Update ADC state machine */
  SET_BIT(hadc->State, HAL_ADC_STATE_REG_EOC);
 800261c:	687b      	ldr	r3, [r7, #4]
 800261e:	6a9b      	ldr	r3, [r3, #40]	@ 0x28
 8002620:	f443 7200 	orr.w	r2, r3, #512	@ 0x200
 8002624:	687b      	ldr	r3, [r7, #4]
 8002626:	629a      	str	r2, [r3, #40]	@ 0x28
  /* Determine whether any further conversion upcoming on group regular       */
  /* by external trigger, continuous mode or scan sequence on going.          */
  /* Note: On STM32F1 devices, in case of sequencer enabled                   */
  /*       (several ranks selected), end of conversion flag is raised         */
  /*       at the end of the sequence.                                        */
  if(ADC_IS_SOFTWARE_START_REGULAR(hadc)        && 
 8002628:	687b      	ldr	r3, [r7, #4]
 800262a:	681b      	ldr	r3, [r3, #0]
 800262c:	689b      	ldr	r3, [r3, #8]
 800262e:	f403 2360 	and.w	r3, r3, #917504	@ 0xe0000
 8002632:	f5b3 2f60 	cmp.w	r3, #917504	@ 0xe0000
 8002636:	d115      	bne.n	8002664 <HAL_ADC_PollForConversion+0x1e8>
     (hadc->Init.ContinuousConvMode == DISABLE)   )
 8002638:	687b      	ldr	r3, [r7, #4]
 800263a:	7b1b      	ldrb	r3, [r3, #12]
  if(ADC_IS_SOFTWARE_START_REGULAR(hadc)        && 
 800263c:	2b00      	cmp	r3, #0
 800263e:	d111      	bne.n	8002664 <HAL_ADC_PollForConversion+0x1e8>
  {   
    /* Set ADC state */
    CLEAR_BIT(hadc->State, HAL_ADC_STATE_REG_BUSY);   
 8002640:	687b      	ldr	r3, [r7, #4]
 8002642:	6a9b      	ldr	r3, [r3, #40]	@ 0x28
 8002644:	f423 7280 	bic.w	r2, r3, #256	@ 0x100
 8002648:	687b      	ldr	r3, [r7, #4]
 800264a:	629a      	str	r2, [r3, #40]	@ 0x28

    if (HAL_IS_BIT_CLR(hadc->State, HAL_ADC_STATE_INJ_BUSY))
 800264c:	687b      	ldr	r3, [r7, #4]
 800264e:	6a9b      	ldr	r3, [r3, #40]	@ 0x28
 8002650:	f403 5380 	and.w	r3, r3, #4096	@ 0x1000
 8002654:	2b00      	cmp	r3, #0
 8002656:	d105      	bne.n	8002664 <HAL_ADC_PollForConversion+0x1e8>
    { 
      SET_BIT(hadc->State, HAL_ADC_STATE_READY);
 8002658:	687b      	ldr	r3, [r7, #4]
 800265a:	6a9b      	ldr	r3, [r3, #40]	@ 0x28
 800265c:	f043 0201 	orr.w	r2, r3, #1
 8002660:	687b      	ldr	r3, [r7, #4]
 8002662:	629a      	str	r2, [r3, #40]	@ 0x28
    }
  }
  
  /* Return ADC state */
  return HAL_OK;
 8002664:	2300      	movs	r3, #0
}
 8002666:	4618      	mov	r0, r3
 8002668:	371c      	adds	r7, #28
 800266a:	46bd      	mov	sp, r7
 800266c:	bd90      	pop	{r4, r7, pc}
 800266e:	bf00      	nop
 8002670:	20000000 	.word	0x20000000
 8002674:	24924924 	.word	0x24924924
 8002678:	00924924 	.word	0x00924924
 800267c:	12492492 	.word	0x12492492
 8002680:	00492492 	.word	0x00492492
 8002684:	00249249 	.word	0x00249249

08002688 <HAL_ADC_GetValue>:
  *         or @ref __HAL_ADC_CLEAR_FLAG(&hadc, ADC_FLAG_EOS).
  * @param  hadc: ADC handle
  * @retval ADC group regular conversion data
  */
uint32_t HAL_ADC_GetValue(ADC_HandleTypeDef* hadc)
{
 8002688:	b480      	push	{r7}
 800268a:	b083      	sub	sp, #12
 800268c:	af00      	add	r7, sp, #0
 800268e:	6078      	str	r0, [r7, #4]

  /* Note: EOC flag is not cleared here by software because automatically     */
  /*       cleared by hardware when reading register DR.                      */
  
  /* Return ADC converted value */ 
  return hadc->Instance->DR;
 8002690:	687b      	ldr	r3, [r7, #4]
 8002692:	681b      	ldr	r3, [r3, #0]
 8002694:	6cdb      	ldr	r3, [r3, #76]	@ 0x4c
}
 8002696:	4618      	mov	r0, r3
 8002698:	370c      	adds	r7, #12
 800269a:	46bd      	mov	sp, r7
 800269c:	bc80      	pop	{r7}
 800269e:	4770      	bx	lr

080026a0 <HAL_ADC_IRQHandler>:
  * @brief  Handles ADC interrupt request  
  * @param  hadc: ADC handle
  * @retval None
  */
void HAL_ADC_IRQHandler(ADC_HandleTypeDef* hadc)
{
 80026a0:	b580      	push	{r7, lr}
 80026a2:	b084      	sub	sp, #16
 80026a4:	af00      	add	r7, sp, #0
 80026a6:	6078      	str	r0, [r7, #4]
  uint32_t tmp_sr = hadc->Instance->SR;
 80026a8:	687b      	ldr	r3, [r7, #4]
 80026aa:	681b      	ldr	r3, [r3, #0]
 80026ac:	681b      	ldr	r3, [r3, #0]
 80026ae:	60fb      	str	r3, [r7, #12]
  uint32_t tmp_cr1 = hadc->Instance->CR1;
 80026b0:	687b      	ldr	r3, [r7, #4]
 80026b2:	681b      	ldr	r3, [r3, #0]
 80026b4:	685b      	ldr	r3, [r3, #4]
 80026b6:	60bb      	str	r3, [r7, #8]
  assert_param(IS_FUNCTIONAL_STATE(hadc->Init.ContinuousConvMode));
  assert_param(IS_ADC_REGULAR_NB_CONV(hadc->Init.NbrOfConversion));
  
  
  /* ========== Check End of Conversion flag for regular group ========== */
  if((tmp_cr1 & ADC_IT_EOC) == ADC_IT_EOC)
 80026b8:	68bb      	ldr	r3, [r7, #8]
 80026ba:	f003 0320 	and.w	r3, r3, #32
 80026be:	2b00      	cmp	r3, #0
 80026c0:	d03e      	beq.n	8002740 <HAL_ADC_IRQHandler+0xa0>
  {
    if((tmp_sr & ADC_FLAG_EOC) == ADC_FLAG_EOC)
 80026c2:	68fb      	ldr	r3, [r7, #12]
 80026c4:	f003 0302 	and.w	r3, r3, #2
 80026c8:	2b00      	cmp	r3, #0
 80026ca:	d039      	beq.n	8002740 <HAL_ADC_IRQHandler+0xa0>
    {
      /* Update state machine on conversion status if not in error state */
      if (HAL_IS_BIT_CLR(hadc->State, HAL_ADC_STATE_ERROR_INTERNAL))
 80026cc:	687b      	ldr	r3, [r7, #4]
 80026ce:	6a9b      	ldr	r3, [r3, #40]	@ 0x28
 80026d0:	f003 0310 	and.w	r3, r3, #16
 80026d4:	2b00      	cmp	r3, #0
 80026d6:	d105      	bne.n	80026e4 <HAL_ADC_IRQHandler+0x44>
      {
        /* Set ADC state */
        SET_BIT(hadc->State, HAL_ADC_STATE_REG_EOC); 
 80026d8:	687b      	ldr	r3, [r7, #4]
 80026da:	6a9b      	ldr	r3, [r3, #40]	@ 0x28
 80026dc:	f443 7200 	orr.w	r2, r3, #512	@ 0x200
 80026e0:	687b      	ldr	r3, [r7, #4]
 80026e2:	629a      	str	r2, [r3, #40]	@ 0x28
      /* Determine whether any further conversion upcoming on group regular   */
      /* by external trigger, continuous mode or scan sequence on going.      */
      /* Note: On STM32F1 devices, in case of sequencer enabled               */
      /*       (several ranks selected), end of conversion flag is raised     */
      /*       at the end of the sequence.                                    */
      if(ADC_IS_SOFTWARE_START_REGULAR(hadc)        && 
 80026e4:	687b      	ldr	r3, [r7, #4]
 80026e6:	681b      	ldr	r3, [r3, #0]
 80026e8:	689b      	ldr	r3, [r3, #8]
 80026ea:	f403 2360 	and.w	r3, r3, #917504	@ 0xe0000
 80026ee:	f5b3 2f60 	cmp.w	r3, #917504	@ 0xe0000
 80026f2:	d11d      	bne.n	8002730 <HAL_ADC_IRQHandler+0x90>
         (hadc->Init.ContinuousConvMode == DISABLE)   )
 80026f4:	687b      	ldr	r3, [r7, #4]
 80026f6:	7b1b      	ldrb	r3, [r3, #12]
      if(ADC_IS_SOFTWARE_START_REGULAR(hadc)        && 
 80026f8:	2b00      	cmp	r3, #0
 80026fa:	d119      	bne.n	8002730 <HAL_ADC_IRQHandler+0x90>
      {
        /* Disable ADC end of conversion interrupt on group regular */
        __HAL_ADC_DISABLE_IT(hadc, ADC_IT_EOC);
 80026fc:	687b      	ldr	r3, [r7, #4]
 80026fe:	681b      	ldr	r3, [r3, #0]
 8002700:	685a      	ldr	r2, [r3, #4]
 8002702:	687b      	ldr	r3, [r7, #4]
 8002704:	681b      	ldr	r3, [r3, #0]
 8002706:	f022 0220 	bic.w	r2, r2, #32
 800270a:	605a      	str	r2, [r3, #4]
        
        /* Set ADC state */
        CLEAR_BIT(hadc->State, HAL_ADC_STATE_REG_BUSY);   
 800270c:	687b      	ldr	r3, [r7, #4]
 800270e:	6a9b      	ldr	r3, [r3, #40]	@ 0x28
 8002710:	f423 7280 	bic.w	r2, r3, #256	@ 0x100
 8002714:	687b      	ldr	r3, [r7, #4]
 8002716:	629a      	str	r2, [r3, #40]	@ 0x28
        
        if (HAL_IS_BIT_CLR(hadc->State, HAL_ADC_STATE_INJ_BUSY))
 8002718:	687b      	ldr	r3, [r7, #4]
 800271a:	6a9b      	ldr	r3, [r3, #40]	@ 0x28
 800271c:	f403 5380 	and.w	r3, r3, #4096	@ 0x1000
 8002720:	2b00      	cmp	r3, #0
 8002722:	d105      	bne.n	8002730 <HAL_ADC_IRQHandler+0x90>
        {
          SET_BIT(hadc->State, HAL_ADC_STATE_READY);
 8002724:	687b      	ldr	r3, [r7, #4]
 8002726:	6a9b      	ldr	r3, [r3, #40]	@ 0x28
 8002728:	f043 0201 	orr.w	r2, r3, #1
 800272c:	687b      	ldr	r3, [r7, #4]
 800272e:	629a      	str	r2, [r3, #40]	@ 0x28

      /* Conversion complete callback */
#if (USE_HAL_ADC_REGISTER_CALLBACKS == 1)
      hadc->ConvCpltCallback(hadc);
#else
      HAL_ADC_ConvCpltCallback(hadc);
 8002730:	6878      	ldr	r0, [r7, #4]
 8002732:	f000 f874 	bl	800281e <HAL_ADC_ConvCpltCallback>
#endif /* USE_HAL_ADC_REGISTER_CALLBACKS */
      
      /* Clear regular group conversion flag */
      __HAL_ADC_CLEAR_FLAG(hadc, ADC_FLAG_STRT | ADC_FLAG_EOC);
 8002736:	687b      	ldr	r3, [r7, #4]
 8002738:	681b      	ldr	r3, [r3, #0]
 800273a:	f06f 0212 	mvn.w	r2, #18
 800273e:	601a      	str	r2, [r3, #0]
    }
  }
  
  /* ========== Check End of Conversion flag for injected group ========== */
  if((tmp_cr1 & ADC_IT_JEOC) == ADC_IT_JEOC)
 8002740:	68bb      	ldr	r3, [r7, #8]
 8002742:	f003 0380 	and.w	r3, r3, #128	@ 0x80
 8002746:	2b00      	cmp	r3, #0
 8002748:	d04d      	beq.n	80027e6 <HAL_ADC_IRQHandler+0x146>
  {
    if((tmp_sr & ADC_FLAG_JEOC) == ADC_FLAG_JEOC)
 800274a:	68fb      	ldr	r3, [r7, #12]
 800274c:	f003 0304 	and.w	r3, r3, #4
 8002750:	2b00      	cmp	r3, #0
 8002752:	d048      	beq.n	80027e6 <HAL_ADC_IRQHandler+0x146>
    {
      /* Update state machine on conversion status if not in error state */
      if (HAL_IS_BIT_CLR(hadc->State, HAL_ADC_STATE_ERROR_INTERNAL))
 8002754:	687b      	ldr	r3, [r7, #4]
 8002756:	6a9b      	ldr	r3, [r3, #40]	@ 0x28
 8002758:	f003 0310 	and.w	r3, r3, #16
 800275c:	2b00      	cmp	r3, #0
 800275e:	d105      	bne.n	800276c <HAL_ADC_IRQHandler+0xcc>
      {
        /* Set ADC state */
        SET_BIT(hadc->State, HAL_ADC_STATE_INJ_EOC);
 8002760:	687b      	ldr	r3, [r7, #4]
 8002762:	6a9b      	ldr	r3, [r3, #40]	@ 0x28
 8002764:	f443 5200 	orr.w	r2, r3, #8192	@ 0x2000
 8002768:	687b      	ldr	r3, [r7, #4]
 800276a:	629a      	str	r2, [r3, #40]	@ 0x28
      /* conversion from group regular (same conditions as group regular      */
      /* interruption disabling above).                                       */
      /* Note: On STM32F1 devices, in case of sequencer enabled               */
      /*       (several ranks selected), end of conversion flag is raised     */
      /*       at the end of the sequence.                                    */
      if(ADC_IS_SOFTWARE_START_INJECTED(hadc)                     || 
 800276c:	687b      	ldr	r3, [r7, #4]
 800276e:	681b      	ldr	r3, [r3, #0]
 8002770:	689b      	ldr	r3, [r3, #8]
 8002772:	f403 43e0 	and.w	r3, r3, #28672	@ 0x7000
 8002776:	f5b3 4fe0 	cmp.w	r3, #28672	@ 0x7000
 800277a:	d012      	beq.n	80027a2 <HAL_ADC_IRQHandler+0x102>
         (HAL_IS_BIT_CLR(hadc->Instance->CR1, ADC_CR1_JAUTO) &&     
 800277c:	687b      	ldr	r3, [r7, #4]
 800277e:	681b      	ldr	r3, [r3, #0]
 8002780:	685b      	ldr	r3, [r3, #4]
 8002782:	f403 6380 	and.w	r3, r3, #1024	@ 0x400
      if(ADC_IS_SOFTWARE_START_INJECTED(hadc)                     || 
 8002786:	2b00      	cmp	r3, #0
 8002788:	d125      	bne.n	80027d6 <HAL_ADC_IRQHandler+0x136>
         (ADC_IS_SOFTWARE_START_REGULAR(hadc)        &&
 800278a:	687b      	ldr	r3, [r7, #4]
 800278c:	681b      	ldr	r3, [r3, #0]
 800278e:	689b      	ldr	r3, [r3, #8]
 8002790:	f403 2360 	and.w	r3, r3, #917504	@ 0xe0000
         (HAL_IS_BIT_CLR(hadc->Instance->CR1, ADC_CR1_JAUTO) &&     
 8002794:	f5b3 2f60 	cmp.w	r3, #917504	@ 0xe0000
 8002798:	d11d      	bne.n	80027d6 <HAL_ADC_IRQHandler+0x136>
          (hadc->Init.ContinuousConvMode == DISABLE)   )        )   )
 800279a:	687b      	ldr	r3, [r7, #4]
 800279c:	7b1b      	ldrb	r3, [r3, #12]
         (ADC_IS_SOFTWARE_START_REGULAR(hadc)        &&
 800279e:	2b00      	cmp	r3, #0
 80027a0:	d119      	bne.n	80027d6 <HAL_ADC_IRQHandler+0x136>
      {
        /* Disable ADC end of conversion interrupt on group injected */
        __HAL_ADC_DISABLE_IT(hadc, ADC_IT_JEOC);
 80027a2:	687b      	ldr	r3, [r7, #4]
 80027a4:	681b      	ldr	r3, [r3, #0]
 80027a6:	685a      	ldr	r2, [r3, #4]
 80027a8:	687b      	ldr	r3, [r7, #4]
 80027aa:	681b      	ldr	r3, [r3, #0]
 80027ac:	f022 0280 	bic.w	r2, r2, #128	@ 0x80
 80027b0:	605a      	str	r2, [r3, #4]
        
        /* Set ADC state */
        CLEAR_BIT(hadc->State, HAL_ADC_STATE_INJ_BUSY);   
 80027b2:	687b      	ldr	r3, [r7, #4]
 80027b4:	6a9b      	ldr	r3, [r3, #40]	@ 0x28
 80027b6:	f423 5280 	bic.w	r2, r3, #4096	@ 0x1000
 80027ba:	687b      	ldr	r3, [r7, #4]
 80027bc:	629a      	str	r2, [r3, #40]	@ 0x28

        if (HAL_IS_BIT_CLR(hadc->State, HAL_ADC_STATE_REG_BUSY))
 80027be:	687b      	ldr	r3, [r7, #4]
 80027c0:	6a9b      	ldr	r3, [r3, #40]	@ 0x28
 80027c2:	f403 7380 	and.w	r3, r3, #256	@ 0x100
 80027c6:	2b00      	cmp	r3, #0
 80027c8:	d105      	bne.n	80027d6 <HAL_ADC_IRQHandler+0x136>
        { 
          SET_BIT(hadc->State, HAL_ADC_STATE_READY);
 80027ca:	687b      	ldr	r3, [r7, #4]
 80027cc:	6a9b      	ldr	r3, [r3, #40]	@ 0x28
 80027ce:	f043 0201 	orr.w	r2, r3, #1
 80027d2:	687b      	ldr	r3, [r7, #4]
 80027d4:	629a      	str	r2, [r3, #40]	@ 0x28

      /* Conversion complete callback */ 
#if (USE_HAL_ADC_REGISTER_CALLBACKS == 1)
      hadc->InjectedConvCpltCallback(hadc);
#else
      HAL_ADCEx_InjectedConvCpltCallback(hadc);
 80027d6:	6878      	ldr	r0, [r7, #4]
 80027d8:	f000 fa76 	bl	8002cc8 <HAL_ADCEx_InjectedConvCpltCallback>
#endif /* USE_HAL_ADC_REGISTER_CALLBACKS */
      
      /* Clear injected group conversion flag */
      __HAL_ADC_CLEAR_FLAG(hadc, (ADC_FLAG_JSTRT | ADC_FLAG_JEOC));
 80027dc:	687b      	ldr	r3, [r7, #4]
 80027de:	681b      	ldr	r3, [r3, #0]
 80027e0:	f06f 020c 	mvn.w	r2, #12
 80027e4:	601a      	str	r2, [r3, #0]
    }
  }
   
  /* ========== Check Analog watchdog flags ========== */
  if((tmp_cr1 & ADC_IT_AWD) == ADC_IT_AWD)
 80027e6:	68bb      	ldr	r3, [r7, #8]
 80027e8:	f003 0340 	and.w	r3, r3, #64	@ 0x40
 80027ec:	2b00      	cmp	r3, #0
 80027ee:	d012      	beq.n	8002816 <HAL_ADC_IRQHandler+0x176>
  {
    if((tmp_sr & ADC_FLAG_AWD) == ADC_FLAG_AWD)
 80027f0:	68fb      	ldr	r3, [r7, #12]
 80027f2:	f003 0301 	and.w	r3, r3, #1
 80027f6:	2b00      	cmp	r3, #0
 80027f8:	d00d      	beq.n	8002816 <HAL_ADC_IRQHandler+0x176>
    {
      /* Set ADC state */
      SET_BIT(hadc->State, HAL_ADC_STATE_AWD1);
 80027fa:	687b      	ldr	r3, [r7, #4]
 80027fc:	6a9b      	ldr	r3, [r3, #40]	@ 0x28
 80027fe:	f443 3280 	orr.w	r2, r3, #65536	@ 0x10000
 8002802:	687b      	ldr	r3, [r7, #4]
 8002804:	629a      	str	r2, [r3, #40]	@ 0x28
      
      /* Level out of window callback */ 
#if (USE_HAL_ADC_REGISTER_CALLBACKS == 1)
      hadc->LevelOutOfWindowCallback(hadc);
#else
      HAL_ADC_LevelOutOfWindowCallback(hadc);
 8002806:	6878      	ldr	r0, [r7, #4]
 8002808:	f000 f812 	bl	8002830 <HAL_ADC_LevelOutOfWindowCallback>
#endif /* USE_HAL_ADC_REGISTER_CALLBACKS */
      
      /* Clear the ADC analog watchdog flag */
      __HAL_ADC_CLEAR_FLAG(hadc, ADC_FLAG_AWD);
 800280c:	687b      	ldr	r3, [r7, #4]
 800280e:	681b      	ldr	r3, [r3, #0]
 8002810:	f06f 0201 	mvn.w	r2, #1
 8002814:	601a      	str	r2, [r3, #0]
    }
  }
  
}
 8002816:	bf00      	nop
 8002818:	3710      	adds	r7, #16
 800281a:	46bd      	mov	sp, r7
 800281c:	bd80      	pop	{r7, pc}

0800281e <HAL_ADC_ConvCpltCallback>:
  * @brief  Conversion complete callback in non blocking mode 
  * @param  hadc: ADC handle
  * @retval None
  */
__weak void HAL_ADC_ConvCpltCallback(ADC_HandleTypeDef* hadc)
{
 800281e:	b480      	push	{r7}
 8002820:	b083      	sub	sp, #12
 8002822:	af00      	add	r7, sp, #0
 8002824:	6078      	str	r0, [r7, #4]
  /* Prevent unused argument(s) compilation warning */
  UNUSED(hadc);
  /* NOTE : This function should not be modified. When the callback is needed,
            function HAL_ADC_ConvCpltCallback must be implemented in the user file.
   */
}
 8002826:	bf00      	nop
 8002828:	370c      	adds	r7, #12
 800282a:	46bd      	mov	sp, r7
 800282c:	bc80      	pop	{r7}
 800282e:	4770      	bx	lr

08002830 <HAL_ADC_LevelOutOfWindowCallback>:
  * @brief  Analog watchdog callback in non blocking mode. 
  * @param  hadc: ADC handle
  * @retval None
  */
__weak void HAL_ADC_LevelOutOfWindowCallback(ADC_HandleTypeDef* hadc)
{
 8002830:	b480      	push	{r7}
 8002832:	b083      	sub	sp, #12
 8002834:	af00      	add	r7, sp, #0
 8002836:	6078      	str	r0, [r7, #4]
  /* Prevent unused argument(s) compilation warning */
  UNUSED(hadc);
  /* NOTE : This function should not be modified. When the callback is needed,
            function HAL_ADC_LevelOutOfWindowCallback must be implemented in the user file.
  */
}
 8002838:	bf00      	nop
 800283a:	370c      	adds	r7, #12
 800283c:	46bd      	mov	sp, r7
 800283e:	bc80      	pop	{r7}
 8002840:	4770      	bx	lr
	...

08002844 <HAL_ADC_ConfigChannel>:
  * @param  hadc: ADC handle
  * @param  sConfig: Structure of ADC channel for regular group.
  * @retval HAL status
  */
HAL_StatusTypeDef HAL_ADC_ConfigChannel(ADC_HandleTypeDef* hadc, ADC_ChannelConfTypeDef* sConfig)
{ 
 8002844:	b480      	push	{r7}
 8002846:	b085      	sub	sp, #20
 8002848:	af00      	add	r7, sp, #0
 800284a:	6078      	str	r0, [r7, #4]
 800284c:	6039      	str	r1, [r7, #0]
  HAL_StatusTypeDef tmp_hal_status = HAL_OK;
 800284e:	2300      	movs	r3, #0
 8002850:	73fb      	strb	r3, [r7, #15]
  __IO uint32_t wait_loop_index = 0U;
 8002852:	2300      	movs	r3, #0
 8002854:	60bb      	str	r3, [r7, #8]
  assert_param(IS_ADC_CHANNEL(sConfig->Channel));
  assert_param(IS_ADC_REGULAR_RANK(sConfig->Rank));
  assert_param(IS_ADC_SAMPLE_TIME(sConfig->SamplingTime));
  
  /* Process locked */
  __HAL_LOCK(hadc);
 8002856:	687b      	ldr	r3, [r7, #4]
 8002858:	f893 3024 	ldrb.w	r3, [r3, #36]	@ 0x24
 800285c:	2b01      	cmp	r3, #1
 800285e:	d101      	bne.n	8002864 <HAL_ADC_ConfigChannel+0x20>
 8002860:	2302      	movs	r3, #2
 8002862:	e0dc      	b.n	8002a1e <HAL_ADC_ConfigChannel+0x1da>
 8002864:	687b      	ldr	r3, [r7, #4]
 8002866:	2201      	movs	r2, #1
 8002868:	f883 2024 	strb.w	r2, [r3, #36]	@ 0x24
  
  
  /* Regular sequence configuration */
  /* For Rank 1 to 6 */
  if (sConfig->Rank < 7U)
 800286c:	683b      	ldr	r3, [r7, #0]
 800286e:	685b      	ldr	r3, [r3, #4]
 8002870:	2b06      	cmp	r3, #6
 8002872:	d81c      	bhi.n	80028ae <HAL_ADC_ConfigChannel+0x6a>
  {
    MODIFY_REG(hadc->Instance->SQR3                        ,
 8002874:	687b      	ldr	r3, [r7, #4]
 8002876:	681b      	ldr	r3, [r3, #0]
 8002878:	6b59      	ldr	r1, [r3, #52]	@ 0x34
 800287a:	683b      	ldr	r3, [r7, #0]
 800287c:	685a      	ldr	r2, [r3, #4]
 800287e:	4613      	mov	r3, r2
 8002880:	009b      	lsls	r3, r3, #2
 8002882:	4413      	add	r3, r2
 8002884:	3b05      	subs	r3, #5
 8002886:	221f      	movs	r2, #31
 8002888:	fa02 f303 	lsl.w	r3, r2, r3
 800288c:	43db      	mvns	r3, r3
 800288e:	4019      	ands	r1, r3
 8002890:	683b      	ldr	r3, [r7, #0]
 8002892:	6818      	ldr	r0, [r3, #0]
 8002894:	683b      	ldr	r3, [r7, #0]
 8002896:	685a      	ldr	r2, [r3, #4]
 8002898:	4613      	mov	r3, r2
 800289a:	009b      	lsls	r3, r3, #2
 800289c:	4413      	add	r3, r2
 800289e:	3b05      	subs	r3, #5
 80028a0:	fa00 f203 	lsl.w	r2, r0, r3
 80028a4:	687b      	ldr	r3, [r7, #4]
 80028a6:	681b      	ldr	r3, [r3, #0]
 80028a8:	430a      	orrs	r2, r1
 80028aa:	635a      	str	r2, [r3, #52]	@ 0x34
 80028ac:	e03c      	b.n	8002928 <HAL_ADC_ConfigChannel+0xe4>
               ADC_SQR3_RK(ADC_SQR3_SQ1, sConfig->Rank)    ,
               ADC_SQR3_RK(sConfig->Channel, sConfig->Rank) );
  }
  /* For Rank 7 to 12 */
  else if (sConfig->Rank < 13U)
 80028ae:	683b      	ldr	r3, [r7, #0]
 80028b0:	685b      	ldr	r3, [r3, #4]
 80028b2:	2b0c      	cmp	r3, #12
 80028b4:	d81c      	bhi.n	80028f0 <HAL_ADC_ConfigChannel+0xac>
  {
    MODIFY_REG(hadc->Instance->SQR2                        ,
 80028b6:	687b      	ldr	r3, [r7, #4]
 80028b8:	681b      	ldr	r3, [r3, #0]
 80028ba:	6b19      	ldr	r1, [r3, #48]	@ 0x30
 80028bc:	683b      	ldr	r3, [r7, #0]
 80028be:	685a      	ldr	r2, [r3, #4]
 80028c0:	4613      	mov	r3, r2
 80028c2:	009b      	lsls	r3, r3, #2
 80028c4:	4413      	add	r3, r2
 80028c6:	3b23      	subs	r3, #35	@ 0x23
 80028c8:	221f      	movs	r2, #31
 80028ca:	fa02 f303 	lsl.w	r3, r2, r3
 80028ce:	43db      	mvns	r3, r3
 80028d0:	4019      	ands	r1, r3
 80028d2:	683b      	ldr	r3, [r7, #0]
 80028d4:	6818      	ldr	r0, [r3, #0]
 80028d6:	683b      	ldr	r3, [r7, #0]
 80028d8:	685a      	ldr	r2, [r3, #4]
 80028da:	4613      	mov	r3, r2
 80028dc:	009b      	lsls	r3, r3, #2
 80028de:	4413      	add	r3, r2
 80028e0:	3b23      	subs	r3, #35	@ 0x23
 80028e2:	fa00 f203 	lsl.w	r2, r0, r3
 80028e6:	687b      	ldr	r3, [r7, #4]
 80028e8:	681b      	ldr	r3, [r3, #0]
 80028ea:	430a      	orrs	r2, r1
 80028ec:	631a      	str	r2, [r3, #48]	@ 0x30
 80028ee:	e01b      	b.n	8002928 <HAL_ADC_ConfigChannel+0xe4>
               ADC_SQR2_RK(sConfig->Channel, sConfig->Rank) );
  }
  /* For Rank 13 to 16 */
  else
  {
    MODIFY_REG(hadc->Instance->SQR1                        ,
 80028f0:	687b      	ldr	r3, [r7, #4]
 80028f2:	681b      	ldr	r3, [r3, #0]
 80028f4:	6ad9      	ldr	r1, [r3, #44]	@ 0x2c
 80028f6:	683b      	ldr	r3, [r7, #0]
 80028f8:	685a      	ldr	r2, [r3, #4]
 80028fa:	4613      	mov	r3, r2
 80028fc:	009b      	lsls	r3, r3, #2
 80028fe:	4413      	add	r3, r2
 8002900:	3b41      	subs	r3, #65	@ 0x41
 8002902:	221f      	movs	r2, #31
 8002904:	fa02 f303 	lsl.w	r3, r2, r3
 8002908:	43db      	mvns	r3, r3
 800290a:	4019      	ands	r1, r3
 800290c:	683b      	ldr	r3, [r7, #0]
 800290e:	6818      	ldr	r0, [r3, #0]
 8002910:	683b      	ldr	r3, [r7, #0]
 8002912:	685a      	ldr	r2, [r3, #4]
 8002914:	4613      	mov	r3, r2
 8002916:	009b      	lsls	r3, r3, #2
 8002918:	4413      	add	r3, r2
 800291a:	3b41      	subs	r3, #65	@ 0x41
 800291c:	fa00 f203 	lsl.w	r2, r0, r3
 8002920:	687b      	ldr	r3, [r7, #4]
 8002922:	681b      	ldr	r3, [r3, #0]
 8002924:	430a      	orrs	r2, r1
 8002926:	62da      	str	r2, [r3, #44]	@ 0x2c
  }
  
  
  /* Channel sampling time configuration */
  /* For channels 10 to 17 */
  if (sConfig->Channel >= ADC_CHANNEL_10)
 8002928:	683b      	ldr	r3, [r7, #0]
 800292a:	681b      	ldr	r3, [r3, #0]
 800292c:	2b09      	cmp	r3, #9
 800292e:	d91c      	bls.n	800296a <HAL_ADC_ConfigChannel+0x126>
  {
    MODIFY_REG(hadc->Instance->SMPR1                             ,
 8002930:	687b      	ldr	r3, [r7, #4]
 8002932:	681b      	ldr	r3, [r3, #0]
 8002934:	68d9      	ldr	r1, [r3, #12]
 8002936:	683b      	ldr	r3, [r7, #0]
 8002938:	681a      	ldr	r2, [r3, #0]
 800293a:	4613      	mov	r3, r2
 800293c:	005b      	lsls	r3, r3, #1
 800293e:	4413      	add	r3, r2
 8002940:	3b1e      	subs	r3, #30
 8002942:	2207      	movs	r2, #7
 8002944:	fa02 f303 	lsl.w	r3, r2, r3
 8002948:	43db      	mvns	r3, r3
 800294a:	4019      	ands	r1, r3
 800294c:	683b      	ldr	r3, [r7, #0]
 800294e:	6898      	ldr	r0, [r3, #8]
 8002950:	683b      	ldr	r3, [r7, #0]
 8002952:	681a      	ldr	r2, [r3, #0]
 8002954:	4613      	mov	r3, r2
 8002956:	005b      	lsls	r3, r3, #1
 8002958:	4413      	add	r3, r2
 800295a:	3b1e      	subs	r3, #30
 800295c:	fa00 f203 	lsl.w	r2, r0, r3
 8002960:	687b      	ldr	r3, [r7, #4]
 8002962:	681b      	ldr	r3, [r3, #0]
 8002964:	430a      	orrs	r2, r1
 8002966:	60da      	str	r2, [r3, #12]
 8002968:	e019      	b.n	800299e <HAL_ADC_ConfigChannel+0x15a>
               ADC_SMPR1(ADC_SMPR1_SMP10, sConfig->Channel)      ,
               ADC_SMPR1(sConfig->SamplingTime, sConfig->Channel) );
  }
  else /* For channels 0 to 9 */
  {
    MODIFY_REG(hadc->Instance->SMPR2                             ,
 800296a:	687b      	ldr	r3, [r7, #4]
 800296c:	681b      	ldr	r3, [r3, #0]
 800296e:	6919      	ldr	r1, [r3, #16]
 8002970:	683b      	ldr	r3, [r7, #0]
 8002972:	681a      	ldr	r2, [r3, #0]
 8002974:	4613      	mov	r3, r2
 8002976:	005b      	lsls	r3, r3, #1
 8002978:	4413      	add	r3, r2
 800297a:	2207      	movs	r2, #7
 800297c:	fa02 f303 	lsl.w	r3, r2, r3
 8002980:	43db      	mvns	r3, r3
 8002982:	4019      	ands	r1, r3
 8002984:	683b      	ldr	r3, [r7, #0]
 8002986:	6898      	ldr	r0, [r3, #8]
 8002988:	683b      	ldr	r3, [r7, #0]
 800298a:	681a      	ldr	r2, [r3, #0]
 800298c:	4613      	mov	r3, r2
 800298e:	005b      	lsls	r3, r3, #1
 8002990:	4413      	add	r3, r2
 8002992:	fa00 f203 	lsl.w	r2, r0, r3
 8002996:	687b      	ldr	r3, [r7, #4]
 8002998:	681b      	ldr	r3, [r3, #0]
 800299a:	430a      	orrs	r2, r1
 800299c:	611a      	str	r2, [r3, #16]
               ADC_SMPR2(sConfig->SamplingTime, sConfig->Channel) );
  }
  
  /* If ADC1 Channel_16 or Channel_17 is selected, enable Temperature sensor  */
  /* and VREFINT measurement path.                                            */
  if ((sConfig->Channel == ADC_CHANNEL_TEMPSENSOR) ||
 800299e:	683b      	ldr	r3, [r7, #0]
 80029a0:	681b      	ldr	r3, [r3, #0]
 80029a2:	2b10      	cmp	r3, #16
 80029a4:	d003      	beq.n	80029ae <HAL_ADC_ConfigChannel+0x16a>
      (sConfig->Channel == ADC_CHANNEL_VREFINT)      )
 80029a6:	683b      	ldr	r3, [r7, #0]
 80029a8:	681b      	ldr	r3, [r3, #0]
  if ((sConfig->Channel == ADC_CHANNEL_TEMPSENSOR) ||
 80029aa:	2b11      	cmp	r3, #17
 80029ac:	d132      	bne.n	8002a14 <HAL_ADC_ConfigChannel+0x1d0>
  {
    /* For STM32F1 devices with several ADC: Only ADC1 can access internal    */
    /* measurement channels (VrefInt/TempSensor). If these channels are       */
    /* intended to be set on other ADC instances, an error is reported.       */
    if (hadc->Instance == ADC1)
 80029ae:	687b      	ldr	r3, [r7, #4]
 80029b0:	681b      	ldr	r3, [r3, #0]
 80029b2:	4a1d      	ldr	r2, [pc, #116]	@ (8002a28 <HAL_ADC_ConfigChannel+0x1e4>)
 80029b4:	4293      	cmp	r3, r2
 80029b6:	d125      	bne.n	8002a04 <HAL_ADC_ConfigChannel+0x1c0>
    {
      if (READ_BIT(hadc->Instance->CR2, ADC_CR2_TSVREFE) == RESET)
 80029b8:	687b      	ldr	r3, [r7, #4]
 80029ba:	681b      	ldr	r3, [r3, #0]
 80029bc:	689b      	ldr	r3, [r3, #8]
 80029be:	f403 0300 	and.w	r3, r3, #8388608	@ 0x800000
 80029c2:	2b00      	cmp	r3, #0
 80029c4:	d126      	bne.n	8002a14 <HAL_ADC_ConfigChannel+0x1d0>
      {
        SET_BIT(hadc->Instance->CR2, ADC_CR2_TSVREFE);
 80029c6:	687b      	ldr	r3, [r7, #4]
 80029c8:	681b      	ldr	r3, [r3, #0]
 80029ca:	689a      	ldr	r2, [r3, #8]
 80029cc:	687b      	ldr	r3, [r7, #4]
 80029ce:	681b      	ldr	r3, [r3, #0]
 80029d0:	f442 0200 	orr.w	r2, r2, #8388608	@ 0x800000
 80029d4:	609a      	str	r2, [r3, #8]
        
        if (sConfig->Channel == ADC_CHANNEL_TEMPSENSOR)
 80029d6:	683b      	ldr	r3, [r7, #0]
 80029d8:	681b      	ldr	r3, [r3, #0]
 80029da:	2b10      	cmp	r3, #16
 80029dc:	d11a      	bne.n	8002a14 <HAL_ADC_ConfigChannel+0x1d0>
        {
          /* Delay for temperature sensor stabilization time */
          /* Compute number of CPU cycles to wait for */
          wait_loop_index = (ADC_TEMPSENSOR_DELAY_US * (SystemCoreClock / 1000000U));
 80029de:	4b13      	ldr	r3, [pc, #76]	@ (8002a2c <HAL_ADC_ConfigChannel+0x1e8>)
 80029e0:	681b      	ldr	r3, [r3, #0]
 80029e2:	4a13      	ldr	r2, [pc, #76]	@ (8002a30 <HAL_ADC_ConfigChannel+0x1ec>)
 80029e4:	fba2 2303 	umull	r2, r3, r2, r3
 80029e8:	0c9a      	lsrs	r2, r3, #18
 80029ea:	4613      	mov	r3, r2
 80029ec:	009b      	lsls	r3, r3, #2
 80029ee:	4413      	add	r3, r2
 80029f0:	005b      	lsls	r3, r3, #1
 80029f2:	60bb      	str	r3, [r7, #8]
          while(wait_loop_index != 0U)
 80029f4:	e002      	b.n	80029fc <HAL_ADC_ConfigChannel+0x1b8>
          {
            wait_loop_index--;
 80029f6:	68bb      	ldr	r3, [r7, #8]
 80029f8:	3b01      	subs	r3, #1
 80029fa:	60bb      	str	r3, [r7, #8]
          while(wait_loop_index != 0U)
 80029fc:	68bb      	ldr	r3, [r7, #8]
 80029fe:	2b00      	cmp	r3, #0
 8002a00:	d1f9      	bne.n	80029f6 <HAL_ADC_ConfigChannel+0x1b2>
 8002a02:	e007      	b.n	8002a14 <HAL_ADC_ConfigChannel+0x1d0>
      }
    }
    else
    {
      /* Update ADC state machine to error */
      SET_BIT(hadc->State, HAL_ADC_STATE_ERROR_CONFIG);
 8002a04:	687b      	ldr	r3, [r7, #4]
 8002a06:	6a9b      	ldr	r3, [r3, #40]	@ 0x28
 8002a08:	f043 0220 	orr.w	r2, r3, #32
 8002a0c:	687b      	ldr	r3, [r7, #4]
 8002a0e:	629a      	str	r2, [r3, #40]	@ 0x28
      
      tmp_hal_status = HAL_ERROR;
 8002a10:	2301      	movs	r3, #1
 8002a12:	73fb      	strb	r3, [r7, #15]
    }
  }
  
  /* Process unlocked */
  __HAL_UNLOCK(hadc);
 8002a14:	687b      	ldr	r3, [r7, #4]
 8002a16:	2200      	movs	r2, #0
 8002a18:	f883 2024 	strb.w	r2, [r3, #36]	@ 0x24
  
  /* Return function status */
  return tmp_hal_status;
 8002a1c:	7bfb      	ldrb	r3, [r7, #15]
}
 8002a1e:	4618      	mov	r0, r3
 8002a20:	3714      	adds	r7, #20
 8002a22:	46bd      	mov	sp, r7
 8002a24:	bc80      	pop	{r7}
 8002a26:	4770      	bx	lr
 8002a28:	40012400 	.word	0x40012400
 8002a2c:	20000000 	.word	0x20000000
 8002a30:	431bde83 	.word	0x431bde83

08002a34 <ADC_Enable>:
  *         and voltage regulator must be enabled (done into HAL_ADC_Init()).
  * @param  hadc: ADC handle
  * @retval HAL status.
  */
HAL_StatusTypeDef ADC_Enable(ADC_HandleTypeDef* hadc)
{
 8002a34:	b580      	push	{r7, lr}
 8002a36:	b084      	sub	sp, #16
 8002a38:	af00      	add	r7, sp, #0
 8002a3a:	6078      	str	r0, [r7, #4]
  uint32_t tickstart = 0U;
 8002a3c:	2300      	movs	r3, #0
 8002a3e:	60fb      	str	r3, [r7, #12]
  __IO uint32_t wait_loop_index = 0U;
 8002a40:	2300      	movs	r3, #0
 8002a42:	60bb      	str	r3, [r7, #8]
  
  /* ADC enable and wait for ADC ready (in case of ADC is disabled or         */
  /* enabling phase not yet completed: flag ADC ready not yet set).           */
  /* Timeout implemented to not be stuck if ADC cannot be enabled (possible   */
  /* causes: ADC clock not running, ...).                                     */
  if (ADC_IS_ENABLE(hadc) == RESET)
 8002a44:	687b      	ldr	r3, [r7, #4]
 8002a46:	681b      	ldr	r3, [r3, #0]
 8002a48:	689b      	ldr	r3, [r3, #8]
 8002a4a:	f003 0301 	and.w	r3, r3, #1
 8002a4e:	2b01      	cmp	r3, #1
 8002a50:	d040      	beq.n	8002ad4 <ADC_Enable+0xa0>
  {
    /* Enable the Peripheral */
    __HAL_ADC_ENABLE(hadc);
 8002a52:	687b      	ldr	r3, [r7, #4]
 8002a54:	681b      	ldr	r3, [r3, #0]
 8002a56:	689a      	ldr	r2, [r3, #8]
 8002a58:	687b      	ldr	r3, [r7, #4]
 8002a5a:	681b      	ldr	r3, [r3, #0]
 8002a5c:	f042 0201 	orr.w	r2, r2, #1
 8002a60:	609a      	str	r2, [r3, #8]
    
    /* Delay for ADC stabilization time */
    /* Compute number of CPU cycles to wait for */
    wait_loop_index = (ADC_STAB_DELAY_US * (SystemCoreClock / 1000000U));
 8002a62:	4b1f      	ldr	r3, [pc, #124]	@ (8002ae0 <ADC_Enable+0xac>)
 8002a64:	681b      	ldr	r3, [r3, #0]
 8002a66:	4a1f      	ldr	r2, [pc, #124]	@ (8002ae4 <ADC_Enable+0xb0>)
 8002a68:	fba2 2303 	umull	r2, r3, r2, r3
 8002a6c:	0c9b      	lsrs	r3, r3, #18
 8002a6e:	60bb      	str	r3, [r7, #8]
    while(wait_loop_index != 0U)
 8002a70:	e002      	b.n	8002a78 <ADC_Enable+0x44>
    {
      wait_loop_index--;
 8002a72:	68bb      	ldr	r3, [r7, #8]
 8002a74:	3b01      	subs	r3, #1
 8002a76:	60bb      	str	r3, [r7, #8]
    while(wait_loop_index != 0U)
 8002a78:	68bb      	ldr	r3, [r7, #8]
 8002a7a:	2b00      	cmp	r3, #0
 8002a7c:	d1f9      	bne.n	8002a72 <ADC_Enable+0x3e>
    }
    
    /* Get tick count */
    tickstart = HAL_GetTick();
 8002a7e:	f7ff fb1d 	bl	80020bc <HAL_GetTick>
 8002a82:	60f8      	str	r0, [r7, #12]

    /* Wait for ADC effectively enabled */
    while(ADC_IS_ENABLE(hadc) == RESET)
 8002a84:	e01f      	b.n	8002ac6 <ADC_Enable+0x92>
    {
      if((HAL_GetTick() - tickstart) > ADC_ENABLE_TIMEOUT)
 8002a86:	f7ff fb19 	bl	80020bc <HAL_GetTick>
 8002a8a:	4602      	mov	r2, r0
 8002a8c:	68fb      	ldr	r3, [r7, #12]
 8002a8e:	1ad3      	subs	r3, r2, r3
 8002a90:	2b02      	cmp	r3, #2
 8002a92:	d918      	bls.n	8002ac6 <ADC_Enable+0x92>
      {
        /* New check to avoid false timeout detection in case of preemption */
        if(ADC_IS_ENABLE(hadc) == RESET)
 8002a94:	687b      	ldr	r3, [r7, #4]
 8002a96:	681b      	ldr	r3, [r3, #0]
 8002a98:	689b      	ldr	r3, [r3, #8]
 8002a9a:	f003 0301 	and.w	r3, r3, #1
 8002a9e:	2b01      	cmp	r3, #1
 8002aa0:	d011      	beq.n	8002ac6 <ADC_Enable+0x92>
        {
          /* Update ADC state machine to error */
          SET_BIT(hadc->State, HAL_ADC_STATE_ERROR_INTERNAL);
 8002aa2:	687b      	ldr	r3, [r7, #4]
 8002aa4:	6a9b      	ldr	r3, [r3, #40]	@ 0x28
 8002aa6:	f043 0210 	orr.w	r2, r3, #16
 8002aaa:	687b      	ldr	r3, [r7, #4]
 8002aac:	629a      	str	r2, [r3, #40]	@ 0x28

          /* Set ADC error code to ADC IP internal error */
          SET_BIT(hadc->ErrorCode, HAL_ADC_ERROR_INTERNAL);
 8002aae:	687b      	ldr	r3, [r7, #4]
 8002ab0:	6adb      	ldr	r3, [r3, #44]	@ 0x2c
 8002ab2:	f043 0201 	orr.w	r2, r3, #1
 8002ab6:	687b      	ldr	r3, [r7, #4]
 8002ab8:	62da      	str	r2, [r3, #44]	@ 0x2c

          /* Process unlocked */
          __HAL_UNLOCK(hadc);
 8002aba:	687b      	ldr	r3, [r7, #4]
 8002abc:	2200      	movs	r2, #0
 8002abe:	f883 2024 	strb.w	r2, [r3, #36]	@ 0x24

          return HAL_ERROR;
 8002ac2:	2301      	movs	r3, #1
 8002ac4:	e007      	b.n	8002ad6 <ADC_Enable+0xa2>
    while(ADC_IS_ENABLE(hadc) == RESET)
 8002ac6:	687b      	ldr	r3, [r7, #4]
 8002ac8:	681b      	ldr	r3, [r3, #0]
 8002aca:	689b      	ldr	r3, [r3, #8]
 8002acc:	f003 0301 	and.w	r3, r3, #1
 8002ad0:	2b01      	cmp	r3, #1
 8002ad2:	d1d8      	bne.n	8002a86 <ADC_Enable+0x52>
      }
    }
  }
   
  /* Return HAL status */
  return HAL_OK;
 8002ad4:	2300      	movs	r3, #0
}
 8002ad6:	4618      	mov	r0, r3
 8002ad8:	3710      	adds	r7, #16
 8002ada:	46bd      	mov	sp, r7
 8002adc:	bd80      	pop	{r7, pc}
 8002ade:	bf00      	nop
 8002ae0:	20000000 	.word	0x20000000
 8002ae4:	431bde83 	.word	0x431bde83

08002ae8 <ADC_ConversionStop_Disable>:
  *         stopped to disable the ADC.
  * @param  hadc: ADC handle
  * @retval HAL status.
  */
HAL_StatusTypeDef ADC_ConversionStop_Disable(ADC_HandleTypeDef* hadc)
{
 8002ae8:	b580      	push	{r7, lr}
 8002aea:	b084      	sub	sp, #16
 8002aec:	af00      	add	r7, sp, #0
 8002aee:	6078      	str	r0, [r7, #4]
  uint32_t tickstart = 0U;
 8002af0:	2300      	movs	r3, #0
 8002af2:	60fb      	str	r3, [r7, #12]
  
  /* Verification if ADC is not already disabled */
  if (ADC_IS_ENABLE(hadc) != RESET)
 8002af4:	687b      	ldr	r3, [r7, #4]
 8002af6:	681b      	ldr	r3, [r3, #0]
 8002af8:	689b      	ldr	r3, [r3, #8]
 8002afa:	f003 0301 	and.w	r3, r3, #1
 8002afe:	2b01      	cmp	r3, #1
 8002b00:	d12e      	bne.n	8002b60 <ADC_ConversionStop_Disable+0x78>
  {
    /* Disable the ADC peripheral */
    __HAL_ADC_DISABLE(hadc);
 8002b02:	687b      	ldr	r3, [r7, #4]
 8002b04:	681b      	ldr	r3, [r3, #0]
 8002b06:	689a      	ldr	r2, [r3, #8]
 8002b08:	687b      	ldr	r3, [r7, #4]
 8002b0a:	681b      	ldr	r3, [r3, #0]
 8002b0c:	f022 0201 	bic.w	r2, r2, #1
 8002b10:	609a      	str	r2, [r3, #8]
     
    /* Get tick count */
    tickstart = HAL_GetTick();
 8002b12:	f7ff fad3 	bl	80020bc <HAL_GetTick>
 8002b16:	60f8      	str	r0, [r7, #12]
    
    /* Wait for ADC effectively disabled */
    while(ADC_IS_ENABLE(hadc) != RESET)
 8002b18:	e01b      	b.n	8002b52 <ADC_ConversionStop_Disable+0x6a>
    {
      if((HAL_GetTick() - tickstart) > ADC_DISABLE_TIMEOUT)
 8002b1a:	f7ff facf 	bl	80020bc <HAL_GetTick>
 8002b1e:	4602      	mov	r2, r0
 8002b20:	68fb      	ldr	r3, [r7, #12]
 8002b22:	1ad3      	subs	r3, r2, r3
 8002b24:	2b02      	cmp	r3, #2
 8002b26:	d914      	bls.n	8002b52 <ADC_ConversionStop_Disable+0x6a>
      {
        /* New check to avoid false timeout detection in case of preemption */
        if(ADC_IS_ENABLE(hadc) != RESET)
 8002b28:	687b      	ldr	r3, [r7, #4]
 8002b2a:	681b      	ldr	r3, [r3, #0]
 8002b2c:	689b      	ldr	r3, [r3, #8]
 8002b2e:	f003 0301 	and.w	r3, r3, #1
 8002b32:	2b01      	cmp	r3, #1
 8002b34:	d10d      	bne.n	8002b52 <ADC_ConversionStop_Disable+0x6a>
        {
          /* Update ADC state machine to error */
          SET_BIT(hadc->State, HAL_ADC_STATE_ERROR_INTERNAL);
 8002b36:	687b      	ldr	r3, [r7, #4]
 8002b38:	6a9b      	ldr	r3, [r3, #40]	@ 0x28
 8002b3a:	f043 0210 	orr.w	r2, r3, #16
 8002b3e:	687b      	ldr	r3, [r7, #4]
 8002b40:	629a      	str	r2, [r3, #40]	@ 0x28

          /* Set ADC error code to ADC IP internal error */
          SET_BIT(hadc->ErrorCode, HAL_ADC_ERROR_INTERNAL);
 8002b42:	687b      	ldr	r3, [r7, #4]
 8002b44:	6adb      	ldr	r3, [r3, #44]	@ 0x2c
 8002b46:	f043 0201 	orr.w	r2, r3, #1
 8002b4a:	687b      	ldr	r3, [r7, #4]
 8002b4c:	62da      	str	r2, [r3, #44]	@ 0x2c

          return HAL_ERROR;
 8002b4e:	2301      	movs	r3, #1
 8002b50:	e007      	b.n	8002b62 <ADC_ConversionStop_Disable+0x7a>
    while(ADC_IS_ENABLE(hadc) != RESET)
 8002b52:	687b      	ldr	r3, [r7, #4]
 8002b54:	681b      	ldr	r3, [r3, #0]
 8002b56:	689b      	ldr	r3, [r3, #8]
 8002b58:	f003 0301 	and.w	r3, r3, #1
 8002b5c:	2b01      	cmp	r3, #1
 8002b5e:	d0dc      	beq.n	8002b1a <ADC_ConversionStop_Disable+0x32>
      }
    }
  }
  
  /* Return HAL status */
  return HAL_OK;
 8002b60:	2300      	movs	r3, #0
}
 8002b62:	4618      	mov	r0, r3
 8002b64:	3710      	adds	r7, #16
 8002b66:	46bd      	mov	sp, r7
 8002b68:	bd80      	pop	{r7, pc}
	...

08002b6c <HAL_ADCEx_Calibration_Start>:
  *         the completion of this function.
  * @param  hadc: ADC handle
  * @retval HAL status
  */
HAL_StatusTypeDef HAL_ADCEx_Calibration_Start(ADC_HandleTypeDef* hadc)
{
 8002b6c:	b590      	push	{r4, r7, lr}
 8002b6e:	b087      	sub	sp, #28
 8002b70:	af00      	add	r7, sp, #0
 8002b72:	6078      	str	r0, [r7, #4]
  HAL_StatusTypeDef tmp_hal_status = HAL_OK;
 8002b74:	2300      	movs	r3, #0
 8002b76:	75fb      	strb	r3, [r7, #23]
  uint32_t tickstart;
  __IO uint32_t wait_loop_index = 0U;
 8002b78:	2300      	movs	r3, #0
 8002b7a:	60fb      	str	r3, [r7, #12]
  
  /* Check the parameters */
  assert_param(IS_ADC_ALL_INSTANCE(hadc->Instance));

  /* Process locked */
  __HAL_LOCK(hadc);
 8002b7c:	687b      	ldr	r3, [r7, #4]
 8002b7e:	f893 3024 	ldrb.w	r3, [r3, #36]	@ 0x24
 8002b82:	2b01      	cmp	r3, #1
 8002b84:	d101      	bne.n	8002b8a <HAL_ADCEx_Calibration_Start+0x1e>
 8002b86:	2302      	movs	r3, #2
 8002b88:	e097      	b.n	8002cba <HAL_ADCEx_Calibration_Start+0x14e>
 8002b8a:	687b      	ldr	r3, [r7, #4]
 8002b8c:	2201      	movs	r2, #1
 8002b8e:	f883 2024 	strb.w	r2, [r3, #36]	@ 0x24
    
   /* 1. Disable ADC peripheral                                                 */
   tmp_hal_status = ADC_ConversionStop_Disable(hadc);
 8002b92:	6878      	ldr	r0, [r7, #4]
 8002b94:	f7ff ffa8 	bl	8002ae8 <ADC_ConversionStop_Disable>
 8002b98:	4603      	mov	r3, r0
 8002b9a:	75fb      	strb	r3, [r7, #23]
  
   /* 2. Calibration prerequisite delay before starting the calibration.       */
   /*    - ADC must be enabled for at least two ADC clock cycles               */
   tmp_hal_status = ADC_Enable(hadc);
 8002b9c:	6878      	ldr	r0, [r7, #4]
 8002b9e:	f7ff ff49 	bl	8002a34 <ADC_Enable>
 8002ba2:	4603      	mov	r3, r0
 8002ba4:	75fb      	strb	r3, [r7, #23]

   /* Check if ADC is effectively enabled */
   if (tmp_hal_status == HAL_OK)
 8002ba6:	7dfb      	ldrb	r3, [r7, #23]
 8002ba8:	2b00      	cmp	r3, #0
 8002baa:	f040 8081 	bne.w	8002cb0 <HAL_ADCEx_Calibration_Start+0x144>
   {
     /* Set ADC state */
     ADC_STATE_CLR_SET(hadc->State,
 8002bae:	687b      	ldr	r3, [r7, #4]
 8002bb0:	6a9b      	ldr	r3, [r3, #40]	@ 0x28
 8002bb2:	f423 5388 	bic.w	r3, r3, #4352	@ 0x1100
 8002bb6:	f023 0302 	bic.w	r3, r3, #2
 8002bba:	f043 0202 	orr.w	r2, r3, #2
 8002bbe:	687b      	ldr	r3, [r7, #4]
 8002bc0:	629a      	str	r2, [r3, #40]	@ 0x28
    
    /* Hardware prerequisite: delay before starting the calibration.          */
    /*  - Computation of CPU clock cycles corresponding to ADC clock cycles.  */
    /*  - Wait for the expected ADC clock cycles delay */
    wait_loop_index = ((SystemCoreClock
                        / HAL_RCCEx_GetPeriphCLKFreq(RCC_PERIPHCLK_ADC))
 8002bc2:	4b40      	ldr	r3, [pc, #256]	@ (8002cc4 <HAL_ADCEx_Calibration_Start+0x158>)
 8002bc4:	681c      	ldr	r4, [r3, #0]
 8002bc6:	2002      	movs	r0, #2
 8002bc8:	f001 f8e4 	bl	8003d94 <HAL_RCCEx_GetPeriphCLKFreq>
 8002bcc:	4603      	mov	r3, r0
 8002bce:	fbb4 f3f3 	udiv	r3, r4, r3
                       * ADC_PRECALIBRATION_DELAY_ADCCLOCKCYCLES        );
 8002bd2:	005b      	lsls	r3, r3, #1
    wait_loop_index = ((SystemCoreClock
 8002bd4:	60fb      	str	r3, [r7, #12]

    while(wait_loop_index != 0U)
 8002bd6:	e002      	b.n	8002bde <HAL_ADCEx_Calibration_Start+0x72>
    {
      wait_loop_index--;
 8002bd8:	68fb      	ldr	r3, [r7, #12]
 8002bda:	3b01      	subs	r3, #1
 8002bdc:	60fb      	str	r3, [r7, #12]
    while(wait_loop_index != 0U)
 8002bde:	68fb      	ldr	r3, [r7, #12]
 8002be0:	2b00      	cmp	r3, #0
 8002be2:	d1f9      	bne.n	8002bd8 <HAL_ADCEx_Calibration_Start+0x6c>
    }

    /* 3. Resets ADC calibration registers */  
    SET_BIT(hadc->Instance->CR2, ADC_CR2_RSTCAL);
 8002be4:	687b      	ldr	r3, [r7, #4]
 8002be6:	681b      	ldr	r3, [r3, #0]
 8002be8:	689a      	ldr	r2, [r3, #8]
 8002bea:	687b      	ldr	r3, [r7, #4]
 8002bec:	681b      	ldr	r3, [r3, #0]
 8002bee:	f042 0208 	orr.w	r2, r2, #8
 8002bf2:	609a      	str	r2, [r3, #8]
    
    tickstart = HAL_GetTick();  
 8002bf4:	f7ff fa62 	bl	80020bc <HAL_GetTick>
 8002bf8:	6138      	str	r0, [r7, #16]

    /* Wait for calibration reset completion */
    while(HAL_IS_BIT_SET(hadc->Instance->CR2, ADC_CR2_RSTCAL))
 8002bfa:	e01b      	b.n	8002c34 <HAL_ADCEx_Calibration_Start+0xc8>
    {
      if((HAL_GetTick() - tickstart) > ADC_CALIBRATION_TIMEOUT)
 8002bfc:	f7ff fa5e 	bl	80020bc <HAL_GetTick>
 8002c00:	4602      	mov	r2, r0
 8002c02:	693b      	ldr	r3, [r7, #16]
 8002c04:	1ad3      	subs	r3, r2, r3
 8002c06:	2b0a      	cmp	r3, #10
 8002c08:	d914      	bls.n	8002c34 <HAL_ADCEx_Calibration_Start+0xc8>
      {
        /* New check to avoid false timeout detection in case of preemption */
        if(HAL_IS_BIT_SET(hadc->Instance->CR2, ADC_CR2_RSTCAL))
 8002c0a:	687b      	ldr	r3, [r7, #4]
 8002c0c:	681b      	ldr	r3, [r3, #0]
 8002c0e:	689b      	ldr	r3, [r3, #8]
 8002c10:	f003 0308 	and.w	r3, r3, #8
 8002c14:	2b00      	cmp	r3, #0
 8002c16:	d00d      	beq.n	8002c34 <HAL_ADCEx_Calibration_Start+0xc8>
        {
          /* Update ADC state machine to error */
          ADC_STATE_CLR_SET(hadc->State,
 8002c18:	687b      	ldr	r3, [r7, #4]
 8002c1a:	6a9b      	ldr	r3, [r3, #40]	@ 0x28
 8002c1c:	f023 0312 	bic.w	r3, r3, #18
 8002c20:	f043 0210 	orr.w	r2, r3, #16
 8002c24:	687b      	ldr	r3, [r7, #4]
 8002c26:	629a      	str	r2, [r3, #40]	@ 0x28
                            HAL_ADC_STATE_BUSY_INTERNAL,
                            HAL_ADC_STATE_ERROR_INTERNAL);

          /* Process unlocked */
          __HAL_UNLOCK(hadc);
 8002c28:	687b      	ldr	r3, [r7, #4]
 8002c2a:	2200      	movs	r2, #0
 8002c2c:	f883 2024 	strb.w	r2, [r3, #36]	@ 0x24

          return HAL_ERROR;
 8002c30:	2301      	movs	r3, #1
 8002c32:	e042      	b.n	8002cba <HAL_ADCEx_Calibration_Start+0x14e>
    while(HAL_IS_BIT_SET(hadc->Instance->CR2, ADC_CR2_RSTCAL))
 8002c34:	687b      	ldr	r3, [r7, #4]
 8002c36:	681b      	ldr	r3, [r3, #0]
 8002c38:	689b      	ldr	r3, [r3, #8]
 8002c3a:	f003 0308 	and.w	r3, r3, #8
 8002c3e:	2b00      	cmp	r3, #0
 8002c40:	d1dc      	bne.n	8002bfc <HAL_ADCEx_Calibration_Start+0x90>
        }
      }
    }
    
    /* 4. Start ADC calibration */
    SET_BIT(hadc->Instance->CR2, ADC_CR2_CAL);
 8002c42:	687b      	ldr	r3, [r7, #4]
 8002c44:	681b      	ldr	r3, [r3, #0]
 8002c46:	689a      	ldr	r2, [r3, #8]
 8002c48:	687b      	ldr	r3, [r7, #4]
 8002c4a:	681b      	ldr	r3, [r3, #0]
 8002c4c:	f042 0204 	orr.w	r2, r2, #4
 8002c50:	609a      	str	r2, [r3, #8]
    
    tickstart = HAL_GetTick();  
 8002c52:	f7ff fa33 	bl	80020bc <HAL_GetTick>
 8002c56:	6138      	str	r0, [r7, #16]

    /* Wait for calibration completion */
    while(HAL_IS_BIT_SET(hadc->Instance->CR2, ADC_CR2_CAL))
 8002c58:	e01b      	b.n	8002c92 <HAL_ADCEx_Calibration_Start+0x126>
    {
      if((HAL_GetTick() - tickstart) > ADC_CALIBRATION_TIMEOUT)
 8002c5a:	f7ff fa2f 	bl	80020bc <HAL_GetTick>
 8002c5e:	4602      	mov	r2, r0
 8002c60:	693b      	ldr	r3, [r7, #16]
 8002c62:	1ad3      	subs	r3, r2, r3
 8002c64:	2b0a      	cmp	r3, #10
 8002c66:	d914      	bls.n	8002c92 <HAL_ADCEx_Calibration_Start+0x126>
      {
        /* New check to avoid false timeout detection in case of preemption */
        if(HAL_IS_BIT_SET(hadc->Instance->CR2, ADC_CR2_CAL))
 8002c68:	687b      	ldr	r3, [r7, #4]
 8002c6a:	681b      	ldr	r3, [r3, #0]
 8002c6c:	689b      	ldr	r3, [r3, #8]
 8002c6e:	f003 0304 	and.w	r3, r3, #4
 8002c72:	2b00      	cmp	r3, #0
 8002c74:	d00d      	beq.n	8002c92 <HAL_ADCEx_Calibration_Start+0x126>
        {
          /* Update ADC state machine to error */
          ADC_STATE_CLR_SET(hadc->State,
 8002c76:	687b      	ldr	r3, [r7, #4]
 8002c78:	6a9b      	ldr	r3, [r3, #40]	@ 0x28
 8002c7a:	f023 0312 	bic.w	r3, r3, #18
 8002c7e:	f043 0210 	orr.w	r2, r3, #16
 8002c82:	687b      	ldr	r3, [r7, #4]
 8002c84:	629a      	str	r2, [r3, #40]	@ 0x28
                            HAL_ADC_STATE_BUSY_INTERNAL,
                            HAL_ADC_STATE_ERROR_INTERNAL);

          /* Process unlocked */
          __HAL_UNLOCK(hadc);
 8002c86:	687b      	ldr	r3, [r7, #4]
 8002c88:	2200      	movs	r2, #0
 8002c8a:	f883 2024 	strb.w	r2, [r3, #36]	@ 0x24

          return HAL_ERROR;
 8002c8e:	2301      	movs	r3, #1
 8002c90:	e013      	b.n	8002cba <HAL_ADCEx_Calibration_Start+0x14e>
    while(HAL_IS_BIT_SET(hadc->Instance->CR2, ADC_CR2_CAL))
 8002c92:	687b      	ldr	r3, [r7, #4]
 8002c94:	681b      	ldr	r3, [r3, #0]
 8002c96:	689b      	ldr	r3, [r3, #8]
 8002c98:	f003 0304 	and.w	r3, r3, #4
 8002c9c:	2b00      	cmp	r3, #0
 8002c9e:	d1dc      	bne.n	8002c5a <HAL_ADCEx_Calibration_Start+0xee>
        }
      }
    }
    
    /* Set ADC state */
    ADC_STATE_CLR_SET(hadc->State,
 8002ca0:	687b      	ldr	r3, [r7, #4]
 8002ca2:	6a9b      	ldr	r3, [r3, #40]	@ 0x28
 8002ca4:	f023 0303 	bic.w	r3, r3, #3
 8002ca8:	f043 0201 	orr.w	r2, r3, #1
 8002cac:	687b      	ldr	r3, [r7, #4]
 8002cae:	629a      	str	r2, [r3, #40]	@ 0x28
                      HAL_ADC_STATE_BUSY_INTERNAL,
                      HAL_ADC_STATE_READY);
  }
  
  /* Process unlocked */
  __HAL_UNLOCK(hadc);
 8002cb0:	687b      	ldr	r3, [r7, #4]
 8002cb2:	2200      	movs	r2, #0
 8002cb4:	f883 2024 	strb.w	r2, [r3, #36]	@ 0x24
  
  /* Return function status */
  return tmp_hal_status;
 8002cb8:	7dfb      	ldrb	r3, [r7, #23]
}
 8002cba:	4618      	mov	r0, r3
 8002cbc:	371c      	adds	r7, #28
 8002cbe:	46bd      	mov	sp, r7
 8002cc0:	bd90      	pop	{r4, r7, pc}
 8002cc2:	bf00      	nop
 8002cc4:	20000000 	.word	0x20000000

08002cc8 <HAL_ADCEx_InjectedConvCpltCallback>:
  * @brief  Injected conversion complete callback in non blocking mode 
  * @param  hadc: ADC handle
  * @retval None
  */
__weak void HAL_ADCEx_InjectedConvCpltCallback(ADC_HandleTypeDef* hadc)
{
 8002cc8:	b480      	push	{r7}
 8002cca:	b083      	sub	sp, #12
 8002ccc:	af00      	add	r7, sp, #0
 8002cce:	6078      	str	r0, [r7, #4]
  /* Prevent unused argument(s) compilation warning */
  UNUSED(hadc);
  /* NOTE : This function Should not be modified, when the callback is needed,
            the HAL_ADCEx_InjectedConvCpltCallback could be implemented in the user file
  */
}
 8002cd0:	bf00      	nop
 8002cd2:	370c      	adds	r7, #12
 8002cd4:	46bd      	mov	sp, r7
 8002cd6:	bc80      	pop	{r7}
 8002cd8:	4770      	bx	lr
	...

08002cdc <__NVIC_SetPriorityGrouping>:
           In case of a conflict between priority grouping and available
           priority bits (__NVIC_PRIO_BITS), the smallest possible priority group is set.
  \param [in]      PriorityGroup  Priority grouping field.
 */
__STATIC_INLINE void __NVIC_SetPriorityGrouping(uint32_t PriorityGroup)
{
 8002cdc:	b480      	push	{r7}
 8002cde:	b085      	sub	sp, #20
 8002ce0:	af00      	add	r7, sp, #0
 8002ce2:	6078      	str	r0, [r7, #4]
  uint32_t reg_value;
  uint32_t PriorityGroupTmp = (PriorityGroup & (uint32_t)0x07UL);             /* only values 0..7 are used          */
 8002ce4:	687b      	ldr	r3, [r7, #4]
 8002ce6:	f003 0307 	and.w	r3, r3, #7
 8002cea:	60fb      	str	r3, [r7, #12]

  reg_value  =  SCB->AIRCR;                                                   /* read old register configuration    */
 8002cec:	4b0c      	ldr	r3, [pc, #48]	@ (8002d20 <__NVIC_SetPriorityGrouping+0x44>)
 8002cee:	68db      	ldr	r3, [r3, #12]
 8002cf0:	60bb      	str	r3, [r7, #8]
  reg_value &= ~((uint32_t)(SCB_AIRCR_VECTKEY_Msk | SCB_AIRCR_PRIGROUP_Msk)); /* clear bits to change               */
 8002cf2:	68ba      	ldr	r2, [r7, #8]
 8002cf4:	f64f 03ff 	movw	r3, #63743	@ 0xf8ff
 8002cf8:	4013      	ands	r3, r2
 8002cfa:	60bb      	str	r3, [r7, #8]
  reg_value  =  (reg_value                                   |
                ((uint32_t)0x5FAUL << SCB_AIRCR_VECTKEY_Pos) |
                (PriorityGroupTmp << SCB_AIRCR_PRIGROUP_Pos) );               /* Insert write key and priority group */
 8002cfc:	68fb      	ldr	r3, [r7, #12]
 8002cfe:	021a      	lsls	r2, r3, #8
                ((uint32_t)0x5FAUL << SCB_AIRCR_VECTKEY_Pos) |
 8002d00:	68bb      	ldr	r3, [r7, #8]
 8002d02:	4313      	orrs	r3, r2
  reg_value  =  (reg_value                                   |
 8002d04:	f043 63bf 	orr.w	r3, r3, #100139008	@ 0x5f80000
 8002d08:	f443 3300 	orr.w	r3, r3, #131072	@ 0x20000
 8002d0c:	60bb      	str	r3, [r7, #8]
  SCB->AIRCR =  reg_value;
 8002d0e:	4a04      	ldr	r2, [pc, #16]	@ (8002d20 <__NVIC_SetPriorityGrouping+0x44>)
 8002d10:	68bb      	ldr	r3, [r7, #8]
 8002d12:	60d3      	str	r3, [r2, #12]
}
 8002d14:	bf00      	nop
 8002d16:	3714      	adds	r7, #20
 8002d18:	46bd      	mov	sp, r7
 8002d1a:	bc80      	pop	{r7}
 8002d1c:	4770      	bx	lr
 8002d1e:	bf00      	nop
 8002d20:	e000ed00 	.word	0xe000ed00

08002d24 <__NVIC_GetPriorityGrouping>:
  \brief   Get Priority Grouping
  \details Reads the priority grouping field from the NVIC Interrupt Controller.
  \return                Priority grouping field (SCB->AIRCR [10:8] PRIGROUP field).
 */
__STATIC_INLINE uint32_t __NVIC_GetPriorityGrouping(void)
{
 8002d24:	b480      	push	{r7}
 8002d26:	af00      	add	r7, sp, #0
  return ((uint32_t)((SCB->AIRCR & SCB_AIRCR_PRIGROUP_Msk) >> SCB_AIRCR_PRIGROUP_Pos));
 8002d28:	4b04      	ldr	r3, [pc, #16]	@ (8002d3c <__NVIC_GetPriorityGrouping+0x18>)
 8002d2a:	68db      	ldr	r3, [r3, #12]
 8002d2c:	0a1b      	lsrs	r3, r3, #8
 8002d2e:	f003 0307 	and.w	r3, r3, #7
}
 8002d32:	4618      	mov	r0, r3
 8002d34:	46bd      	mov	sp, r7
 8002d36:	bc80      	pop	{r7}
 8002d38:	4770      	bx	lr
 8002d3a:	bf00      	nop
 8002d3c:	e000ed00 	.word	0xe000ed00

08002d40 <__NVIC_EnableIRQ>:
  \details Enables a device specific interrupt in the NVIC interrupt controller.
  \param [in]      IRQn  Device specific interrupt number.
  \note    IRQn must not be negative.
 */
__STATIC_INLINE void __NVIC_EnableIRQ(IRQn_Type IRQn)
{
 8002d40:	b480      	push	{r7}
 8002d42:	b083      	sub	sp, #12
 8002d44:	af00      	add	r7, sp, #0
 8002d46:	4603      	mov	r3, r0
 8002d48:	71fb      	strb	r3, [r7, #7]
  if ((int32_t)(IRQn) >= 0)
 8002d4a:	f997 3007 	ldrsb.w	r3, [r7, #7]
 8002d4e:	2b00      	cmp	r3, #0
 8002d50:	db0b      	blt.n	8002d6a <__NVIC_EnableIRQ+0x2a>
  {
    NVIC->ISER[(((uint32_t)IRQn) >> 5UL)] = (uint32_t)(1UL << (((uint32_t)IRQn) & 0x1FUL));
 8002d52:	79fb      	ldrb	r3, [r7, #7]
 8002d54:	f003 021f 	and.w	r2, r3, #31
 8002d58:	4906      	ldr	r1, [pc, #24]	@ (8002d74 <__NVIC_EnableIRQ+0x34>)
 8002d5a:	f997 3007 	ldrsb.w	r3, [r7, #7]
 8002d5e:	095b      	lsrs	r3, r3, #5
 8002d60:	2001      	movs	r0, #1
 8002d62:	fa00 f202 	lsl.w	r2, r0, r2
 8002d66:	f841 2023 	str.w	r2, [r1, r3, lsl #2]
  }
}
 8002d6a:	bf00      	nop
 8002d6c:	370c      	adds	r7, #12
 8002d6e:	46bd      	mov	sp, r7
 8002d70:	bc80      	pop	{r7}
 8002d72:	4770      	bx	lr
 8002d74:	e000e100 	.word	0xe000e100

08002d78 <__NVIC_SetPriority>:
  \param [in]      IRQn  Interrupt number.
  \param [in]  priority  Priority to set.
  \note    The priority cannot be set for every processor exception.
 */
__STATIC_INLINE void __NVIC_SetPriority(IRQn_Type IRQn, uint32_t priority)
{
 8002d78:	b480      	push	{r7}
 8002d7a:	b083      	sub	sp, #12
 8002d7c:	af00      	add	r7, sp, #0
 8002d7e:	4603      	mov	r3, r0
 8002d80:	6039      	str	r1, [r7, #0]
 8002d82:	71fb      	strb	r3, [r7, #7]
  if ((int32_t)(IRQn) >= 0)
 8002d84:	f997 3007 	ldrsb.w	r3, [r7, #7]
 8002d88:	2b00      	cmp	r3, #0
 8002d8a:	db0a      	blt.n	8002da2 <__NVIC_SetPriority+0x2a>
  {
    NVIC->IP[((uint32_t)IRQn)]               = (uint8_t)((priority << (8U - __NVIC_PRIO_BITS)) & (uint32_t)0xFFUL);
 8002d8c:	683b      	ldr	r3, [r7, #0]
 8002d8e:	b2da      	uxtb	r2, r3
 8002d90:	490c      	ldr	r1, [pc, #48]	@ (8002dc4 <__NVIC_SetPriority+0x4c>)
 8002d92:	f997 3007 	ldrsb.w	r3, [r7, #7]
 8002d96:	0112      	lsls	r2, r2, #4
 8002d98:	b2d2      	uxtb	r2, r2
 8002d9a:	440b      	add	r3, r1
 8002d9c:	f883 2300 	strb.w	r2, [r3, #768]	@ 0x300
  }
  else
  {
    SCB->SHP[(((uint32_t)IRQn) & 0xFUL)-4UL] = (uint8_t)((priority << (8U - __NVIC_PRIO_BITS)) & (uint32_t)0xFFUL);
  }
}
 8002da0:	e00a      	b.n	8002db8 <__NVIC_SetPriority+0x40>
    SCB->SHP[(((uint32_t)IRQn) & 0xFUL)-4UL] = (uint8_t)((priority << (8U - __NVIC_PRIO_BITS)) & (uint32_t)0xFFUL);
 8002da2:	683b      	ldr	r3, [r7, #0]
 8002da4:	b2da      	uxtb	r2, r3
 8002da6:	4908      	ldr	r1, [pc, #32]	@ (8002dc8 <__NVIC_SetPriority+0x50>)
 8002da8:	79fb      	ldrb	r3, [r7, #7]
 8002daa:	f003 030f 	and.w	r3, r3, #15
 8002dae:	3b04      	subs	r3, #4
 8002db0:	0112      	lsls	r2, r2, #4
 8002db2:	b2d2      	uxtb	r2, r2
 8002db4:	440b      	add	r3, r1
 8002db6:	761a      	strb	r2, [r3, #24]
}
 8002db8:	bf00      	nop
 8002dba:	370c      	adds	r7, #12
 8002dbc:	46bd      	mov	sp, r7
 8002dbe:	bc80      	pop	{r7}
 8002dc0:	4770      	bx	lr
 8002dc2:	bf00      	nop
 8002dc4:	e000e100 	.word	0xe000e100
 8002dc8:	e000ed00 	.word	0xe000ed00

08002dcc <NVIC_EncodePriority>:
  \param [in]   PreemptPriority  Preemptive priority value (starting from 0).
  \param [in]       SubPriority  Subpriority value (starting from 0).
  \return                        Encoded priority. Value can be used in the function \ref NVIC_SetPriority().
 */
__STATIC_INLINE uint32_t NVIC_EncodePriority (uint32_t PriorityGroup, uint32_t PreemptPriority, uint32_t SubPriority)
{
 8002dcc:	b480      	push	{r7}
 8002dce:	b089      	sub	sp, #36	@ 0x24
 8002dd0:	af00      	add	r7, sp, #0
 8002dd2:	60f8      	str	r0, [r7, #12]
 8002dd4:	60b9      	str	r1, [r7, #8]
 8002dd6:	607a      	str	r2, [r7, #4]
  uint32_t PriorityGroupTmp = (PriorityGroup & (uint32_t)0x07UL);   /* only values 0..7 are used          */
 8002dd8:	68fb      	ldr	r3, [r7, #12]
 8002dda:	f003 0307 	and.w	r3, r3, #7
 8002dde:	61fb      	str	r3, [r7, #28]
  uint32_t PreemptPriorityBits;
  uint32_t SubPriorityBits;

  PreemptPriorityBits = ((7UL - PriorityGroupTmp) > (uint32_t)(__NVIC_PRIO_BITS)) ? (uint32_t)(__NVIC_PRIO_BITS) : (uint32_t)(7UL - PriorityGroupTmp);
 8002de0:	69fb      	ldr	r3, [r7, #28]
 8002de2:	f1c3 0307 	rsb	r3, r3, #7
 8002de6:	2b04      	cmp	r3, #4
 8002de8:	bf28      	it	cs
 8002dea:	2304      	movcs	r3, #4
 8002dec:	61bb      	str	r3, [r7, #24]
  SubPriorityBits     = ((PriorityGroupTmp + (uint32_t)(__NVIC_PRIO_BITS)) < (uint32_t)7UL) ? (uint32_t)0UL : (uint32_t)((PriorityGroupTmp - 7UL) + (uint32_t)(__NVIC_PRIO_BITS));
 8002dee:	69fb      	ldr	r3, [r7, #28]
 8002df0:	3304      	adds	r3, #4
 8002df2:	2b06      	cmp	r3, #6
 8002df4:	d902      	bls.n	8002dfc <NVIC_EncodePriority+0x30>
 8002df6:	69fb      	ldr	r3, [r7, #28]
 8002df8:	3b03      	subs	r3, #3
 8002dfa:	e000      	b.n	8002dfe <NVIC_EncodePriority+0x32>
 8002dfc:	2300      	movs	r3, #0
 8002dfe:	617b      	str	r3, [r7, #20]

  return (
           ((PreemptPriority & (uint32_t)((1UL << (PreemptPriorityBits)) - 1UL)) << SubPriorityBits) |
 8002e00:	f04f 32ff 	mov.w	r2, #4294967295
 8002e04:	69bb      	ldr	r3, [r7, #24]
 8002e06:	fa02 f303 	lsl.w	r3, r2, r3
 8002e0a:	43da      	mvns	r2, r3
 8002e0c:	68bb      	ldr	r3, [r7, #8]
 8002e0e:	401a      	ands	r2, r3
 8002e10:	697b      	ldr	r3, [r7, #20]
 8002e12:	409a      	lsls	r2, r3
           ((SubPriority     & (uint32_t)((1UL << (SubPriorityBits    )) - 1UL)))
 8002e14:	f04f 31ff 	mov.w	r1, #4294967295
 8002e18:	697b      	ldr	r3, [r7, #20]
 8002e1a:	fa01 f303 	lsl.w	r3, r1, r3
 8002e1e:	43d9      	mvns	r1, r3
 8002e20:	687b      	ldr	r3, [r7, #4]
 8002e22:	400b      	ands	r3, r1
           ((PreemptPriority & (uint32_t)((1UL << (PreemptPriorityBits)) - 1UL)) << SubPriorityBits) |
 8002e24:	4313      	orrs	r3, r2
         );
}
 8002e26:	4618      	mov	r0, r3
 8002e28:	3724      	adds	r7, #36	@ 0x24
 8002e2a:	46bd      	mov	sp, r7
 8002e2c:	bc80      	pop	{r7}
 8002e2e:	4770      	bx	lr

08002e30 <SysTick_Config>:
  \note    When the variable <b>__Vendor_SysTickConfig</b> is set to 1, then the
           function <b>SysTick_Config</b> is not included. In this case, the file <b><i>device</i>.h</b>
           must contain a vendor-specific implementation of this function.
 */
__STATIC_INLINE uint32_t SysTick_Config(uint32_t ticks)
{
 8002e30:	b580      	push	{r7, lr}
 8002e32:	b082      	sub	sp, #8
 8002e34:	af00      	add	r7, sp, #0
 8002e36:	6078      	str	r0, [r7, #4]
  if ((ticks - 1UL) > SysTick_LOAD_RELOAD_Msk)
 8002e38:	687b      	ldr	r3, [r7, #4]
 8002e3a:	3b01      	subs	r3, #1
 8002e3c:	f1b3 7f80 	cmp.w	r3, #16777216	@ 0x1000000
 8002e40:	d301      	bcc.n	8002e46 <SysTick_Config+0x16>
  {
    return (1UL);                                                   /* Reload value impossible */
 8002e42:	2301      	movs	r3, #1
 8002e44:	e00f      	b.n	8002e66 <SysTick_Config+0x36>
  }

  SysTick->LOAD  = (uint32_t)(ticks - 1UL);                         /* set reload register */
 8002e46:	4a0a      	ldr	r2, [pc, #40]	@ (8002e70 <SysTick_Config+0x40>)
 8002e48:	687b      	ldr	r3, [r7, #4]
 8002e4a:	3b01      	subs	r3, #1
 8002e4c:	6053      	str	r3, [r2, #4]
  NVIC_SetPriority (SysTick_IRQn, (1UL << __NVIC_PRIO_BITS) - 1UL); /* set Priority for Systick Interrupt */
 8002e4e:	210f      	movs	r1, #15
 8002e50:	f04f 30ff 	mov.w	r0, #4294967295
 8002e54:	f7ff ff90 	bl	8002d78 <__NVIC_SetPriority>
  SysTick->VAL   = 0UL;                                             /* Load the SysTick Counter Value */
 8002e58:	4b05      	ldr	r3, [pc, #20]	@ (8002e70 <SysTick_Config+0x40>)
 8002e5a:	2200      	movs	r2, #0
 8002e5c:	609a      	str	r2, [r3, #8]
  SysTick->CTRL  = SysTick_CTRL_CLKSOURCE_Msk |
 8002e5e:	4b04      	ldr	r3, [pc, #16]	@ (8002e70 <SysTick_Config+0x40>)
 8002e60:	2207      	movs	r2, #7
 8002e62:	601a      	str	r2, [r3, #0]
                   SysTick_CTRL_TICKINT_Msk   |
                   SysTick_CTRL_ENABLE_Msk;                         /* Enable SysTick IRQ and SysTick Timer */
  return (0UL);                                                     /* Function successful */
 8002e64:	2300      	movs	r3, #0
}
 8002e66:	4618      	mov	r0, r3
 8002e68:	3708      	adds	r7, #8
 8002e6a:	46bd      	mov	sp, r7
 8002e6c:	bd80      	pop	{r7, pc}
 8002e6e:	bf00      	nop
 8002e70:	e000e010 	.word	0xe000e010

08002e74 <HAL_NVIC_SetPriorityGrouping>:
  * @note   When the NVIC_PriorityGroup_0 is selected, IRQ preemption is no more possible. 
  *         The pending IRQ priority will be managed only by the subpriority. 
  * @retval None
  */
void HAL_NVIC_SetPriorityGrouping(uint32_t PriorityGroup)
{
 8002e74:	b580      	push	{r7, lr}
 8002e76:	b082      	sub	sp, #8
 8002e78:	af00      	add	r7, sp, #0
 8002e7a:	6078      	str	r0, [r7, #4]
  /* Check the parameters */
  assert_param(IS_NVIC_PRIORITY_GROUP(PriorityGroup));
  
  /* Set the PRIGROUP[10:8] bits according to the PriorityGroup parameter value */
  NVIC_SetPriorityGrouping(PriorityGroup);
 8002e7c:	6878      	ldr	r0, [r7, #4]
 8002e7e:	f7ff ff2d 	bl	8002cdc <__NVIC_SetPriorityGrouping>
}
 8002e82:	bf00      	nop
 8002e84:	3708      	adds	r7, #8
 8002e86:	46bd      	mov	sp, r7
 8002e88:	bd80      	pop	{r7, pc}

08002e8a <HAL_NVIC_SetPriority>:
  *         This parameter can be a value between 0 and 15
  *         A lower priority value indicates a higher priority.          
  * @retval None
  */
void HAL_NVIC_SetPriority(IRQn_Type IRQn, uint32_t PreemptPriority, uint32_t SubPriority)
{ 
 8002e8a:	b580      	push	{r7, lr}
 8002e8c:	b086      	sub	sp, #24
 8002e8e:	af00      	add	r7, sp, #0
 8002e90:	4603      	mov	r3, r0
 8002e92:	60b9      	str	r1, [r7, #8]
 8002e94:	607a      	str	r2, [r7, #4]
 8002e96:	73fb      	strb	r3, [r7, #15]
  uint32_t prioritygroup = 0x00U;
 8002e98:	2300      	movs	r3, #0
 8002e9a:	617b      	str	r3, [r7, #20]
  
  /* Check the parameters */
  assert_param(IS_NVIC_SUB_PRIORITY(SubPriority));
  assert_param(IS_NVIC_PREEMPTION_PRIORITY(PreemptPriority));
  
  prioritygroup = NVIC_GetPriorityGrouping();
 8002e9c:	f7ff ff42 	bl	8002d24 <__NVIC_GetPriorityGrouping>
 8002ea0:	6178      	str	r0, [r7, #20]
  
  NVIC_SetPriority(IRQn, NVIC_EncodePriority(prioritygroup, PreemptPriority, SubPriority));
 8002ea2:	687a      	ldr	r2, [r7, #4]
 8002ea4:	68b9      	ldr	r1, [r7, #8]
 8002ea6:	6978      	ldr	r0, [r7, #20]
 8002ea8:	f7ff ff90 	bl	8002dcc <NVIC_EncodePriority>
 8002eac:	4602      	mov	r2, r0
 8002eae:	f997 300f 	ldrsb.w	r3, [r7, #15]
 8002eb2:	4611      	mov	r1, r2
 8002eb4:	4618      	mov	r0, r3
 8002eb6:	f7ff ff5f 	bl	8002d78 <__NVIC_SetPriority>
}
 8002eba:	bf00      	nop
 8002ebc:	3718      	adds	r7, #24
 8002ebe:	46bd      	mov	sp, r7
 8002ec0:	bd80      	pop	{r7, pc}

08002ec2 <HAL_NVIC_EnableIRQ>:
  *         This parameter can be an enumerator of IRQn_Type enumeration
  *         (For the complete STM32 Devices IRQ Channels list, please refer to the appropriate CMSIS device file (stm32f10xxx.h))
  * @retval None
  */
void HAL_NVIC_EnableIRQ(IRQn_Type IRQn)
{
 8002ec2:	b580      	push	{r7, lr}
 8002ec4:	b082      	sub	sp, #8
 8002ec6:	af00      	add	r7, sp, #0
 8002ec8:	4603      	mov	r3, r0
 8002eca:	71fb      	strb	r3, [r7, #7]
  /* Check the parameters */
  assert_param(IS_NVIC_DEVICE_IRQ(IRQn));

  /* Enable interrupt */
  NVIC_EnableIRQ(IRQn);
 8002ecc:	f997 3007 	ldrsb.w	r3, [r7, #7]
 8002ed0:	4618      	mov	r0, r3
 8002ed2:	f7ff ff35 	bl	8002d40 <__NVIC_EnableIRQ>
}
 8002ed6:	bf00      	nop
 8002ed8:	3708      	adds	r7, #8
 8002eda:	46bd      	mov	sp, r7
 8002edc:	bd80      	pop	{r7, pc}

08002ede <HAL_SYSTICK_Config>:
  * @param  TicksNumb: Specifies the ticks Number of ticks between two interrupts.
  * @retval status:  - 0  Function succeeded.
  *                  - 1  Function failed.
  */
uint32_t HAL_SYSTICK_Config(uint32_t TicksNumb)
{
 8002ede:	b580      	push	{r7, lr}
 8002ee0:	b082      	sub	sp, #8
 8002ee2:	af00      	add	r7, sp, #0
 8002ee4:	6078      	str	r0, [r7, #4]
   return SysTick_Config(TicksNumb);
 8002ee6:	6878      	ldr	r0, [r7, #4]
 8002ee8:	f7ff ffa2 	bl	8002e30 <SysTick_Config>
 8002eec:	4603      	mov	r3, r0
}
 8002eee:	4618      	mov	r0, r3
 8002ef0:	3708      	adds	r7, #8
 8002ef2:	46bd      	mov	sp, r7
 8002ef4:	bd80      	pop	{r7, pc}

08002ef6 <HAL_DMA_Abort>:
  * @param  hdma: pointer to a DMA_HandleTypeDef structure that contains
  *               the configuration information for the specified DMA Channel.
  * @retval HAL status
  */
HAL_StatusTypeDef HAL_DMA_Abort(DMA_HandleTypeDef *hdma)
{
 8002ef6:	b480      	push	{r7}
 8002ef8:	b085      	sub	sp, #20
 8002efa:	af00      	add	r7, sp, #0
 8002efc:	6078      	str	r0, [r7, #4]
  HAL_StatusTypeDef status = HAL_OK;
 8002efe:	2300      	movs	r3, #0
 8002f00:	73fb      	strb	r3, [r7, #15]
  
  if(hdma->State != HAL_DMA_STATE_BUSY)
 8002f02:	687b      	ldr	r3, [r7, #4]
 8002f04:	f893 3021 	ldrb.w	r3, [r3, #33]	@ 0x21
 8002f08:	b2db      	uxtb	r3, r3
 8002f0a:	2b02      	cmp	r3, #2
 8002f0c:	d008      	beq.n	8002f20 <HAL_DMA_Abort+0x2a>
  {
    /* no transfer ongoing */
    hdma->ErrorCode = HAL_DMA_ERROR_NO_XFER;
 8002f0e:	687b      	ldr	r3, [r7, #4]
 8002f10:	2204      	movs	r2, #4
 8002f12:	639a      	str	r2, [r3, #56]	@ 0x38
    
    /* Process Unlocked */
    __HAL_UNLOCK(hdma);
 8002f14:	687b      	ldr	r3, [r7, #4]
 8002f16:	2200      	movs	r2, #0
 8002f18:	f883 2020 	strb.w	r2, [r3, #32]
    
    return HAL_ERROR;
 8002f1c:	2301      	movs	r3, #1
 8002f1e:	e020      	b.n	8002f62 <HAL_DMA_Abort+0x6c>
  }
  else

  {
    /* Disable DMA IT */
    __HAL_DMA_DISABLE_IT(hdma, (DMA_IT_TC | DMA_IT_HT | DMA_IT_TE));
 8002f20:	687b      	ldr	r3, [r7, #4]
 8002f22:	681b      	ldr	r3, [r3, #0]
 8002f24:	681a      	ldr	r2, [r3, #0]
 8002f26:	687b      	ldr	r3, [r7, #4]
 8002f28:	681b      	ldr	r3, [r3, #0]
 8002f2a:	f022 020e 	bic.w	r2, r2, #14
 8002f2e:	601a      	str	r2, [r3, #0]
      
    /* Disable the channel */
    __HAL_DMA_DISABLE(hdma);
 8002f30:	687b      	ldr	r3, [r7, #4]
 8002f32:	681b      	ldr	r3, [r3, #0]
 8002f34:	681a      	ldr	r2, [r3, #0]
 8002f36:	687b      	ldr	r3, [r7, #4]
 8002f38:	681b      	ldr	r3, [r3, #0]
 8002f3a:	f022 0201 	bic.w	r2, r2, #1
 8002f3e:	601a      	str	r2, [r3, #0]
      
    /* Clear all flags */
    hdma->DmaBaseAddress->IFCR = (DMA_ISR_GIF1 << hdma->ChannelIndex);
 8002f40:	687b      	ldr	r3, [r7, #4]
 8002f42:	6c1a      	ldr	r2, [r3, #64]	@ 0x40
 8002f44:	687b      	ldr	r3, [r7, #4]
 8002f46:	6bdb      	ldr	r3, [r3, #60]	@ 0x3c
 8002f48:	2101      	movs	r1, #1
 8002f4a:	fa01 f202 	lsl.w	r2, r1, r2
 8002f4e:	605a      	str	r2, [r3, #4]
  }
  /* Change the DMA state */
  hdma->State = HAL_DMA_STATE_READY;
 8002f50:	687b      	ldr	r3, [r7, #4]
 8002f52:	2201      	movs	r2, #1
 8002f54:	f883 2021 	strb.w	r2, [r3, #33]	@ 0x21

  /* Process Unlocked */
  __HAL_UNLOCK(hdma);      
 8002f58:	687b      	ldr	r3, [r7, #4]
 8002f5a:	2200      	movs	r2, #0
 8002f5c:	f883 2020 	strb.w	r2, [r3, #32]
  
  return status; 
 8002f60:	7bfb      	ldrb	r3, [r7, #15]
}
 8002f62:	4618      	mov	r0, r3
 8002f64:	3714      	adds	r7, #20
 8002f66:	46bd      	mov	sp, r7
 8002f68:	bc80      	pop	{r7}
 8002f6a:	4770      	bx	lr

08002f6c <HAL_DMA_Abort_IT>:
  * @param  hdma  : pointer to a DMA_HandleTypeDef structure that contains
  *                 the configuration information for the specified DMA Channel.
  * @retval HAL status
  */
HAL_StatusTypeDef HAL_DMA_Abort_IT(DMA_HandleTypeDef *hdma)
{  
 8002f6c:	b580      	push	{r7, lr}
 8002f6e:	b084      	sub	sp, #16
 8002f70:	af00      	add	r7, sp, #0
 8002f72:	6078      	str	r0, [r7, #4]
  HAL_StatusTypeDef status = HAL_OK;
 8002f74:	2300      	movs	r3, #0
 8002f76:	73fb      	strb	r3, [r7, #15]
  
  if(HAL_DMA_STATE_BUSY != hdma->State)
 8002f78:	687b      	ldr	r3, [r7, #4]
 8002f7a:	f893 3021 	ldrb.w	r3, [r3, #33]	@ 0x21
 8002f7e:	b2db      	uxtb	r3, r3
 8002f80:	2b02      	cmp	r3, #2
 8002f82:	d005      	beq.n	8002f90 <HAL_DMA_Abort_IT+0x24>
  {
    /* no transfer ongoing */
    hdma->ErrorCode = HAL_DMA_ERROR_NO_XFER;
 8002f84:	687b      	ldr	r3, [r7, #4]
 8002f86:	2204      	movs	r2, #4
 8002f88:	639a      	str	r2, [r3, #56]	@ 0x38
        
    status = HAL_ERROR;
 8002f8a:	2301      	movs	r3, #1
 8002f8c:	73fb      	strb	r3, [r7, #15]
 8002f8e:	e051      	b.n	8003034 <HAL_DMA_Abort_IT+0xc8>
  }
  else
  { 
    /* Disable DMA IT */
    __HAL_DMA_DISABLE_IT(hdma, (DMA_IT_TC | DMA_IT_HT | DMA_IT_TE));
 8002f90:	687b      	ldr	r3, [r7, #4]
 8002f92:	681b      	ldr	r3, [r3, #0]
 8002f94:	681a      	ldr	r2, [r3, #0]
 8002f96:	687b      	ldr	r3, [r7, #4]
 8002f98:	681b      	ldr	r3, [r3, #0]
 8002f9a:	f022 020e 	bic.w	r2, r2, #14
 8002f9e:	601a      	str	r2, [r3, #0]

    /* Disable the channel */
    __HAL_DMA_DISABLE(hdma);
 8002fa0:	687b      	ldr	r3, [r7, #4]
 8002fa2:	681b      	ldr	r3, [r3, #0]
 8002fa4:	681a      	ldr	r2, [r3, #0]
 8002fa6:	687b      	ldr	r3, [r7, #4]
 8002fa8:	681b      	ldr	r3, [r3, #0]
 8002faa:	f022 0201 	bic.w	r2, r2, #1
 8002fae:	601a      	str	r2, [r3, #0]

    /* Clear all flags */
    __HAL_DMA_CLEAR_FLAG(hdma, __HAL_DMA_GET_GI_FLAG_INDEX(hdma));
 8002fb0:	687b      	ldr	r3, [r7, #4]
 8002fb2:	681b      	ldr	r3, [r3, #0]
 8002fb4:	4a22      	ldr	r2, [pc, #136]	@ (8003040 <HAL_DMA_Abort_IT+0xd4>)
 8002fb6:	4293      	cmp	r3, r2
 8002fb8:	d029      	beq.n	800300e <HAL_DMA_Abort_IT+0xa2>
 8002fba:	687b      	ldr	r3, [r7, #4]
 8002fbc:	681b      	ldr	r3, [r3, #0]
 8002fbe:	4a21      	ldr	r2, [pc, #132]	@ (8003044 <HAL_DMA_Abort_IT+0xd8>)
 8002fc0:	4293      	cmp	r3, r2
 8002fc2:	d022      	beq.n	800300a <HAL_DMA_Abort_IT+0x9e>
 8002fc4:	687b      	ldr	r3, [r7, #4]
 8002fc6:	681b      	ldr	r3, [r3, #0]
 8002fc8:	4a1f      	ldr	r2, [pc, #124]	@ (8003048 <HAL_DMA_Abort_IT+0xdc>)
 8002fca:	4293      	cmp	r3, r2
 8002fcc:	d01a      	beq.n	8003004 <HAL_DMA_Abort_IT+0x98>
 8002fce:	687b      	ldr	r3, [r7, #4]
 8002fd0:	681b      	ldr	r3, [r3, #0]
 8002fd2:	4a1e      	ldr	r2, [pc, #120]	@ (800304c <HAL_DMA_Abort_IT+0xe0>)
 8002fd4:	4293      	cmp	r3, r2
 8002fd6:	d012      	beq.n	8002ffe <HAL_DMA_Abort_IT+0x92>
 8002fd8:	687b      	ldr	r3, [r7, #4]
 8002fda:	681b      	ldr	r3, [r3, #0]
 8002fdc:	4a1c      	ldr	r2, [pc, #112]	@ (8003050 <HAL_DMA_Abort_IT+0xe4>)
 8002fde:	4293      	cmp	r3, r2
 8002fe0:	d00a      	beq.n	8002ff8 <HAL_DMA_Abort_IT+0x8c>
 8002fe2:	687b      	ldr	r3, [r7, #4]
 8002fe4:	681b      	ldr	r3, [r3, #0]
 8002fe6:	4a1b      	ldr	r2, [pc, #108]	@ (8003054 <HAL_DMA_Abort_IT+0xe8>)
 8002fe8:	4293      	cmp	r3, r2
 8002fea:	d102      	bne.n	8002ff2 <HAL_DMA_Abort_IT+0x86>
 8002fec:	f44f 1380 	mov.w	r3, #1048576	@ 0x100000
 8002ff0:	e00e      	b.n	8003010 <HAL_DMA_Abort_IT+0xa4>
 8002ff2:	f04f 7380 	mov.w	r3, #16777216	@ 0x1000000
 8002ff6:	e00b      	b.n	8003010 <HAL_DMA_Abort_IT+0xa4>
 8002ff8:	f44f 3380 	mov.w	r3, #65536	@ 0x10000
 8002ffc:	e008      	b.n	8003010 <HAL_DMA_Abort_IT+0xa4>
 8002ffe:	f44f 5380 	mov.w	r3, #4096	@ 0x1000
 8003002:	e005      	b.n	8003010 <HAL_DMA_Abort_IT+0xa4>
 8003004:	f44f 7380 	mov.w	r3, #256	@ 0x100
 8003008:	e002      	b.n	8003010 <HAL_DMA_Abort_IT+0xa4>
 800300a:	2310      	movs	r3, #16
 800300c:	e000      	b.n	8003010 <HAL_DMA_Abort_IT+0xa4>
 800300e:	2301      	movs	r3, #1
 8003010:	4a11      	ldr	r2, [pc, #68]	@ (8003058 <HAL_DMA_Abort_IT+0xec>)
 8003012:	6053      	str	r3, [r2, #4]

    /* Change the DMA state */
    hdma->State = HAL_DMA_STATE_READY;
 8003014:	687b      	ldr	r3, [r7, #4]
 8003016:	2201      	movs	r2, #1
 8003018:	f883 2021 	strb.w	r2, [r3, #33]	@ 0x21

    /* Process Unlocked */
    __HAL_UNLOCK(hdma);
 800301c:	687b      	ldr	r3, [r7, #4]
 800301e:	2200      	movs	r2, #0
 8003020:	f883 2020 	strb.w	r2, [r3, #32]

    /* Call User Abort callback */
    if(hdma->XferAbortCallback != NULL)
 8003024:	687b      	ldr	r3, [r7, #4]
 8003026:	6b5b      	ldr	r3, [r3, #52]	@ 0x34
 8003028:	2b00      	cmp	r3, #0
 800302a:	d003      	beq.n	8003034 <HAL_DMA_Abort_IT+0xc8>
    {
      hdma->XferAbortCallback(hdma);
 800302c:	687b      	ldr	r3, [r7, #4]
 800302e:	6b5b      	ldr	r3, [r3, #52]	@ 0x34
 8003030:	6878      	ldr	r0, [r7, #4]
 8003032:	4798      	blx	r3
    } 
  }
  return status;
 8003034:	7bfb      	ldrb	r3, [r7, #15]
}
 8003036:	4618      	mov	r0, r3
 8003038:	3710      	adds	r7, #16
 800303a:	46bd      	mov	sp, r7
 800303c:	bd80      	pop	{r7, pc}
 800303e:	bf00      	nop
 8003040:	40020008 	.word	0x40020008
 8003044:	4002001c 	.word	0x4002001c
 8003048:	40020030 	.word	0x40020030
 800304c:	40020044 	.word	0x40020044
 8003050:	40020058 	.word	0x40020058
 8003054:	4002006c 	.word	0x4002006c
 8003058:	40020000 	.word	0x40020000

0800305c <HAL_GPIO_Init>:
  * @param  GPIO_Init: pointer to a GPIO_InitTypeDef structure that contains
  *         the configuration information for the specified GPIO peripheral.
  * @retval None
  */
void HAL_GPIO_Init(GPIO_TypeDef  *GPIOx, GPIO_InitTypeDef *GPIO_Init)
{
 800305c:	b480      	push	{r7}
 800305e:	b08b      	sub	sp, #44	@ 0x2c
 8003060:	af00      	add	r7, sp, #0
 8003062:	6078      	str	r0, [r7, #4]
 8003064:	6039      	str	r1, [r7, #0]
  uint32_t position = 0x00u;
 8003066:	2300      	movs	r3, #0
 8003068:	627b      	str	r3, [r7, #36]	@ 0x24
  uint32_t ioposition;
  uint32_t iocurrent;
  uint32_t temp;
  uint32_t config = 0x00u;
 800306a:	2300      	movs	r3, #0
 800306c:	623b      	str	r3, [r7, #32]
  assert_param(IS_GPIO_ALL_INSTANCE(GPIOx));
  assert_param(IS_GPIO_PIN(GPIO_Init->Pin));
  assert_param(IS_GPIO_MODE(GPIO_Init->Mode));

  /* Configure the port pins */
  while (((GPIO_Init->Pin) >> position) != 0x00u)
 800306e:	e169      	b.n	8003344 <HAL_GPIO_Init+0x2e8>
  {
    /* Get the IO position */
    ioposition = (0x01uL << position);
 8003070:	2201      	movs	r2, #1
 8003072:	6a7b      	ldr	r3, [r7, #36]	@ 0x24
 8003074:	fa02 f303 	lsl.w	r3, r2, r3
 8003078:	61fb      	str	r3, [r7, #28]

    /* Get the current IO position */
    iocurrent = (uint32_t)(GPIO_Init->Pin) & ioposition;
 800307a:	683b      	ldr	r3, [r7, #0]
 800307c:	681b      	ldr	r3, [r3, #0]
 800307e:	69fa      	ldr	r2, [r7, #28]
 8003080:	4013      	ands	r3, r2
 8003082:	61bb      	str	r3, [r7, #24]

    if (iocurrent == ioposition)
 8003084:	69ba      	ldr	r2, [r7, #24]
 8003086:	69fb      	ldr	r3, [r7, #28]
 8003088:	429a      	cmp	r2, r3
 800308a:	f040 8158 	bne.w	800333e <HAL_GPIO_Init+0x2e2>
    {
      /* Check the Alternate function parameters */
      assert_param(IS_GPIO_AF_INSTANCE(GPIOx));

      /* Based on the required mode, filling config variable with MODEy[1:0] and CNFy[3:2] corresponding bits */
      switch (GPIO_Init->Mode)
 800308e:	683b      	ldr	r3, [r7, #0]
 8003090:	685b      	ldr	r3, [r3, #4]
 8003092:	4a9a      	ldr	r2, [pc, #616]	@ (80032fc <HAL_GPIO_Init+0x2a0>)
 8003094:	4293      	cmp	r3, r2
 8003096:	d05e      	beq.n	8003156 <HAL_GPIO_Init+0xfa>
 8003098:	4a98      	ldr	r2, [pc, #608]	@ (80032fc <HAL_GPIO_Init+0x2a0>)
 800309a:	4293      	cmp	r3, r2
 800309c:	d875      	bhi.n	800318a <HAL_GPIO_Init+0x12e>
 800309e:	4a98      	ldr	r2, [pc, #608]	@ (8003300 <HAL_GPIO_Init+0x2a4>)
 80030a0:	4293      	cmp	r3, r2
 80030a2:	d058      	beq.n	8003156 <HAL_GPIO_Init+0xfa>
 80030a4:	4a96      	ldr	r2, [pc, #600]	@ (8003300 <HAL_GPIO_Init+0x2a4>)
 80030a6:	4293      	cmp	r3, r2
 80030a8:	d86f      	bhi.n	800318a <HAL_GPIO_Init+0x12e>
 80030aa:	4a96      	ldr	r2, [pc, #600]	@ (8003304 <HAL_GPIO_Init+0x2a8>)
 80030ac:	4293      	cmp	r3, r2
 80030ae:	d052      	beq.n	8003156 <HAL_GPIO_Init+0xfa>
 80030b0:	4a94      	ldr	r2, [pc, #592]	@ (8003304 <HAL_GPIO_Init+0x2a8>)
 80030b2:	4293      	cmp	r3, r2
 80030b4:	d869      	bhi.n	800318a <HAL_GPIO_Init+0x12e>
 80030b6:	4a94      	ldr	r2, [pc, #592]	@ (8003308 <HAL_GPIO_Init+0x2ac>)
 80030b8:	4293      	cmp	r3, r2
 80030ba:	d04c      	beq.n	8003156 <HAL_GPIO_Init+0xfa>
 80030bc:	4a92      	ldr	r2, [pc, #584]	@ (8003308 <HAL_GPIO_Init+0x2ac>)
 80030be:	4293      	cmp	r3, r2
 80030c0:	d863      	bhi.n	800318a <HAL_GPIO_Init+0x12e>
 80030c2:	4a92      	ldr	r2, [pc, #584]	@ (800330c <HAL_GPIO_Init+0x2b0>)
 80030c4:	4293      	cmp	r3, r2
 80030c6:	d046      	beq.n	8003156 <HAL_GPIO_Init+0xfa>
 80030c8:	4a90      	ldr	r2, [pc, #576]	@ (800330c <HAL_GPIO_Init+0x2b0>)
 80030ca:	4293      	cmp	r3, r2
 80030cc:	d85d      	bhi.n	800318a <HAL_GPIO_Init+0x12e>
 80030ce:	2b12      	cmp	r3, #18
 80030d0:	d82a      	bhi.n	8003128 <HAL_GPIO_Init+0xcc>
 80030d2:	2b12      	cmp	r3, #18
 80030d4:	d859      	bhi.n	800318a <HAL_GPIO_Init+0x12e>
 80030d6:	a201      	add	r2, pc, #4	@ (adr r2, 80030dc <HAL_GPIO_Init+0x80>)
 80030d8:	f852 f023 	ldr.w	pc, [r2, r3, lsl #2]
 80030dc:	08003157 	.word	0x08003157
 80030e0:	08003131 	.word	0x08003131
 80030e4:	08003143 	.word	0x08003143
 80030e8:	08003185 	.word	0x08003185
 80030ec:	0800318b 	.word	0x0800318b
 80030f0:	0800318b 	.word	0x0800318b
 80030f4:	0800318b 	.word	0x0800318b
 80030f8:	0800318b 	.word	0x0800318b
 80030fc:	0800318b 	.word	0x0800318b
 8003100:	0800318b 	.word	0x0800318b
 8003104:	0800318b 	.word	0x0800318b
 8003108:	0800318b 	.word	0x0800318b
 800310c:	0800318b 	.word	0x0800318b
 8003110:	0800318b 	.word	0x0800318b
 8003114:	0800318b 	.word	0x0800318b
 8003118:	0800318b 	.word	0x0800318b
 800311c:	0800318b 	.word	0x0800318b
 8003120:	08003139 	.word	0x08003139
 8003124:	0800314d 	.word	0x0800314d
 8003128:	4a79      	ldr	r2, [pc, #484]	@ (8003310 <HAL_GPIO_Init+0x2b4>)
 800312a:	4293      	cmp	r3, r2
 800312c:	d013      	beq.n	8003156 <HAL_GPIO_Init+0xfa>
          config = GPIO_CR_MODE_INPUT + GPIO_CR_CNF_ANALOG;
          break;

        /* Parameters are checked with assert_param */
        default:
          break;
 800312e:	e02c      	b.n	800318a <HAL_GPIO_Init+0x12e>
          config = GPIO_Init->Speed + GPIO_CR_CNF_GP_OUTPUT_PP;
 8003130:	683b      	ldr	r3, [r7, #0]
 8003132:	68db      	ldr	r3, [r3, #12]
 8003134:	623b      	str	r3, [r7, #32]
          break;
 8003136:	e029      	b.n	800318c <HAL_GPIO_Init+0x130>
          config = GPIO_Init->Speed + GPIO_CR_CNF_GP_OUTPUT_OD;
 8003138:	683b      	ldr	r3, [r7, #0]
 800313a:	68db      	ldr	r3, [r3, #12]
 800313c:	3304      	adds	r3, #4
 800313e:	623b      	str	r3, [r7, #32]
          break;
 8003140:	e024      	b.n	800318c <HAL_GPIO_Init+0x130>
          config = GPIO_Init->Speed + GPIO_CR_CNF_AF_OUTPUT_PP;
 8003142:	683b      	ldr	r3, [r7, #0]
 8003144:	68db      	ldr	r3, [r3, #12]
 8003146:	3308      	adds	r3, #8
 8003148:	623b      	str	r3, [r7, #32]
          break;
 800314a:	e01f      	b.n	800318c <HAL_GPIO_Init+0x130>
          config = GPIO_Init->Speed + GPIO_CR_CNF_AF_OUTPUT_OD;
 800314c:	683b      	ldr	r3, [r7, #0]
 800314e:	68db      	ldr	r3, [r3, #12]
 8003150:	330c      	adds	r3, #12
 8003152:	623b      	str	r3, [r7, #32]
          break;
 8003154:	e01a      	b.n	800318c <HAL_GPIO_Init+0x130>
          if (GPIO_Init->Pull == GPIO_NOPULL)
 8003156:	683b      	ldr	r3, [r7, #0]
 8003158:	689b      	ldr	r3, [r3, #8]
 800315a:	2b00      	cmp	r3, #0
 800315c:	d102      	bne.n	8003164 <HAL_GPIO_Init+0x108>
            config = GPIO_CR_MODE_INPUT + GPIO_CR_CNF_INPUT_FLOATING;
 800315e:	2304      	movs	r3, #4
 8003160:	623b      	str	r3, [r7, #32]
          break;
 8003162:	e013      	b.n	800318c <HAL_GPIO_Init+0x130>
          else if (GPIO_Init->Pull == GPIO_PULLUP)
 8003164:	683b      	ldr	r3, [r7, #0]
 8003166:	689b      	ldr	r3, [r3, #8]
 8003168:	2b01      	cmp	r3, #1
 800316a:	d105      	bne.n	8003178 <HAL_GPIO_Init+0x11c>
            config = GPIO_CR_MODE_INPUT + GPIO_CR_CNF_INPUT_PU_PD;
 800316c:	2308      	movs	r3, #8
 800316e:	623b      	str	r3, [r7, #32]
            GPIOx->BSRR = ioposition;
 8003170:	687b      	ldr	r3, [r7, #4]
 8003172:	69fa      	ldr	r2, [r7, #28]
 8003174:	611a      	str	r2, [r3, #16]
          break;
 8003176:	e009      	b.n	800318c <HAL_GPIO_Init+0x130>
            config = GPIO_CR_MODE_INPUT + GPIO_CR_CNF_INPUT_PU_PD;
 8003178:	2308      	movs	r3, #8
 800317a:	623b      	str	r3, [r7, #32]
            GPIOx->BRR = ioposition;
 800317c:	687b      	ldr	r3, [r7, #4]
 800317e:	69fa      	ldr	r2, [r7, #28]
 8003180:	615a      	str	r2, [r3, #20]
          break;
 8003182:	e003      	b.n	800318c <HAL_GPIO_Init+0x130>
          config = GPIO_CR_MODE_INPUT + GPIO_CR_CNF_ANALOG;
 8003184:	2300      	movs	r3, #0
 8003186:	623b      	str	r3, [r7, #32]
          break;
 8003188:	e000      	b.n	800318c <HAL_GPIO_Init+0x130>
          break;
 800318a:	bf00      	nop
      }

      /* Check if the current bit belongs to first half or last half of the pin count number
       in order to address CRH or CRL register*/
      configregister = (iocurrent < GPIO_PIN_8) ? &GPIOx->CRL     : &GPIOx->CRH;
 800318c:	69bb      	ldr	r3, [r7, #24]
 800318e:	2bff      	cmp	r3, #255	@ 0xff
 8003190:	d801      	bhi.n	8003196 <HAL_GPIO_Init+0x13a>
 8003192:	687b      	ldr	r3, [r7, #4]
 8003194:	e001      	b.n	800319a <HAL_GPIO_Init+0x13e>
 8003196:	687b      	ldr	r3, [r7, #4]
 8003198:	3304      	adds	r3, #4
 800319a:	617b      	str	r3, [r7, #20]
      registeroffset = (iocurrent < GPIO_PIN_8) ? (position << 2u) : ((position - 8u) << 2u);
 800319c:	69bb      	ldr	r3, [r7, #24]
 800319e:	2bff      	cmp	r3, #255	@ 0xff
 80031a0:	d802      	bhi.n	80031a8 <HAL_GPIO_Init+0x14c>
 80031a2:	6a7b      	ldr	r3, [r7, #36]	@ 0x24
 80031a4:	009b      	lsls	r3, r3, #2
 80031a6:	e002      	b.n	80031ae <HAL_GPIO_Init+0x152>
 80031a8:	6a7b      	ldr	r3, [r7, #36]	@ 0x24
 80031aa:	3b08      	subs	r3, #8
 80031ac:	009b      	lsls	r3, r3, #2
 80031ae:	613b      	str	r3, [r7, #16]

      /* Apply the new configuration of the pin to the register */
      MODIFY_REG((*configregister), ((GPIO_CRL_MODE0 | GPIO_CRL_CNF0) << registeroffset), (config << registeroffset));
 80031b0:	697b      	ldr	r3, [r7, #20]
 80031b2:	681a      	ldr	r2, [r3, #0]
 80031b4:	210f      	movs	r1, #15
 80031b6:	693b      	ldr	r3, [r7, #16]
 80031b8:	fa01 f303 	lsl.w	r3, r1, r3
 80031bc:	43db      	mvns	r3, r3
 80031be:	401a      	ands	r2, r3
 80031c0:	6a39      	ldr	r1, [r7, #32]
 80031c2:	693b      	ldr	r3, [r7, #16]
 80031c4:	fa01 f303 	lsl.w	r3, r1, r3
 80031c8:	431a      	orrs	r2, r3
 80031ca:	697b      	ldr	r3, [r7, #20]
 80031cc:	601a      	str	r2, [r3, #0]

      /*--------------------- EXTI Mode Configuration ------------------------*/
      /* Configure the External Interrupt or event for the current IO */
      if ((GPIO_Init->Mode & EXTI_MODE) == EXTI_MODE)
 80031ce:	683b      	ldr	r3, [r7, #0]
 80031d0:	685b      	ldr	r3, [r3, #4]
 80031d2:	f003 5380 	and.w	r3, r3, #268435456	@ 0x10000000
 80031d6:	2b00      	cmp	r3, #0
 80031d8:	f000 80b1 	beq.w	800333e <HAL_GPIO_Init+0x2e2>
      {
        /* Enable AFIO Clock */
        __HAL_RCC_AFIO_CLK_ENABLE();
 80031dc:	4b4d      	ldr	r3, [pc, #308]	@ (8003314 <HAL_GPIO_Init+0x2b8>)
 80031de:	699b      	ldr	r3, [r3, #24]
 80031e0:	4a4c      	ldr	r2, [pc, #304]	@ (8003314 <HAL_GPIO_Init+0x2b8>)
 80031e2:	f043 0301 	orr.w	r3, r3, #1
 80031e6:	6193      	str	r3, [r2, #24]
 80031e8:	4b4a      	ldr	r3, [pc, #296]	@ (8003314 <HAL_GPIO_Init+0x2b8>)
 80031ea:	699b      	ldr	r3, [r3, #24]
 80031ec:	f003 0301 	and.w	r3, r3, #1
 80031f0:	60bb      	str	r3, [r7, #8]
 80031f2:	68bb      	ldr	r3, [r7, #8]
        temp = AFIO->EXTICR[position >> 2u];
 80031f4:	4a48      	ldr	r2, [pc, #288]	@ (8003318 <HAL_GPIO_Init+0x2bc>)
 80031f6:	6a7b      	ldr	r3, [r7, #36]	@ 0x24
 80031f8:	089b      	lsrs	r3, r3, #2
 80031fa:	3302      	adds	r3, #2
 80031fc:	f852 3023 	ldr.w	r3, [r2, r3, lsl #2]
 8003200:	60fb      	str	r3, [r7, #12]
        CLEAR_BIT(temp, (0x0Fu) << (4u * (position & 0x03u)));
 8003202:	6a7b      	ldr	r3, [r7, #36]	@ 0x24
 8003204:	f003 0303 	and.w	r3, r3, #3
 8003208:	009b      	lsls	r3, r3, #2
 800320a:	220f      	movs	r2, #15
 800320c:	fa02 f303 	lsl.w	r3, r2, r3
 8003210:	43db      	mvns	r3, r3
 8003212:	68fa      	ldr	r2, [r7, #12]
 8003214:	4013      	ands	r3, r2
 8003216:	60fb      	str	r3, [r7, #12]
        SET_BIT(temp, (GPIO_GET_INDEX(GPIOx)) << (4u * (position & 0x03u)));
 8003218:	687b      	ldr	r3, [r7, #4]
 800321a:	4a40      	ldr	r2, [pc, #256]	@ (800331c <HAL_GPIO_Init+0x2c0>)
 800321c:	4293      	cmp	r3, r2
 800321e:	d013      	beq.n	8003248 <HAL_GPIO_Init+0x1ec>
 8003220:	687b      	ldr	r3, [r7, #4]
 8003222:	4a3f      	ldr	r2, [pc, #252]	@ (8003320 <HAL_GPIO_Init+0x2c4>)
 8003224:	4293      	cmp	r3, r2
 8003226:	d00d      	beq.n	8003244 <HAL_GPIO_Init+0x1e8>
 8003228:	687b      	ldr	r3, [r7, #4]
 800322a:	4a3e      	ldr	r2, [pc, #248]	@ (8003324 <HAL_GPIO_Init+0x2c8>)
 800322c:	4293      	cmp	r3, r2
 800322e:	d007      	beq.n	8003240 <HAL_GPIO_Init+0x1e4>
 8003230:	687b      	ldr	r3, [r7, #4]
 8003232:	4a3d      	ldr	r2, [pc, #244]	@ (8003328 <HAL_GPIO_Init+0x2cc>)
 8003234:	4293      	cmp	r3, r2
 8003236:	d101      	bne.n	800323c <HAL_GPIO_Init+0x1e0>
 8003238:	2303      	movs	r3, #3
 800323a:	e006      	b.n	800324a <HAL_GPIO_Init+0x1ee>
 800323c:	2304      	movs	r3, #4
 800323e:	e004      	b.n	800324a <HAL_GPIO_Init+0x1ee>
 8003240:	2302      	movs	r3, #2
 8003242:	e002      	b.n	800324a <HAL_GPIO_Init+0x1ee>
 8003244:	2301      	movs	r3, #1
 8003246:	e000      	b.n	800324a <HAL_GPIO_Init+0x1ee>
 8003248:	2300      	movs	r3, #0
 800324a:	6a7a      	ldr	r2, [r7, #36]	@ 0x24
 800324c:	f002 0203 	and.w	r2, r2, #3
 8003250:	0092      	lsls	r2, r2, #2
 8003252:	4093      	lsls	r3, r2
 8003254:	68fa      	ldr	r2, [r7, #12]
 8003256:	4313      	orrs	r3, r2
 8003258:	60fb      	str	r3, [r7, #12]
        AFIO->EXTICR[position >> 2u] = temp;
 800325a:	492f      	ldr	r1, [pc, #188]	@ (8003318 <HAL_GPIO_Init+0x2bc>)
 800325c:	6a7b      	ldr	r3, [r7, #36]	@ 0x24
 800325e:	089b      	lsrs	r3, r3, #2
 8003260:	3302      	adds	r3, #2
 8003262:	68fa      	ldr	r2, [r7, #12]
 8003264:	f841 2023 	str.w	r2, [r1, r3, lsl #2]


        /* Enable or disable the rising trigger */
        if ((GPIO_Init->Mode & RISING_EDGE) == RISING_EDGE)
 8003268:	683b      	ldr	r3, [r7, #0]
 800326a:	685b      	ldr	r3, [r3, #4]
 800326c:	f403 1380 	and.w	r3, r3, #1048576	@ 0x100000
 8003270:	2b00      	cmp	r3, #0
 8003272:	d006      	beq.n	8003282 <HAL_GPIO_Init+0x226>
        {
          SET_BIT(EXTI->RTSR, iocurrent);
 8003274:	4b2d      	ldr	r3, [pc, #180]	@ (800332c <HAL_GPIO_Init+0x2d0>)
 8003276:	689a      	ldr	r2, [r3, #8]
 8003278:	492c      	ldr	r1, [pc, #176]	@ (800332c <HAL_GPIO_Init+0x2d0>)
 800327a:	69bb      	ldr	r3, [r7, #24]
 800327c:	4313      	orrs	r3, r2
 800327e:	608b      	str	r3, [r1, #8]
 8003280:	e006      	b.n	8003290 <HAL_GPIO_Init+0x234>
        }
        else
        {
          CLEAR_BIT(EXTI->RTSR, iocurrent);
 8003282:	4b2a      	ldr	r3, [pc, #168]	@ (800332c <HAL_GPIO_Init+0x2d0>)
 8003284:	689a      	ldr	r2, [r3, #8]
 8003286:	69bb      	ldr	r3, [r7, #24]
 8003288:	43db      	mvns	r3, r3
 800328a:	4928      	ldr	r1, [pc, #160]	@ (800332c <HAL_GPIO_Init+0x2d0>)
 800328c:	4013      	ands	r3, r2
 800328e:	608b      	str	r3, [r1, #8]
        }

        /* Enable or disable the falling trigger */
        if ((GPIO_Init->Mode & FALLING_EDGE) == FALLING_EDGE)
 8003290:	683b      	ldr	r3, [r7, #0]
 8003292:	685b      	ldr	r3, [r3, #4]
 8003294:	f403 1300 	and.w	r3, r3, #2097152	@ 0x200000
 8003298:	2b00      	cmp	r3, #0
 800329a:	d006      	beq.n	80032aa <HAL_GPIO_Init+0x24e>
        {
          SET_BIT(EXTI->FTSR, iocurrent);
 800329c:	4b23      	ldr	r3, [pc, #140]	@ (800332c <HAL_GPIO_Init+0x2d0>)
 800329e:	68da      	ldr	r2, [r3, #12]
 80032a0:	4922      	ldr	r1, [pc, #136]	@ (800332c <HAL_GPIO_Init+0x2d0>)
 80032a2:	69bb      	ldr	r3, [r7, #24]
 80032a4:	4313      	orrs	r3, r2
 80032a6:	60cb      	str	r3, [r1, #12]
 80032a8:	e006      	b.n	80032b8 <HAL_GPIO_Init+0x25c>
        }
        else
        {
          CLEAR_BIT(EXTI->FTSR, iocurrent);
 80032aa:	4b20      	ldr	r3, [pc, #128]	@ (800332c <HAL_GPIO_Init+0x2d0>)
 80032ac:	68da      	ldr	r2, [r3, #12]
 80032ae:	69bb      	ldr	r3, [r7, #24]
 80032b0:	43db      	mvns	r3, r3
 80032b2:	491e      	ldr	r1, [pc, #120]	@ (800332c <HAL_GPIO_Init+0x2d0>)
 80032b4:	4013      	ands	r3, r2
 80032b6:	60cb      	str	r3, [r1, #12]
        }

        /* Configure the event mask */
        if ((GPIO_Init->Mode & GPIO_MODE_EVT) == GPIO_MODE_EVT)
 80032b8:	683b      	ldr	r3, [r7, #0]
 80032ba:	685b      	ldr	r3, [r3, #4]
 80032bc:	f403 3300 	and.w	r3, r3, #131072	@ 0x20000
 80032c0:	2b00      	cmp	r3, #0
 80032c2:	d006      	beq.n	80032d2 <HAL_GPIO_Init+0x276>
        {
          SET_BIT(EXTI->EMR, iocurrent);
 80032c4:	4b19      	ldr	r3, [pc, #100]	@ (800332c <HAL_GPIO_Init+0x2d0>)
 80032c6:	685a      	ldr	r2, [r3, #4]
 80032c8:	4918      	ldr	r1, [pc, #96]	@ (800332c <HAL_GPIO_Init+0x2d0>)
 80032ca:	69bb      	ldr	r3, [r7, #24]
 80032cc:	4313      	orrs	r3, r2
 80032ce:	604b      	str	r3, [r1, #4]
 80032d0:	e006      	b.n	80032e0 <HAL_GPIO_Init+0x284>
        }
        else
        {
          CLEAR_BIT(EXTI->EMR, iocurrent);
 80032d2:	4b16      	ldr	r3, [pc, #88]	@ (800332c <HAL_GPIO_Init+0x2d0>)
 80032d4:	685a      	ldr	r2, [r3, #4]
 80032d6:	69bb      	ldr	r3, [r7, #24]
 80032d8:	43db      	mvns	r3, r3
 80032da:	4914      	ldr	r1, [pc, #80]	@ (800332c <HAL_GPIO_Init+0x2d0>)
 80032dc:	4013      	ands	r3, r2
 80032de:	604b      	str	r3, [r1, #4]
        }

        /* Configure the interrupt mask */
        if ((GPIO_Init->Mode & GPIO_MODE_IT) == GPIO_MODE_IT)
 80032e0:	683b      	ldr	r3, [r7, #0]
 80032e2:	685b      	ldr	r3, [r3, #4]
 80032e4:	f403 3380 	and.w	r3, r3, #65536	@ 0x10000
 80032e8:	2b00      	cmp	r3, #0
 80032ea:	d021      	beq.n	8003330 <HAL_GPIO_Init+0x2d4>
        {
          SET_BIT(EXTI->IMR, iocurrent);
 80032ec:	4b0f      	ldr	r3, [pc, #60]	@ (800332c <HAL_GPIO_Init+0x2d0>)
 80032ee:	681a      	ldr	r2, [r3, #0]
 80032f0:	490e      	ldr	r1, [pc, #56]	@ (800332c <HAL_GPIO_Init+0x2d0>)
 80032f2:	69bb      	ldr	r3, [r7, #24]
 80032f4:	4313      	orrs	r3, r2
 80032f6:	600b      	str	r3, [r1, #0]
 80032f8:	e021      	b.n	800333e <HAL_GPIO_Init+0x2e2>
 80032fa:	bf00      	nop
 80032fc:	10320000 	.word	0x10320000
 8003300:	10310000 	.word	0x10310000
 8003304:	10220000 	.word	0x10220000
 8003308:	10210000 	.word	0x10210000
 800330c:	10120000 	.word	0x10120000
 8003310:	10110000 	.word	0x10110000
 8003314:	40021000 	.word	0x40021000
 8003318:	40010000 	.word	0x40010000
 800331c:	40010800 	.word	0x40010800
 8003320:	40010c00 	.word	0x40010c00
 8003324:	40011000 	.word	0x40011000
 8003328:	40011400 	.word	0x40011400
 800332c:	40010400 	.word	0x40010400
        }
        else
        {
          CLEAR_BIT(EXTI->IMR, iocurrent);
 8003330:	4b0b      	ldr	r3, [pc, #44]	@ (8003360 <HAL_GPIO_Init+0x304>)
 8003332:	681a      	ldr	r2, [r3, #0]
 8003334:	69bb      	ldr	r3, [r7, #24]
 8003336:	43db      	mvns	r3, r3
 8003338:	4909      	ldr	r1, [pc, #36]	@ (8003360 <HAL_GPIO_Init+0x304>)
 800333a:	4013      	ands	r3, r2
 800333c:	600b      	str	r3, [r1, #0]
        }
      }
    }

	position++;
 800333e:	6a7b      	ldr	r3, [r7, #36]	@ 0x24
 8003340:	3301      	adds	r3, #1
 8003342:	627b      	str	r3, [r7, #36]	@ 0x24
  while (((GPIO_Init->Pin) >> position) != 0x00u)
 8003344:	683b      	ldr	r3, [r7, #0]
 8003346:	681a      	ldr	r2, [r3, #0]
 8003348:	6a7b      	ldr	r3, [r7, #36]	@ 0x24
 800334a:	fa22 f303 	lsr.w	r3, r2, r3
 800334e:	2b00      	cmp	r3, #0
 8003350:	f47f ae8e 	bne.w	8003070 <HAL_GPIO_Init+0x14>
  }
}
 8003354:	bf00      	nop
 8003356:	bf00      	nop
 8003358:	372c      	adds	r7, #44	@ 0x2c
 800335a:	46bd      	mov	sp, r7
 800335c:	bc80      	pop	{r7}
 800335e:	4770      	bx	lr
 8003360:	40010400 	.word	0x40010400

08003364 <HAL_GPIO_ReadPin>:
  * @param  GPIO_Pin: specifies the port bit to read.
  *         This parameter can be GPIO_PIN_x where x can be (0..15).
  * @retval The input port pin value.
  */
GPIO_PinState HAL_GPIO_ReadPin(GPIO_TypeDef *GPIOx, uint16_t GPIO_Pin)
{
 8003364:	b480      	push	{r7}
 8003366:	b085      	sub	sp, #20
 8003368:	af00      	add	r7, sp, #0
 800336a:	6078      	str	r0, [r7, #4]
 800336c:	460b      	mov	r3, r1
 800336e:	807b      	strh	r3, [r7, #2]
  GPIO_PinState bitstatus;

  /* Check the parameters */
  assert_param(IS_GPIO_PIN(GPIO_Pin));

  if ((GPIOx->IDR & GPIO_Pin) != (uint32_t)GPIO_PIN_RESET)
 8003370:	687b      	ldr	r3, [r7, #4]
 8003372:	689a      	ldr	r2, [r3, #8]
 8003374:	887b      	ldrh	r3, [r7, #2]
 8003376:	4013      	ands	r3, r2
 8003378:	2b00      	cmp	r3, #0
 800337a:	d002      	beq.n	8003382 <HAL_GPIO_ReadPin+0x1e>
  {
    bitstatus = GPIO_PIN_SET;
 800337c:	2301      	movs	r3, #1
 800337e:	73fb      	strb	r3, [r7, #15]
 8003380:	e001      	b.n	8003386 <HAL_GPIO_ReadPin+0x22>
  }
  else
  {
    bitstatus = GPIO_PIN_RESET;
 8003382:	2300      	movs	r3, #0
 8003384:	73fb      	strb	r3, [r7, #15]
  }
  return bitstatus;
 8003386:	7bfb      	ldrb	r3, [r7, #15]
}
 8003388:	4618      	mov	r0, r3
 800338a:	3714      	adds	r7, #20
 800338c:	46bd      	mov	sp, r7
 800338e:	bc80      	pop	{r7}
 8003390:	4770      	bx	lr

08003392 <HAL_GPIO_WritePin>:
  *            @arg GPIO_PIN_RESET: to clear the port pin
  *            @arg GPIO_PIN_SET: to set the port pin
  * @retval None
  */
void HAL_GPIO_WritePin(GPIO_TypeDef *GPIOx, uint16_t GPIO_Pin, GPIO_PinState PinState)
{
 8003392:	b480      	push	{r7}
 8003394:	b083      	sub	sp, #12
 8003396:	af00      	add	r7, sp, #0
 8003398:	6078      	str	r0, [r7, #4]
 800339a:	460b      	mov	r3, r1
 800339c:	807b      	strh	r3, [r7, #2]
 800339e:	4613      	mov	r3, r2
 80033a0:	707b      	strb	r3, [r7, #1]
  /* Check the parameters */
  assert_param(IS_GPIO_PIN(GPIO_Pin));
  assert_param(IS_GPIO_PIN_ACTION(PinState));

  if (PinState != GPIO_PIN_RESET)
 80033a2:	787b      	ldrb	r3, [r7, #1]
 80033a4:	2b00      	cmp	r3, #0
 80033a6:	d003      	beq.n	80033b0 <HAL_GPIO_WritePin+0x1e>
  {
    GPIOx->BSRR = GPIO_Pin;
 80033a8:	887a      	ldrh	r2, [r7, #2]
 80033aa:	687b      	ldr	r3, [r7, #4]
 80033ac:	611a      	str	r2, [r3, #16]
  }
  else
  {
    GPIOx->BSRR = (uint32_t)GPIO_Pin << 16u;
  }
}
 80033ae:	e003      	b.n	80033b8 <HAL_GPIO_WritePin+0x26>
    GPIOx->BSRR = (uint32_t)GPIO_Pin << 16u;
 80033b0:	887b      	ldrh	r3, [r7, #2]
 80033b2:	041a      	lsls	r2, r3, #16
 80033b4:	687b      	ldr	r3, [r7, #4]
 80033b6:	611a      	str	r2, [r3, #16]
}
 80033b8:	bf00      	nop
 80033ba:	370c      	adds	r7, #12
 80033bc:	46bd      	mov	sp, r7
 80033be:	bc80      	pop	{r7}
 80033c0:	4770      	bx	lr
	...

080033c4 <HAL_GPIO_EXTI_IRQHandler>:
  * @brief  This function handles EXTI interrupt request.
  * @param  GPIO_Pin: Specifies the pins connected EXTI line
  * @retval None
  */
void HAL_GPIO_EXTI_IRQHandler(uint16_t GPIO_Pin)
{
 80033c4:	b580      	push	{r7, lr}
 80033c6:	b082      	sub	sp, #8
 80033c8:	af00      	add	r7, sp, #0
 80033ca:	4603      	mov	r3, r0
 80033cc:	80fb      	strh	r3, [r7, #6]
  /* EXTI line interrupt detected */
  if (__HAL_GPIO_EXTI_GET_IT(GPIO_Pin) != 0x00u)
 80033ce:	4b08      	ldr	r3, [pc, #32]	@ (80033f0 <HAL_GPIO_EXTI_IRQHandler+0x2c>)
 80033d0:	695a      	ldr	r2, [r3, #20]
 80033d2:	88fb      	ldrh	r3, [r7, #6]
 80033d4:	4013      	ands	r3, r2
 80033d6:	2b00      	cmp	r3, #0
 80033d8:	d006      	beq.n	80033e8 <HAL_GPIO_EXTI_IRQHandler+0x24>
  {
    __HAL_GPIO_EXTI_CLEAR_IT(GPIO_Pin);
 80033da:	4a05      	ldr	r2, [pc, #20]	@ (80033f0 <HAL_GPIO_EXTI_IRQHandler+0x2c>)
 80033dc:	88fb      	ldrh	r3, [r7, #6]
 80033de:	6153      	str	r3, [r2, #20]
    HAL_GPIO_EXTI_Callback(GPIO_Pin);
 80033e0:	88fb      	ldrh	r3, [r7, #6]
 80033e2:	4618      	mov	r0, r3
 80033e4:	f000 f806 	bl	80033f4 <HAL_GPIO_EXTI_Callback>
  }
}
 80033e8:	bf00      	nop
 80033ea:	3708      	adds	r7, #8
 80033ec:	46bd      	mov	sp, r7
 80033ee:	bd80      	pop	{r7, pc}
 80033f0:	40010400 	.word	0x40010400

080033f4 <HAL_GPIO_EXTI_Callback>:
  * @brief  EXTI line detection callbacks.
  * @param  GPIO_Pin: Specifies the pins connected EXTI line
  * @retval None
  */
__weak void HAL_GPIO_EXTI_Callback(uint16_t GPIO_Pin)
{
 80033f4:	b480      	push	{r7}
 80033f6:	b083      	sub	sp, #12
 80033f8:	af00      	add	r7, sp, #0
 80033fa:	4603      	mov	r3, r0
 80033fc:	80fb      	strh	r3, [r7, #6]
  /* Prevent unused argument(s) compilation warning */
  UNUSED(GPIO_Pin);
  /* NOTE: This function Should not be modified, when the callback is needed,
           the HAL_GPIO_EXTI_Callback could be implemented in the user file
   */
}
 80033fe:	bf00      	nop
 8003400:	370c      	adds	r7, #12
 8003402:	46bd      	mov	sp, r7
 8003404:	bc80      	pop	{r7}
 8003406:	4770      	bx	lr

08003408 <HAL_RCC_OscConfig>:
  *         supported by this macro. User should request a transition to HSE Off
  *         first and then HSE On or HSE Bypass.
  * @retval HAL status
  */
HAL_StatusTypeDef HAL_RCC_OscConfig(RCC_OscInitTypeDef  *RCC_OscInitStruct)
{
 8003408:	b580      	push	{r7, lr}
 800340a:	b086      	sub	sp, #24
 800340c:	af00      	add	r7, sp, #0
 800340e:	6078      	str	r0, [r7, #4]
  uint32_t tickstart;
  uint32_t pll_config;

  /* Check Null pointer */
  if (RCC_OscInitStruct == NULL)
 8003410:	687b      	ldr	r3, [r7, #4]
 8003412:	2b00      	cmp	r3, #0
 8003414:	d101      	bne.n	800341a <HAL_RCC_OscConfig+0x12>
  {
    return HAL_ERROR;
 8003416:	2301      	movs	r3, #1
 8003418:	e272      	b.n	8003900 <HAL_RCC_OscConfig+0x4f8>

  /* Check the parameters */
  assert_param(IS_RCC_OSCILLATORTYPE(RCC_OscInitStruct->OscillatorType));

  /*------------------------------- HSE Configuration ------------------------*/
  if (((RCC_OscInitStruct->OscillatorType) & RCC_OSCILLATORTYPE_HSE) == RCC_OSCILLATORTYPE_HSE)
 800341a:	687b      	ldr	r3, [r7, #4]
 800341c:	681b      	ldr	r3, [r3, #0]
 800341e:	f003 0301 	and.w	r3, r3, #1
 8003422:	2b00      	cmp	r3, #0
 8003424:	f000 8087 	beq.w	8003536 <HAL_RCC_OscConfig+0x12e>
  {
    /* Check the parameters */
    assert_param(IS_RCC_HSE(RCC_OscInitStruct->HSEState));

    /* When the HSE is used as system clock or clock source for PLL in these cases it is not allowed to be disabled */
    if ((__HAL_RCC_GET_SYSCLK_SOURCE() == RCC_SYSCLKSOURCE_STATUS_HSE)
 8003428:	4b92      	ldr	r3, [pc, #584]	@ (8003674 <HAL_RCC_OscConfig+0x26c>)
 800342a:	685b      	ldr	r3, [r3, #4]
 800342c:	f003 030c 	and.w	r3, r3, #12
 8003430:	2b04      	cmp	r3, #4
 8003432:	d00c      	beq.n	800344e <HAL_RCC_OscConfig+0x46>
        || ((__HAL_RCC_GET_SYSCLK_SOURCE() == RCC_SYSCLKSOURCE_STATUS_PLLCLK) && (__HAL_RCC_GET_PLL_OSCSOURCE() == RCC_PLLSOURCE_HSE)))
 8003434:	4b8f      	ldr	r3, [pc, #572]	@ (8003674 <HAL_RCC_OscConfig+0x26c>)
 8003436:	685b      	ldr	r3, [r3, #4]
 8003438:	f003 030c 	and.w	r3, r3, #12
 800343c:	2b08      	cmp	r3, #8
 800343e:	d112      	bne.n	8003466 <HAL_RCC_OscConfig+0x5e>
 8003440:	4b8c      	ldr	r3, [pc, #560]	@ (8003674 <HAL_RCC_OscConfig+0x26c>)
 8003442:	685b      	ldr	r3, [r3, #4]
 8003444:	f403 3380 	and.w	r3, r3, #65536	@ 0x10000
 8003448:	f5b3 3f80 	cmp.w	r3, #65536	@ 0x10000
 800344c:	d10b      	bne.n	8003466 <HAL_RCC_OscConfig+0x5e>
    {
      if ((__HAL_RCC_GET_FLAG(RCC_FLAG_HSERDY) != RESET) && (RCC_OscInitStruct->HSEState == RCC_HSE_OFF))
 800344e:	4b89      	ldr	r3, [pc, #548]	@ (8003674 <HAL_RCC_OscConfig+0x26c>)
 8003450:	681b      	ldr	r3, [r3, #0]
 8003452:	f403 3300 	and.w	r3, r3, #131072	@ 0x20000
 8003456:	2b00      	cmp	r3, #0
 8003458:	d06c      	beq.n	8003534 <HAL_RCC_OscConfig+0x12c>
 800345a:	687b      	ldr	r3, [r7, #4]
 800345c:	685b      	ldr	r3, [r3, #4]
 800345e:	2b00      	cmp	r3, #0
 8003460:	d168      	bne.n	8003534 <HAL_RCC_OscConfig+0x12c>
      {
        return HAL_ERROR;
 8003462:	2301      	movs	r3, #1
 8003464:	e24c      	b.n	8003900 <HAL_RCC_OscConfig+0x4f8>
      }
    }
    else
    {
      /* Set the new HSE configuration ---------------------------------------*/
      __HAL_RCC_HSE_CONFIG(RCC_OscInitStruct->HSEState);
 8003466:	687b      	ldr	r3, [r7, #4]
 8003468:	685b      	ldr	r3, [r3, #4]
 800346a:	f5b3 3f80 	cmp.w	r3, #65536	@ 0x10000
 800346e:	d106      	bne.n	800347e <HAL_RCC_OscConfig+0x76>
 8003470:	4b80      	ldr	r3, [pc, #512]	@ (8003674 <HAL_RCC_OscConfig+0x26c>)
 8003472:	681b      	ldr	r3, [r3, #0]
 8003474:	4a7f      	ldr	r2, [pc, #508]	@ (8003674 <HAL_RCC_OscConfig+0x26c>)
 8003476:	f443 3380 	orr.w	r3, r3, #65536	@ 0x10000
 800347a:	6013      	str	r3, [r2, #0]
 800347c:	e02e      	b.n	80034dc <HAL_RCC_OscConfig+0xd4>
 800347e:	687b      	ldr	r3, [r7, #4]
 8003480:	685b      	ldr	r3, [r3, #4]
 8003482:	2b00      	cmp	r3, #0
 8003484:	d10c      	bne.n	80034a0 <HAL_RCC_OscConfig+0x98>
 8003486:	4b7b      	ldr	r3, [pc, #492]	@ (8003674 <HAL_RCC_OscConfig+0x26c>)
 8003488:	681b      	ldr	r3, [r3, #0]
 800348a:	4a7a      	ldr	r2, [pc, #488]	@ (8003674 <HAL_RCC_OscConfig+0x26c>)
 800348c:	f423 3380 	bic.w	r3, r3, #65536	@ 0x10000
 8003490:	6013      	str	r3, [r2, #0]
 8003492:	4b78      	ldr	r3, [pc, #480]	@ (8003674 <HAL_RCC_OscConfig+0x26c>)
 8003494:	681b      	ldr	r3, [r3, #0]
 8003496:	4a77      	ldr	r2, [pc, #476]	@ (8003674 <HAL_RCC_OscConfig+0x26c>)
 8003498:	f423 2380 	bic.w	r3, r3, #262144	@ 0x40000
 800349c:	6013      	str	r3, [r2, #0]
 800349e:	e01d      	b.n	80034dc <HAL_RCC_OscConfig+0xd4>
 80034a0:	687b      	ldr	r3, [r7, #4]
 80034a2:	685b      	ldr	r3, [r3, #4]
 80034a4:	f5b3 2fa0 	cmp.w	r3, #327680	@ 0x50000
 80034a8:	d10c      	bne.n	80034c4 <HAL_RCC_OscConfig+0xbc>
 80034aa:	4b72      	ldr	r3, [pc, #456]	@ (8003674 <HAL_RCC_OscConfig+0x26c>)
 80034ac:	681b      	ldr	r3, [r3, #0]
 80034ae:	4a71      	ldr	r2, [pc, #452]	@ (8003674 <HAL_RCC_OscConfig+0x26c>)
 80034b0:	f443 2380 	orr.w	r3, r3, #262144	@ 0x40000
 80034b4:	6013      	str	r3, [r2, #0]
 80034b6:	4b6f      	ldr	r3, [pc, #444]	@ (8003674 <HAL_RCC_OscConfig+0x26c>)
 80034b8:	681b      	ldr	r3, [r3, #0]
 80034ba:	4a6e      	ldr	r2, [pc, #440]	@ (8003674 <HAL_RCC_OscConfig+0x26c>)
 80034bc:	f443 3380 	orr.w	r3, r3, #65536	@ 0x10000
 80034c0:	6013      	str	r3, [r2, #0]
 80034c2:	e00b      	b.n	80034dc <HAL_RCC_OscConfig+0xd4>
 80034c4:	4b6b      	ldr	r3, [pc, #428]	@ (8003674 <HAL_RCC_OscConfig+0x26c>)
 80034c6:	681b      	ldr	r3, [r3, #0]
 80034c8:	4a6a      	ldr	r2, [pc, #424]	@ (8003674 <HAL_RCC_OscConfig+0x26c>)
 80034ca:	f423 3380 	bic.w	r3, r3, #65536	@ 0x10000
 80034ce:	6013      	str	r3, [r2, #0]
 80034d0:	4b68      	ldr	r3, [pc, #416]	@ (8003674 <HAL_RCC_OscConfig+0x26c>)
 80034d2:	681b      	ldr	r3, [r3, #0]
 80034d4:	4a67      	ldr	r2, [pc, #412]	@ (8003674 <HAL_RCC_OscConfig+0x26c>)
 80034d6:	f423 2380 	bic.w	r3, r3, #262144	@ 0x40000
 80034da:	6013      	str	r3, [r2, #0]


      /* Check the HSE State */
      if (RCC_OscInitStruct->HSEState != RCC_HSE_OFF)
 80034dc:	687b      	ldr	r3, [r7, #4]
 80034de:	685b      	ldr	r3, [r3, #4]
 80034e0:	2b00      	cmp	r3, #0
 80034e2:	d013      	beq.n	800350c <HAL_RCC_OscConfig+0x104>
      {
        /* Get Start Tick */
        tickstart = HAL_GetTick();
 80034e4:	f7fe fdea 	bl	80020bc <HAL_GetTick>
 80034e8:	6138      	str	r0, [r7, #16]

        /* Wait till HSE is ready */
        while (__HAL_RCC_GET_FLAG(RCC_FLAG_HSERDY) == RESET)
 80034ea:	e008      	b.n	80034fe <HAL_RCC_OscConfig+0xf6>
        {
          if ((HAL_GetTick() - tickstart) > HSE_TIMEOUT_VALUE)
 80034ec:	f7fe fde6 	bl	80020bc <HAL_GetTick>
 80034f0:	4602      	mov	r2, r0
 80034f2:	693b      	ldr	r3, [r7, #16]
 80034f4:	1ad3      	subs	r3, r2, r3
 80034f6:	2b64      	cmp	r3, #100	@ 0x64
 80034f8:	d901      	bls.n	80034fe <HAL_RCC_OscConfig+0xf6>
          {
            return HAL_TIMEOUT;
 80034fa:	2303      	movs	r3, #3
 80034fc:	e200      	b.n	8003900 <HAL_RCC_OscConfig+0x4f8>
        while (__HAL_RCC_GET_FLAG(RCC_FLAG_HSERDY) == RESET)
 80034fe:	4b5d      	ldr	r3, [pc, #372]	@ (8003674 <HAL_RCC_OscConfig+0x26c>)
 8003500:	681b      	ldr	r3, [r3, #0]
 8003502:	f403 3300 	and.w	r3, r3, #131072	@ 0x20000
 8003506:	2b00      	cmp	r3, #0
 8003508:	d0f0      	beq.n	80034ec <HAL_RCC_OscConfig+0xe4>
 800350a:	e014      	b.n	8003536 <HAL_RCC_OscConfig+0x12e>
        }
      }
      else
      {
        /* Get Start Tick */
        tickstart = HAL_GetTick();
 800350c:	f7fe fdd6 	bl	80020bc <HAL_GetTick>
 8003510:	6138      	str	r0, [r7, #16]

        /* Wait till HSE is disabled */
        while (__HAL_RCC_GET_FLAG(RCC_FLAG_HSERDY) != RESET)
 8003512:	e008      	b.n	8003526 <HAL_RCC_OscConfig+0x11e>
        {
          if ((HAL_GetTick() - tickstart) > HSE_TIMEOUT_VALUE)
 8003514:	f7fe fdd2 	bl	80020bc <HAL_GetTick>
 8003518:	4602      	mov	r2, r0
 800351a:	693b      	ldr	r3, [r7, #16]
 800351c:	1ad3      	subs	r3, r2, r3
 800351e:	2b64      	cmp	r3, #100	@ 0x64
 8003520:	d901      	bls.n	8003526 <HAL_RCC_OscConfig+0x11e>
          {
            return HAL_TIMEOUT;
 8003522:	2303      	movs	r3, #3
 8003524:	e1ec      	b.n	8003900 <HAL_RCC_OscConfig+0x4f8>
        while (__HAL_RCC_GET_FLAG(RCC_FLAG_HSERDY) != RESET)
 8003526:	4b53      	ldr	r3, [pc, #332]	@ (8003674 <HAL_RCC_OscConfig+0x26c>)
 8003528:	681b      	ldr	r3, [r3, #0]
 800352a:	f403 3300 	and.w	r3, r3, #131072	@ 0x20000
 800352e:	2b00      	cmp	r3, #0
 8003530:	d1f0      	bne.n	8003514 <HAL_RCC_OscConfig+0x10c>
 8003532:	e000      	b.n	8003536 <HAL_RCC_OscConfig+0x12e>
      if ((__HAL_RCC_GET_FLAG(RCC_FLAG_HSERDY) != RESET) && (RCC_OscInitStruct->HSEState == RCC_HSE_OFF))
 8003534:	bf00      	nop
        }
      }
    }
  }
  /*----------------------------- HSI Configuration --------------------------*/
  if (((RCC_OscInitStruct->OscillatorType) & RCC_OSCILLATORTYPE_HSI) == RCC_OSCILLATORTYPE_HSI)
 8003536:	687b      	ldr	r3, [r7, #4]
 8003538:	681b      	ldr	r3, [r3, #0]
 800353a:	f003 0302 	and.w	r3, r3, #2
 800353e:	2b00      	cmp	r3, #0
 8003540:	d063      	beq.n	800360a <HAL_RCC_OscConfig+0x202>
    /* Check the parameters */
    assert_param(IS_RCC_HSI(RCC_OscInitStruct->HSIState));
    assert_param(IS_RCC_CALIBRATION_VALUE(RCC_OscInitStruct->HSICalibrationValue));

    /* Check if HSI is used as system clock or as PLL source when PLL is selected as system clock */
    if ((__HAL_RCC_GET_SYSCLK_SOURCE() == RCC_SYSCLKSOURCE_STATUS_HSI)
 8003542:	4b4c      	ldr	r3, [pc, #304]	@ (8003674 <HAL_RCC_OscConfig+0x26c>)
 8003544:	685b      	ldr	r3, [r3, #4]
 8003546:	f003 030c 	and.w	r3, r3, #12
 800354a:	2b00      	cmp	r3, #0
 800354c:	d00b      	beq.n	8003566 <HAL_RCC_OscConfig+0x15e>
        || ((__HAL_RCC_GET_SYSCLK_SOURCE() == RCC_SYSCLKSOURCE_STATUS_PLLCLK) && (__HAL_RCC_GET_PLL_OSCSOURCE() == RCC_PLLSOURCE_HSI_DIV2)))
 800354e:	4b49      	ldr	r3, [pc, #292]	@ (8003674 <HAL_RCC_OscConfig+0x26c>)
 8003550:	685b      	ldr	r3, [r3, #4]
 8003552:	f003 030c 	and.w	r3, r3, #12
 8003556:	2b08      	cmp	r3, #8
 8003558:	d11c      	bne.n	8003594 <HAL_RCC_OscConfig+0x18c>
 800355a:	4b46      	ldr	r3, [pc, #280]	@ (8003674 <HAL_RCC_OscConfig+0x26c>)
 800355c:	685b      	ldr	r3, [r3, #4]
 800355e:	f403 3380 	and.w	r3, r3, #65536	@ 0x10000
 8003562:	2b00      	cmp	r3, #0
 8003564:	d116      	bne.n	8003594 <HAL_RCC_OscConfig+0x18c>
    {
      /* When HSI is used as system clock it will not disabled */
      if ((__HAL_RCC_GET_FLAG(RCC_FLAG_HSIRDY) != RESET) && (RCC_OscInitStruct->HSIState != RCC_HSI_ON))
 8003566:	4b43      	ldr	r3, [pc, #268]	@ (8003674 <HAL_RCC_OscConfig+0x26c>)
 8003568:	681b      	ldr	r3, [r3, #0]
 800356a:	f003 0302 	and.w	r3, r3, #2
 800356e:	2b00      	cmp	r3, #0
 8003570:	d005      	beq.n	800357e <HAL_RCC_OscConfig+0x176>
 8003572:	687b      	ldr	r3, [r7, #4]
 8003574:	691b      	ldr	r3, [r3, #16]
 8003576:	2b01      	cmp	r3, #1
 8003578:	d001      	beq.n	800357e <HAL_RCC_OscConfig+0x176>
      {
        return HAL_ERROR;
 800357a:	2301      	movs	r3, #1
 800357c:	e1c0      	b.n	8003900 <HAL_RCC_OscConfig+0x4f8>
      }
      /* Otherwise, just the calibration is allowed */
      else
      {
        /* Adjusts the Internal High Speed oscillator (HSI) calibration value.*/
        __HAL_RCC_HSI_CALIBRATIONVALUE_ADJUST(RCC_OscInitStruct->HSICalibrationValue);
 800357e:	4b3d      	ldr	r3, [pc, #244]	@ (8003674 <HAL_RCC_OscConfig+0x26c>)
 8003580:	681b      	ldr	r3, [r3, #0]
 8003582:	f023 02f8 	bic.w	r2, r3, #248	@ 0xf8
 8003586:	687b      	ldr	r3, [r7, #4]
 8003588:	695b      	ldr	r3, [r3, #20]
 800358a:	00db      	lsls	r3, r3, #3
 800358c:	4939      	ldr	r1, [pc, #228]	@ (8003674 <HAL_RCC_OscConfig+0x26c>)
 800358e:	4313      	orrs	r3, r2
 8003590:	600b      	str	r3, [r1, #0]
      if ((__HAL_RCC_GET_FLAG(RCC_FLAG_HSIRDY) != RESET) && (RCC_OscInitStruct->HSIState != RCC_HSI_ON))
 8003592:	e03a      	b.n	800360a <HAL_RCC_OscConfig+0x202>
      }
    }
    else
    {
      /* Check the HSI State */
      if (RCC_OscInitStruct->HSIState != RCC_HSI_OFF)
 8003594:	687b      	ldr	r3, [r7, #4]
 8003596:	691b      	ldr	r3, [r3, #16]
 8003598:	2b00      	cmp	r3, #0
 800359a:	d020      	beq.n	80035de <HAL_RCC_OscConfig+0x1d6>
      {
        /* Enable the Internal High Speed oscillator (HSI). */
        __HAL_RCC_HSI_ENABLE();
 800359c:	4b36      	ldr	r3, [pc, #216]	@ (8003678 <HAL_RCC_OscConfig+0x270>)
 800359e:	2201      	movs	r2, #1
 80035a0:	601a      	str	r2, [r3, #0]

        /* Get Start Tick */
        tickstart = HAL_GetTick();
 80035a2:	f7fe fd8b 	bl	80020bc <HAL_GetTick>
 80035a6:	6138      	str	r0, [r7, #16]

        /* Wait till HSI is ready */
        while (__HAL_RCC_GET_FLAG(RCC_FLAG_HSIRDY) == RESET)
 80035a8:	e008      	b.n	80035bc <HAL_RCC_OscConfig+0x1b4>
        {
          if ((HAL_GetTick() - tickstart) > HSI_TIMEOUT_VALUE)
 80035aa:	f7fe fd87 	bl	80020bc <HAL_GetTick>
 80035ae:	4602      	mov	r2, r0
 80035b0:	693b      	ldr	r3, [r7, #16]
 80035b2:	1ad3      	subs	r3, r2, r3
 80035b4:	2b02      	cmp	r3, #2
 80035b6:	d901      	bls.n	80035bc <HAL_RCC_OscConfig+0x1b4>
          {
            return HAL_TIMEOUT;
 80035b8:	2303      	movs	r3, #3
 80035ba:	e1a1      	b.n	8003900 <HAL_RCC_OscConfig+0x4f8>
        while (__HAL_RCC_GET_FLAG(RCC_FLAG_HSIRDY) == RESET)
 80035bc:	4b2d      	ldr	r3, [pc, #180]	@ (8003674 <HAL_RCC_OscConfig+0x26c>)
 80035be:	681b      	ldr	r3, [r3, #0]
 80035c0:	f003 0302 	and.w	r3, r3, #2
 80035c4:	2b00      	cmp	r3, #0
 80035c6:	d0f0      	beq.n	80035aa <HAL_RCC_OscConfig+0x1a2>
          }
        }

        /* Adjusts the Internal High Speed oscillator (HSI) calibration value.*/
        __HAL_RCC_HSI_CALIBRATIONVALUE_ADJUST(RCC_OscInitStruct->HSICalibrationValue);
 80035c8:	4b2a      	ldr	r3, [pc, #168]	@ (8003674 <HAL_RCC_OscConfig+0x26c>)
 80035ca:	681b      	ldr	r3, [r3, #0]
 80035cc:	f023 02f8 	bic.w	r2, r3, #248	@ 0xf8
 80035d0:	687b      	ldr	r3, [r7, #4]
 80035d2:	695b      	ldr	r3, [r3, #20]
 80035d4:	00db      	lsls	r3, r3, #3
 80035d6:	4927      	ldr	r1, [pc, #156]	@ (8003674 <HAL_RCC_OscConfig+0x26c>)
 80035d8:	4313      	orrs	r3, r2
 80035da:	600b      	str	r3, [r1, #0]
 80035dc:	e015      	b.n	800360a <HAL_RCC_OscConfig+0x202>
      }
      else
      {
        /* Disable the Internal High Speed oscillator (HSI). */
        __HAL_RCC_HSI_DISABLE();
 80035de:	4b26      	ldr	r3, [pc, #152]	@ (8003678 <HAL_RCC_OscConfig+0x270>)
 80035e0:	2200      	movs	r2, #0
 80035e2:	601a      	str	r2, [r3, #0]

        /* Get Start Tick */
        tickstart = HAL_GetTick();
 80035e4:	f7fe fd6a 	bl	80020bc <HAL_GetTick>
 80035e8:	6138      	str	r0, [r7, #16]

        /* Wait till HSI is disabled */
        while (__HAL_RCC_GET_FLAG(RCC_FLAG_HSIRDY) != RESET)
 80035ea:	e008      	b.n	80035fe <HAL_RCC_OscConfig+0x1f6>
        {
          if ((HAL_GetTick() - tickstart) > HSI_TIMEOUT_VALUE)
 80035ec:	f7fe fd66 	bl	80020bc <HAL_GetTick>
 80035f0:	4602      	mov	r2, r0
 80035f2:	693b      	ldr	r3, [r7, #16]
 80035f4:	1ad3      	subs	r3, r2, r3
 80035f6:	2b02      	cmp	r3, #2
 80035f8:	d901      	bls.n	80035fe <HAL_RCC_OscConfig+0x1f6>
          {
            return HAL_TIMEOUT;
 80035fa:	2303      	movs	r3, #3
 80035fc:	e180      	b.n	8003900 <HAL_RCC_OscConfig+0x4f8>
        while (__HAL_RCC_GET_FLAG(RCC_FLAG_HSIRDY) != RESET)
 80035fe:	4b1d      	ldr	r3, [pc, #116]	@ (8003674 <HAL_RCC_OscConfig+0x26c>)
 8003600:	681b      	ldr	r3, [r3, #0]
 8003602:	f003 0302 	and.w	r3, r3, #2
 8003606:	2b00      	cmp	r3, #0
 8003608:	d1f0      	bne.n	80035ec <HAL_RCC_OscConfig+0x1e4>
        }
      }
    }
  }
  /*------------------------------ LSI Configuration -------------------------*/
  if (((RCC_OscInitStruct->OscillatorType) & RCC_OSCILLATORTYPE_LSI) == RCC_OSCILLATORTYPE_LSI)
 800360a:	687b      	ldr	r3, [r7, #4]
 800360c:	681b      	ldr	r3, [r3, #0]
 800360e:	f003 0308 	and.w	r3, r3, #8
 8003612:	2b00      	cmp	r3, #0
 8003614:	d03a      	beq.n	800368c <HAL_RCC_OscConfig+0x284>
  {
    /* Check the parameters */
    assert_param(IS_RCC_LSI(RCC_OscInitStruct->LSIState));

    /* Check the LSI State */
    if (RCC_OscInitStruct->LSIState != RCC_LSI_OFF)
 8003616:	687b      	ldr	r3, [r7, #4]
 8003618:	699b      	ldr	r3, [r3, #24]
 800361a:	2b00      	cmp	r3, #0
 800361c:	d019      	beq.n	8003652 <HAL_RCC_OscConfig+0x24a>
    {
      /* Enable the Internal Low Speed oscillator (LSI). */
      __HAL_RCC_LSI_ENABLE();
 800361e:	4b17      	ldr	r3, [pc, #92]	@ (800367c <HAL_RCC_OscConfig+0x274>)
 8003620:	2201      	movs	r2, #1
 8003622:	601a      	str	r2, [r3, #0]

      /* Get Start Tick */
      tickstart = HAL_GetTick();
 8003624:	f7fe fd4a 	bl	80020bc <HAL_GetTick>
 8003628:	6138      	str	r0, [r7, #16]

      /* Wait till LSI is ready */
      while (__HAL_RCC_GET_FLAG(RCC_FLAG_LSIRDY) == RESET)
 800362a:	e008      	b.n	800363e <HAL_RCC_OscConfig+0x236>
      {
        if ((HAL_GetTick() - tickstart) > LSI_TIMEOUT_VALUE)
 800362c:	f7fe fd46 	bl	80020bc <HAL_GetTick>
 8003630:	4602      	mov	r2, r0
 8003632:	693b      	ldr	r3, [r7, #16]
 8003634:	1ad3      	subs	r3, r2, r3
 8003636:	2b02      	cmp	r3, #2
 8003638:	d901      	bls.n	800363e <HAL_RCC_OscConfig+0x236>
        {
          return HAL_TIMEOUT;
 800363a:	2303      	movs	r3, #3
 800363c:	e160      	b.n	8003900 <HAL_RCC_OscConfig+0x4f8>
      while (__HAL_RCC_GET_FLAG(RCC_FLAG_LSIRDY) == RESET)
 800363e:	4b0d      	ldr	r3, [pc, #52]	@ (8003674 <HAL_RCC_OscConfig+0x26c>)
 8003640:	6a5b      	ldr	r3, [r3, #36]	@ 0x24
 8003642:	f003 0302 	and.w	r3, r3, #2
 8003646:	2b00      	cmp	r3, #0
 8003648:	d0f0      	beq.n	800362c <HAL_RCC_OscConfig+0x224>
        }
      }
      /*  To have a fully stabilized clock in the specified range, a software delay of 1ms
          should be added.*/
      RCC_Delay(1);
 800364a:	2001      	movs	r0, #1
 800364c:	f000 face 	bl	8003bec <RCC_Delay>
 8003650:	e01c      	b.n	800368c <HAL_RCC_OscConfig+0x284>
    }
    else
    {
      /* Disable the Internal Low Speed oscillator (LSI). */
      __HAL_RCC_LSI_DISABLE();
 8003652:	4b0a      	ldr	r3, [pc, #40]	@ (800367c <HAL_RCC_OscConfig+0x274>)
 8003654:	2200      	movs	r2, #0
 8003656:	601a      	str	r2, [r3, #0]

      /* Get Start Tick */
      tickstart = HAL_GetTick();
 8003658:	f7fe fd30 	bl	80020bc <HAL_GetTick>
 800365c:	6138      	str	r0, [r7, #16]

      /* Wait till LSI is disabled */
      while (__HAL_RCC_GET_FLAG(RCC_FLAG_LSIRDY) != RESET)
 800365e:	e00f      	b.n	8003680 <HAL_RCC_OscConfig+0x278>
      {
        if ((HAL_GetTick() - tickstart) > LSI_TIMEOUT_VALUE)
 8003660:	f7fe fd2c 	bl	80020bc <HAL_GetTick>
 8003664:	4602      	mov	r2, r0
 8003666:	693b      	ldr	r3, [r7, #16]
 8003668:	1ad3      	subs	r3, r2, r3
 800366a:	2b02      	cmp	r3, #2
 800366c:	d908      	bls.n	8003680 <HAL_RCC_OscConfig+0x278>
        {
          return HAL_TIMEOUT;
 800366e:	2303      	movs	r3, #3
 8003670:	e146      	b.n	8003900 <HAL_RCC_OscConfig+0x4f8>
 8003672:	bf00      	nop
 8003674:	40021000 	.word	0x40021000
 8003678:	42420000 	.word	0x42420000
 800367c:	42420480 	.word	0x42420480
      while (__HAL_RCC_GET_FLAG(RCC_FLAG_LSIRDY) != RESET)
 8003680:	4b92      	ldr	r3, [pc, #584]	@ (80038cc <HAL_RCC_OscConfig+0x4c4>)
 8003682:	6a5b      	ldr	r3, [r3, #36]	@ 0x24
 8003684:	f003 0302 	and.w	r3, r3, #2
 8003688:	2b00      	cmp	r3, #0
 800368a:	d1e9      	bne.n	8003660 <HAL_RCC_OscConfig+0x258>
        }
      }
    }
  }
  /*------------------------------ LSE Configuration -------------------------*/
  if (((RCC_OscInitStruct->OscillatorType) & RCC_OSCILLATORTYPE_LSE) == RCC_OSCILLATORTYPE_LSE)
 800368c:	687b      	ldr	r3, [r7, #4]
 800368e:	681b      	ldr	r3, [r3, #0]
 8003690:	f003 0304 	and.w	r3, r3, #4
 8003694:	2b00      	cmp	r3, #0
 8003696:	f000 80a6 	beq.w	80037e6 <HAL_RCC_OscConfig+0x3de>
  {
    FlagStatus       pwrclkchanged = RESET;
 800369a:	2300      	movs	r3, #0
 800369c:	75fb      	strb	r3, [r7, #23]
    /* Check the parameters */
    assert_param(IS_RCC_LSE(RCC_OscInitStruct->LSEState));

    /* Update LSE configuration in Backup Domain control register    */
    /* Requires to enable write access to Backup Domain of necessary */
    if (__HAL_RCC_PWR_IS_CLK_DISABLED())
 800369e:	4b8b      	ldr	r3, [pc, #556]	@ (80038cc <HAL_RCC_OscConfig+0x4c4>)
 80036a0:	69db      	ldr	r3, [r3, #28]
 80036a2:	f003 5380 	and.w	r3, r3, #268435456	@ 0x10000000
 80036a6:	2b00      	cmp	r3, #0
 80036a8:	d10d      	bne.n	80036c6 <HAL_RCC_OscConfig+0x2be>
    {
      __HAL_RCC_PWR_CLK_ENABLE();
 80036aa:	4b88      	ldr	r3, [pc, #544]	@ (80038cc <HAL_RCC_OscConfig+0x4c4>)
 80036ac:	69db      	ldr	r3, [r3, #28]
 80036ae:	4a87      	ldr	r2, [pc, #540]	@ (80038cc <HAL_RCC_OscConfig+0x4c4>)
 80036b0:	f043 5380 	orr.w	r3, r3, #268435456	@ 0x10000000
 80036b4:	61d3      	str	r3, [r2, #28]
 80036b6:	4b85      	ldr	r3, [pc, #532]	@ (80038cc <HAL_RCC_OscConfig+0x4c4>)
 80036b8:	69db      	ldr	r3, [r3, #28]
 80036ba:	f003 5380 	and.w	r3, r3, #268435456	@ 0x10000000
 80036be:	60bb      	str	r3, [r7, #8]
 80036c0:	68bb      	ldr	r3, [r7, #8]
      pwrclkchanged = SET;
 80036c2:	2301      	movs	r3, #1
 80036c4:	75fb      	strb	r3, [r7, #23]
    }

    if (HAL_IS_BIT_CLR(PWR->CR, PWR_CR_DBP))
 80036c6:	4b82      	ldr	r3, [pc, #520]	@ (80038d0 <HAL_RCC_OscConfig+0x4c8>)
 80036c8:	681b      	ldr	r3, [r3, #0]
 80036ca:	f403 7380 	and.w	r3, r3, #256	@ 0x100
 80036ce:	2b00      	cmp	r3, #0
 80036d0:	d118      	bne.n	8003704 <HAL_RCC_OscConfig+0x2fc>
    {
      /* Enable write access to Backup domain */
      SET_BIT(PWR->CR, PWR_CR_DBP);
 80036d2:	4b7f      	ldr	r3, [pc, #508]	@ (80038d0 <HAL_RCC_OscConfig+0x4c8>)
 80036d4:	681b      	ldr	r3, [r3, #0]
 80036d6:	4a7e      	ldr	r2, [pc, #504]	@ (80038d0 <HAL_RCC_OscConfig+0x4c8>)
 80036d8:	f443 7380 	orr.w	r3, r3, #256	@ 0x100
 80036dc:	6013      	str	r3, [r2, #0]

      /* Wait for Backup domain Write protection disable */
      tickstart = HAL_GetTick();
 80036de:	f7fe fced 	bl	80020bc <HAL_GetTick>
 80036e2:	6138      	str	r0, [r7, #16]

      while (HAL_IS_BIT_CLR(PWR->CR, PWR_CR_DBP))
 80036e4:	e008      	b.n	80036f8 <HAL_RCC_OscConfig+0x2f0>
      {
        if ((HAL_GetTick() - tickstart) > RCC_DBP_TIMEOUT_VALUE)
 80036e6:	f7fe fce9 	bl	80020bc <HAL_GetTick>
 80036ea:	4602      	mov	r2, r0
 80036ec:	693b      	ldr	r3, [r7, #16]
 80036ee:	1ad3      	subs	r3, r2, r3
 80036f0:	2b64      	cmp	r3, #100	@ 0x64
 80036f2:	d901      	bls.n	80036f8 <HAL_RCC_OscConfig+0x2f0>
        {
          return HAL_TIMEOUT;
 80036f4:	2303      	movs	r3, #3
 80036f6:	e103      	b.n	8003900 <HAL_RCC_OscConfig+0x4f8>
      while (HAL_IS_BIT_CLR(PWR->CR, PWR_CR_DBP))
 80036f8:	4b75      	ldr	r3, [pc, #468]	@ (80038d0 <HAL_RCC_OscConfig+0x4c8>)
 80036fa:	681b      	ldr	r3, [r3, #0]
 80036fc:	f403 7380 	and.w	r3, r3, #256	@ 0x100
 8003700:	2b00      	cmp	r3, #0
 8003702:	d0f0      	beq.n	80036e6 <HAL_RCC_OscConfig+0x2de>
        }
      }
    }

    /* Set the new LSE configuration -----------------------------------------*/
    __HAL_RCC_LSE_CONFIG(RCC_OscInitStruct->LSEState);
 8003704:	687b      	ldr	r3, [r7, #4]
 8003706:	68db      	ldr	r3, [r3, #12]
 8003708:	2b01      	cmp	r3, #1
 800370a:	d106      	bne.n	800371a <HAL_RCC_OscConfig+0x312>
 800370c:	4b6f      	ldr	r3, [pc, #444]	@ (80038cc <HAL_RCC_OscConfig+0x4c4>)
 800370e:	6a1b      	ldr	r3, [r3, #32]
 8003710:	4a6e      	ldr	r2, [pc, #440]	@ (80038cc <HAL_RCC_OscConfig+0x4c4>)
 8003712:	f043 0301 	orr.w	r3, r3, #1
 8003716:	6213      	str	r3, [r2, #32]
 8003718:	e02d      	b.n	8003776 <HAL_RCC_OscConfig+0x36e>
 800371a:	687b      	ldr	r3, [r7, #4]
 800371c:	68db      	ldr	r3, [r3, #12]
 800371e:	2b00      	cmp	r3, #0
 8003720:	d10c      	bne.n	800373c <HAL_RCC_OscConfig+0x334>
 8003722:	4b6a      	ldr	r3, [pc, #424]	@ (80038cc <HAL_RCC_OscConfig+0x4c4>)
 8003724:	6a1b      	ldr	r3, [r3, #32]
 8003726:	4a69      	ldr	r2, [pc, #420]	@ (80038cc <HAL_RCC_OscConfig+0x4c4>)
 8003728:	f023 0301 	bic.w	r3, r3, #1
 800372c:	6213      	str	r3, [r2, #32]
 800372e:	4b67      	ldr	r3, [pc, #412]	@ (80038cc <HAL_RCC_OscConfig+0x4c4>)
 8003730:	6a1b      	ldr	r3, [r3, #32]
 8003732:	4a66      	ldr	r2, [pc, #408]	@ (80038cc <HAL_RCC_OscConfig+0x4c4>)
 8003734:	f023 0304 	bic.w	r3, r3, #4
 8003738:	6213      	str	r3, [r2, #32]
 800373a:	e01c      	b.n	8003776 <HAL_RCC_OscConfig+0x36e>
 800373c:	687b      	ldr	r3, [r7, #4]
 800373e:	68db      	ldr	r3, [r3, #12]
 8003740:	2b05      	cmp	r3, #5
 8003742:	d10c      	bne.n	800375e <HAL_RCC_OscConfig+0x356>
 8003744:	4b61      	ldr	r3, [pc, #388]	@ (80038cc <HAL_RCC_OscConfig+0x4c4>)
 8003746:	6a1b      	ldr	r3, [r3, #32]
 8003748:	4a60      	ldr	r2, [pc, #384]	@ (80038cc <HAL_RCC_OscConfig+0x4c4>)
 800374a:	f043 0304 	orr.w	r3, r3, #4
 800374e:	6213      	str	r3, [r2, #32]
 8003750:	4b5e      	ldr	r3, [pc, #376]	@ (80038cc <HAL_RCC_OscConfig+0x4c4>)
 8003752:	6a1b      	ldr	r3, [r3, #32]
 8003754:	4a5d      	ldr	r2, [pc, #372]	@ (80038cc <HAL_RCC_OscConfig+0x4c4>)
 8003756:	f043 0301 	orr.w	r3, r3, #1
 800375a:	6213      	str	r3, [r2, #32]
 800375c:	e00b      	b.n	8003776 <HAL_RCC_OscConfig+0x36e>
 800375e:	4b5b      	ldr	r3, [pc, #364]	@ (80038cc <HAL_RCC_OscConfig+0x4c4>)
 8003760:	6a1b      	ldr	r3, [r3, #32]
 8003762:	4a5a      	ldr	r2, [pc, #360]	@ (80038cc <HAL_RCC_OscConfig+0x4c4>)
 8003764:	f023 0301 	bic.w	r3, r3, #1
 8003768:	6213      	str	r3, [r2, #32]
 800376a:	4b58      	ldr	r3, [pc, #352]	@ (80038cc <HAL_RCC_OscConfig+0x4c4>)
 800376c:	6a1b      	ldr	r3, [r3, #32]
 800376e:	4a57      	ldr	r2, [pc, #348]	@ (80038cc <HAL_RCC_OscConfig+0x4c4>)
 8003770:	f023 0304 	bic.w	r3, r3, #4
 8003774:	6213      	str	r3, [r2, #32]
    /* Check the LSE State */
    if (RCC_OscInitStruct->LSEState != RCC_LSE_OFF)
 8003776:	687b      	ldr	r3, [r7, #4]
 8003778:	68db      	ldr	r3, [r3, #12]
 800377a:	2b00      	cmp	r3, #0
 800377c:	d015      	beq.n	80037aa <HAL_RCC_OscConfig+0x3a2>
    {
      /* Get Start Tick */
      tickstart = HAL_GetTick();
 800377e:	f7fe fc9d 	bl	80020bc <HAL_GetTick>
 8003782:	6138      	str	r0, [r7, #16]

      /* Wait till LSE is ready */
      while (__HAL_RCC_GET_FLAG(RCC_FLAG_LSERDY) == RESET)
 8003784:	e00a      	b.n	800379c <HAL_RCC_OscConfig+0x394>
      {
        if ((HAL_GetTick() - tickstart) > RCC_LSE_TIMEOUT_VALUE)
 8003786:	f7fe fc99 	bl	80020bc <HAL_GetTick>
 800378a:	4602      	mov	r2, r0
 800378c:	693b      	ldr	r3, [r7, #16]
 800378e:	1ad3      	subs	r3, r2, r3
 8003790:	f241 3288 	movw	r2, #5000	@ 0x1388
 8003794:	4293      	cmp	r3, r2
 8003796:	d901      	bls.n	800379c <HAL_RCC_OscConfig+0x394>
        {
          return HAL_TIMEOUT;
 8003798:	2303      	movs	r3, #3
 800379a:	e0b1      	b.n	8003900 <HAL_RCC_OscConfig+0x4f8>
      while (__HAL_RCC_GET_FLAG(RCC_FLAG_LSERDY) == RESET)
 800379c:	4b4b      	ldr	r3, [pc, #300]	@ (80038cc <HAL_RCC_OscConfig+0x4c4>)
 800379e:	6a1b      	ldr	r3, [r3, #32]
 80037a0:	f003 0302 	and.w	r3, r3, #2
 80037a4:	2b00      	cmp	r3, #0
 80037a6:	d0ee      	beq.n	8003786 <HAL_RCC_OscConfig+0x37e>
 80037a8:	e014      	b.n	80037d4 <HAL_RCC_OscConfig+0x3cc>
      }
    }
    else
    {
      /* Get Start Tick */
      tickstart = HAL_GetTick();
 80037aa:	f7fe fc87 	bl	80020bc <HAL_GetTick>
 80037ae:	6138      	str	r0, [r7, #16]

      /* Wait till LSE is disabled */
      while (__HAL_RCC_GET_FLAG(RCC_FLAG_LSERDY) != RESET)
 80037b0:	e00a      	b.n	80037c8 <HAL_RCC_OscConfig+0x3c0>
      {
        if ((HAL_GetTick() - tickstart) > RCC_LSE_TIMEOUT_VALUE)
 80037b2:	f7fe fc83 	bl	80020bc <HAL_GetTick>
 80037b6:	4602      	mov	r2, r0
 80037b8:	693b      	ldr	r3, [r7, #16]
 80037ba:	1ad3      	subs	r3, r2, r3
 80037bc:	f241 3288 	movw	r2, #5000	@ 0x1388
 80037c0:	4293      	cmp	r3, r2
 80037c2:	d901      	bls.n	80037c8 <HAL_RCC_OscConfig+0x3c0>
        {
          return HAL_TIMEOUT;
 80037c4:	2303      	movs	r3, #3
 80037c6:	e09b      	b.n	8003900 <HAL_RCC_OscConfig+0x4f8>
      while (__HAL_RCC_GET_FLAG(RCC_FLAG_LSERDY) != RESET)
 80037c8:	4b40      	ldr	r3, [pc, #256]	@ (80038cc <HAL_RCC_OscConfig+0x4c4>)
 80037ca:	6a1b      	ldr	r3, [r3, #32]
 80037cc:	f003 0302 	and.w	r3, r3, #2
 80037d0:	2b00      	cmp	r3, #0
 80037d2:	d1ee      	bne.n	80037b2 <HAL_RCC_OscConfig+0x3aa>
        }
      }
    }

    /* Require to disable power clock if necessary */
    if (pwrclkchanged == SET)
 80037d4:	7dfb      	ldrb	r3, [r7, #23]
 80037d6:	2b01      	cmp	r3, #1
 80037d8:	d105      	bne.n	80037e6 <HAL_RCC_OscConfig+0x3de>
    {
      __HAL_RCC_PWR_CLK_DISABLE();
 80037da:	4b3c      	ldr	r3, [pc, #240]	@ (80038cc <HAL_RCC_OscConfig+0x4c4>)
 80037dc:	69db      	ldr	r3, [r3, #28]
 80037de:	4a3b      	ldr	r2, [pc, #236]	@ (80038cc <HAL_RCC_OscConfig+0x4c4>)
 80037e0:	f023 5380 	bic.w	r3, r3, #268435456	@ 0x10000000
 80037e4:	61d3      	str	r3, [r2, #28]

#endif /* RCC_CR_PLL2ON */
  /*-------------------------------- PLL Configuration -----------------------*/
  /* Check the parameters */
  assert_param(IS_RCC_PLL(RCC_OscInitStruct->PLL.PLLState));
  if ((RCC_OscInitStruct->PLL.PLLState) != RCC_PLL_NONE)
 80037e6:	687b      	ldr	r3, [r7, #4]
 80037e8:	69db      	ldr	r3, [r3, #28]
 80037ea:	2b00      	cmp	r3, #0
 80037ec:	f000 8087 	beq.w	80038fe <HAL_RCC_OscConfig+0x4f6>
  {
    /* Check if the PLL is used as system clock or not */
    if (__HAL_RCC_GET_SYSCLK_SOURCE() != RCC_SYSCLKSOURCE_STATUS_PLLCLK)
 80037f0:	4b36      	ldr	r3, [pc, #216]	@ (80038cc <HAL_RCC_OscConfig+0x4c4>)
 80037f2:	685b      	ldr	r3, [r3, #4]
 80037f4:	f003 030c 	and.w	r3, r3, #12
 80037f8:	2b08      	cmp	r3, #8
 80037fa:	d061      	beq.n	80038c0 <HAL_RCC_OscConfig+0x4b8>
    {
      if ((RCC_OscInitStruct->PLL.PLLState) == RCC_PLL_ON)
 80037fc:	687b      	ldr	r3, [r7, #4]
 80037fe:	69db      	ldr	r3, [r3, #28]
 8003800:	2b02      	cmp	r3, #2
 8003802:	d146      	bne.n	8003892 <HAL_RCC_OscConfig+0x48a>
        /* Check the parameters */
        assert_param(IS_RCC_PLLSOURCE(RCC_OscInitStruct->PLL.PLLSource));
        assert_param(IS_RCC_PLL_MUL(RCC_OscInitStruct->PLL.PLLMUL));

        /* Disable the main PLL. */
        __HAL_RCC_PLL_DISABLE();
 8003804:	4b33      	ldr	r3, [pc, #204]	@ (80038d4 <HAL_RCC_OscConfig+0x4cc>)
 8003806:	2200      	movs	r2, #0
 8003808:	601a      	str	r2, [r3, #0]

        /* Get Start Tick */
        tickstart = HAL_GetTick();
 800380a:	f7fe fc57 	bl	80020bc <HAL_GetTick>
 800380e:	6138      	str	r0, [r7, #16]

        /* Wait till PLL is disabled */
        while (__HAL_RCC_GET_FLAG(RCC_FLAG_PLLRDY)  != RESET)
 8003810:	e008      	b.n	8003824 <HAL_RCC_OscConfig+0x41c>
        {
          if ((HAL_GetTick() - tickstart) > PLL_TIMEOUT_VALUE)
 8003812:	f7fe fc53 	bl	80020bc <HAL_GetTick>
 8003816:	4602      	mov	r2, r0
 8003818:	693b      	ldr	r3, [r7, #16]
 800381a:	1ad3      	subs	r3, r2, r3
 800381c:	2b02      	cmp	r3, #2
 800381e:	d901      	bls.n	8003824 <HAL_RCC_OscConfig+0x41c>
          {
            return HAL_TIMEOUT;
 8003820:	2303      	movs	r3, #3
 8003822:	e06d      	b.n	8003900 <HAL_RCC_OscConfig+0x4f8>
        while (__HAL_RCC_GET_FLAG(RCC_FLAG_PLLRDY)  != RESET)
 8003824:	4b29      	ldr	r3, [pc, #164]	@ (80038cc <HAL_RCC_OscConfig+0x4c4>)
 8003826:	681b      	ldr	r3, [r3, #0]
 8003828:	f003 7300 	and.w	r3, r3, #33554432	@ 0x2000000
 800382c:	2b00      	cmp	r3, #0
 800382e:	d1f0      	bne.n	8003812 <HAL_RCC_OscConfig+0x40a>
          }
        }

        /* Configure the HSE prediv factor --------------------------------*/
        /* It can be written only when the PLL is disabled. Not used in PLL source is different than HSE */
        if (RCC_OscInitStruct->PLL.PLLSource == RCC_PLLSOURCE_HSE)
 8003830:	687b      	ldr	r3, [r7, #4]
 8003832:	6a1b      	ldr	r3, [r3, #32]
 8003834:	f5b3 3f80 	cmp.w	r3, #65536	@ 0x10000
 8003838:	d108      	bne.n	800384c <HAL_RCC_OscConfig+0x444>
          /* Set PREDIV1 source */
          SET_BIT(RCC->CFGR2, RCC_OscInitStruct->Prediv1Source);
#endif /* RCC_CFGR2_PREDIV1SRC */

          /* Set PREDIV1 Value */
          __HAL_RCC_HSE_PREDIV_CONFIG(RCC_OscInitStruct->HSEPredivValue);
 800383a:	4b24      	ldr	r3, [pc, #144]	@ (80038cc <HAL_RCC_OscConfig+0x4c4>)
 800383c:	685b      	ldr	r3, [r3, #4]
 800383e:	f423 3200 	bic.w	r2, r3, #131072	@ 0x20000
 8003842:	687b      	ldr	r3, [r7, #4]
 8003844:	689b      	ldr	r3, [r3, #8]
 8003846:	4921      	ldr	r1, [pc, #132]	@ (80038cc <HAL_RCC_OscConfig+0x4c4>)
 8003848:	4313      	orrs	r3, r2
 800384a:	604b      	str	r3, [r1, #4]
        }

        /* Configure the main PLL clock source and multiplication factors. */
        __HAL_RCC_PLL_CONFIG(RCC_OscInitStruct->PLL.PLLSource,
 800384c:	4b1f      	ldr	r3, [pc, #124]	@ (80038cc <HAL_RCC_OscConfig+0x4c4>)
 800384e:	685b      	ldr	r3, [r3, #4]
 8003850:	f423 1274 	bic.w	r2, r3, #3997696	@ 0x3d0000
 8003854:	687b      	ldr	r3, [r7, #4]
 8003856:	6a19      	ldr	r1, [r3, #32]
 8003858:	687b      	ldr	r3, [r7, #4]
 800385a:	6a5b      	ldr	r3, [r3, #36]	@ 0x24
 800385c:	430b      	orrs	r3, r1
 800385e:	491b      	ldr	r1, [pc, #108]	@ (80038cc <HAL_RCC_OscConfig+0x4c4>)
 8003860:	4313      	orrs	r3, r2
 8003862:	604b      	str	r3, [r1, #4]
                             RCC_OscInitStruct->PLL.PLLMUL);
        /* Enable the main PLL. */
        __HAL_RCC_PLL_ENABLE();
 8003864:	4b1b      	ldr	r3, [pc, #108]	@ (80038d4 <HAL_RCC_OscConfig+0x4cc>)
 8003866:	2201      	movs	r2, #1
 8003868:	601a      	str	r2, [r3, #0]

        /* Get Start Tick */
        tickstart = HAL_GetTick();
 800386a:	f7fe fc27 	bl	80020bc <HAL_GetTick>
 800386e:	6138      	str	r0, [r7, #16]

        /* Wait till PLL is ready */
        while (__HAL_RCC_GET_FLAG(RCC_FLAG_PLLRDY)  == RESET)
 8003870:	e008      	b.n	8003884 <HAL_RCC_OscConfig+0x47c>
        {
          if ((HAL_GetTick() - tickstart) > PLL_TIMEOUT_VALUE)
 8003872:	f7fe fc23 	bl	80020bc <HAL_GetTick>
 8003876:	4602      	mov	r2, r0
 8003878:	693b      	ldr	r3, [r7, #16]
 800387a:	1ad3      	subs	r3, r2, r3
 800387c:	2b02      	cmp	r3, #2
 800387e:	d901      	bls.n	8003884 <HAL_RCC_OscConfig+0x47c>
          {
            return HAL_TIMEOUT;
 8003880:	2303      	movs	r3, #3
 8003882:	e03d      	b.n	8003900 <HAL_RCC_OscConfig+0x4f8>
        while (__HAL_RCC_GET_FLAG(RCC_FLAG_PLLRDY)  == RESET)
 8003884:	4b11      	ldr	r3, [pc, #68]	@ (80038cc <HAL_RCC_OscConfig+0x4c4>)
 8003886:	681b      	ldr	r3, [r3, #0]
 8003888:	f003 7300 	and.w	r3, r3, #33554432	@ 0x2000000
 800388c:	2b00      	cmp	r3, #0
 800388e:	d0f0      	beq.n	8003872 <HAL_RCC_OscConfig+0x46a>
 8003890:	e035      	b.n	80038fe <HAL_RCC_OscConfig+0x4f6>
        }
      }
      else
      {
        /* Disable the main PLL. */
        __HAL_RCC_PLL_DISABLE();
 8003892:	4b10      	ldr	r3, [pc, #64]	@ (80038d4 <HAL_RCC_OscConfig+0x4cc>)
 8003894:	2200      	movs	r2, #0
 8003896:	601a      	str	r2, [r3, #0]

        /* Get Start Tick */
        tickstart = HAL_GetTick();
 8003898:	f7fe fc10 	bl	80020bc <HAL_GetTick>
 800389c:	6138      	str	r0, [r7, #16]

        /* Wait till PLL is disabled */
        while (__HAL_RCC_GET_FLAG(RCC_FLAG_PLLRDY)  != RESET)
 800389e:	e008      	b.n	80038b2 <HAL_RCC_OscConfig+0x4aa>
        {
          if ((HAL_GetTick() - tickstart) > PLL_TIMEOUT_VALUE)
 80038a0:	f7fe fc0c 	bl	80020bc <HAL_GetTick>
 80038a4:	4602      	mov	r2, r0
 80038a6:	693b      	ldr	r3, [r7, #16]
 80038a8:	1ad3      	subs	r3, r2, r3
 80038aa:	2b02      	cmp	r3, #2
 80038ac:	d901      	bls.n	80038b2 <HAL_RCC_OscConfig+0x4aa>
          {
            return HAL_TIMEOUT;
 80038ae:	2303      	movs	r3, #3
 80038b0:	e026      	b.n	8003900 <HAL_RCC_OscConfig+0x4f8>
        while (__HAL_RCC_GET_FLAG(RCC_FLAG_PLLRDY)  != RESET)
 80038b2:	4b06      	ldr	r3, [pc, #24]	@ (80038cc <HAL_RCC_OscConfig+0x4c4>)
 80038b4:	681b      	ldr	r3, [r3, #0]
 80038b6:	f003 7300 	and.w	r3, r3, #33554432	@ 0x2000000
 80038ba:	2b00      	cmp	r3, #0
 80038bc:	d1f0      	bne.n	80038a0 <HAL_RCC_OscConfig+0x498>
 80038be:	e01e      	b.n	80038fe <HAL_RCC_OscConfig+0x4f6>
      }
    }
    else
    {
      /* Check if there is a request to disable the PLL used as System clock source */
      if ((RCC_OscInitStruct->PLL.PLLState) == RCC_PLL_OFF)
 80038c0:	687b      	ldr	r3, [r7, #4]
 80038c2:	69db      	ldr	r3, [r3, #28]
 80038c4:	2b01      	cmp	r3, #1
 80038c6:	d107      	bne.n	80038d8 <HAL_RCC_OscConfig+0x4d0>
      {
        return HAL_ERROR;
 80038c8:	2301      	movs	r3, #1
 80038ca:	e019      	b.n	8003900 <HAL_RCC_OscConfig+0x4f8>
 80038cc:	40021000 	.word	0x40021000
 80038d0:	40007000 	.word	0x40007000
 80038d4:	42420060 	.word	0x42420060
      }
      else
      {
        /* Do not return HAL_ERROR if request repeats the current configuration */
        pll_config = RCC->CFGR;
 80038d8:	4b0b      	ldr	r3, [pc, #44]	@ (8003908 <HAL_RCC_OscConfig+0x500>)
 80038da:	685b      	ldr	r3, [r3, #4]
 80038dc:	60fb      	str	r3, [r7, #12]
        if ((READ_BIT(pll_config, RCC_CFGR_PLLSRC) != RCC_OscInitStruct->PLL.PLLSource) ||
 80038de:	68fb      	ldr	r3, [r7, #12]
 80038e0:	f403 3280 	and.w	r2, r3, #65536	@ 0x10000
 80038e4:	687b      	ldr	r3, [r7, #4]
 80038e6:	6a1b      	ldr	r3, [r3, #32]
 80038e8:	429a      	cmp	r2, r3
 80038ea:	d106      	bne.n	80038fa <HAL_RCC_OscConfig+0x4f2>
            (READ_BIT(pll_config, RCC_CFGR_PLLMULL) != RCC_OscInitStruct->PLL.PLLMUL))
 80038ec:	68fb      	ldr	r3, [r7, #12]
 80038ee:	f403 1270 	and.w	r2, r3, #3932160	@ 0x3c0000
 80038f2:	687b      	ldr	r3, [r7, #4]
 80038f4:	6a5b      	ldr	r3, [r3, #36]	@ 0x24
        if ((READ_BIT(pll_config, RCC_CFGR_PLLSRC) != RCC_OscInitStruct->PLL.PLLSource) ||
 80038f6:	429a      	cmp	r2, r3
 80038f8:	d001      	beq.n	80038fe <HAL_RCC_OscConfig+0x4f6>
        {
          return HAL_ERROR;
 80038fa:	2301      	movs	r3, #1
 80038fc:	e000      	b.n	8003900 <HAL_RCC_OscConfig+0x4f8>
        }
      }
    }
  }

  return HAL_OK;
 80038fe:	2300      	movs	r3, #0
}
 8003900:	4618      	mov	r0, r3
 8003902:	3718      	adds	r7, #24
 8003904:	46bd      	mov	sp, r7
 8003906:	bd80      	pop	{r7, pc}
 8003908:	40021000 	.word	0x40021000

0800390c <HAL_RCC_ClockConfig>:
  *         You can use @ref HAL_RCC_GetClockConfig() function to know which clock is
  *         currently used as system clock source.
  * @retval HAL status
  */
HAL_StatusTypeDef HAL_RCC_ClockConfig(RCC_ClkInitTypeDef  *RCC_ClkInitStruct, uint32_t FLatency)
{
 800390c:	b580      	push	{r7, lr}
 800390e:	b084      	sub	sp, #16
 8003910:	af00      	add	r7, sp, #0
 8003912:	6078      	str	r0, [r7, #4]
 8003914:	6039      	str	r1, [r7, #0]
  uint32_t tickstart;

  /* Check Null pointer */
  if (RCC_ClkInitStruct == NULL)
 8003916:	687b      	ldr	r3, [r7, #4]
 8003918:	2b00      	cmp	r3, #0
 800391a:	d101      	bne.n	8003920 <HAL_RCC_ClockConfig+0x14>
  {
    return HAL_ERROR;
 800391c:	2301      	movs	r3, #1
 800391e:	e0d0      	b.n	8003ac2 <HAL_RCC_ClockConfig+0x1b6>
  must be correctly programmed according to the frequency of the CPU clock
    (HCLK) of the device. */

#if defined(FLASH_ACR_LATENCY)
  /* Increasing the number of wait states because of higher CPU frequency */
  if (FLatency > __HAL_FLASH_GET_LATENCY())
 8003920:	4b6a      	ldr	r3, [pc, #424]	@ (8003acc <HAL_RCC_ClockConfig+0x1c0>)
 8003922:	681b      	ldr	r3, [r3, #0]
 8003924:	f003 0307 	and.w	r3, r3, #7
 8003928:	683a      	ldr	r2, [r7, #0]
 800392a:	429a      	cmp	r2, r3
 800392c:	d910      	bls.n	8003950 <HAL_RCC_ClockConfig+0x44>
  {
    /* Program the new number of wait states to the LATENCY bits in the FLASH_ACR register */
    __HAL_FLASH_SET_LATENCY(FLatency);
 800392e:	4b67      	ldr	r3, [pc, #412]	@ (8003acc <HAL_RCC_ClockConfig+0x1c0>)
 8003930:	681b      	ldr	r3, [r3, #0]
 8003932:	f023 0207 	bic.w	r2, r3, #7
 8003936:	4965      	ldr	r1, [pc, #404]	@ (8003acc <HAL_RCC_ClockConfig+0x1c0>)
 8003938:	683b      	ldr	r3, [r7, #0]
 800393a:	4313      	orrs	r3, r2
 800393c:	600b      	str	r3, [r1, #0]

    /* Check that the new number of wait states is taken into account to access the Flash
    memory by reading the FLASH_ACR register */
    if (__HAL_FLASH_GET_LATENCY() != FLatency)
 800393e:	4b63      	ldr	r3, [pc, #396]	@ (8003acc <HAL_RCC_ClockConfig+0x1c0>)
 8003940:	681b      	ldr	r3, [r3, #0]
 8003942:	f003 0307 	and.w	r3, r3, #7
 8003946:	683a      	ldr	r2, [r7, #0]
 8003948:	429a      	cmp	r2, r3
 800394a:	d001      	beq.n	8003950 <HAL_RCC_ClockConfig+0x44>
  {
    return HAL_ERROR;
 800394c:	2301      	movs	r3, #1
 800394e:	e0b8      	b.n	8003ac2 <HAL_RCC_ClockConfig+0x1b6>
  }
}

#endif /* FLASH_ACR_LATENCY */
/*-------------------------- HCLK Configuration --------------------------*/
if (((RCC_ClkInitStruct->ClockType) & RCC_CLOCKTYPE_HCLK) == RCC_CLOCKTYPE_HCLK)
 8003950:	687b      	ldr	r3, [r7, #4]
 8003952:	681b      	ldr	r3, [r3, #0]
 8003954:	f003 0302 	and.w	r3, r3, #2
 8003958:	2b00      	cmp	r3, #0
 800395a:	d020      	beq.n	800399e <HAL_RCC_ClockConfig+0x92>
  {
    /* Set the highest APBx dividers in order to ensure that we do not go through
    a non-spec phase whatever we decrease or increase HCLK. */
    if (((RCC_ClkInitStruct->ClockType) & RCC_CLOCKTYPE_PCLK1) == RCC_CLOCKTYPE_PCLK1)
 800395c:	687b      	ldr	r3, [r7, #4]
 800395e:	681b      	ldr	r3, [r3, #0]
 8003960:	f003 0304 	and.w	r3, r3, #4
 8003964:	2b00      	cmp	r3, #0
 8003966:	d005      	beq.n	8003974 <HAL_RCC_ClockConfig+0x68>
    {
      MODIFY_REG(RCC->CFGR, RCC_CFGR_PPRE1, RCC_HCLK_DIV16);
 8003968:	4b59      	ldr	r3, [pc, #356]	@ (8003ad0 <HAL_RCC_ClockConfig+0x1c4>)
 800396a:	685b      	ldr	r3, [r3, #4]
 800396c:	4a58      	ldr	r2, [pc, #352]	@ (8003ad0 <HAL_RCC_ClockConfig+0x1c4>)
 800396e:	f443 63e0 	orr.w	r3, r3, #1792	@ 0x700
 8003972:	6053      	str	r3, [r2, #4]
    }

    if (((RCC_ClkInitStruct->ClockType) & RCC_CLOCKTYPE_PCLK2) == RCC_CLOCKTYPE_PCLK2)
 8003974:	687b      	ldr	r3, [r7, #4]
 8003976:	681b      	ldr	r3, [r3, #0]
 8003978:	f003 0308 	and.w	r3, r3, #8
 800397c:	2b00      	cmp	r3, #0
 800397e:	d005      	beq.n	800398c <HAL_RCC_ClockConfig+0x80>
    {
      MODIFY_REG(RCC->CFGR, RCC_CFGR_PPRE2, (RCC_HCLK_DIV16 << 3));
 8003980:	4b53      	ldr	r3, [pc, #332]	@ (8003ad0 <HAL_RCC_ClockConfig+0x1c4>)
 8003982:	685b      	ldr	r3, [r3, #4]
 8003984:	4a52      	ldr	r2, [pc, #328]	@ (8003ad0 <HAL_RCC_ClockConfig+0x1c4>)
 8003986:	f443 5360 	orr.w	r3, r3, #14336	@ 0x3800
 800398a:	6053      	str	r3, [r2, #4]
    }

    /* Set the new HCLK clock divider */
    assert_param(IS_RCC_HCLK(RCC_ClkInitStruct->AHBCLKDivider));
    MODIFY_REG(RCC->CFGR, RCC_CFGR_HPRE, RCC_ClkInitStruct->AHBCLKDivider);
 800398c:	4b50      	ldr	r3, [pc, #320]	@ (8003ad0 <HAL_RCC_ClockConfig+0x1c4>)
 800398e:	685b      	ldr	r3, [r3, #4]
 8003990:	f023 02f0 	bic.w	r2, r3, #240	@ 0xf0
 8003994:	687b      	ldr	r3, [r7, #4]
 8003996:	689b      	ldr	r3, [r3, #8]
 8003998:	494d      	ldr	r1, [pc, #308]	@ (8003ad0 <HAL_RCC_ClockConfig+0x1c4>)
 800399a:	4313      	orrs	r3, r2
 800399c:	604b      	str	r3, [r1, #4]
  }

  /*------------------------- SYSCLK Configuration ---------------------------*/
  if (((RCC_ClkInitStruct->ClockType) & RCC_CLOCKTYPE_SYSCLK) == RCC_CLOCKTYPE_SYSCLK)
 800399e:	687b      	ldr	r3, [r7, #4]
 80039a0:	681b      	ldr	r3, [r3, #0]
 80039a2:	f003 0301 	and.w	r3, r3, #1
 80039a6:	2b00      	cmp	r3, #0
 80039a8:	d040      	beq.n	8003a2c <HAL_RCC_ClockConfig+0x120>
  {
    assert_param(IS_RCC_SYSCLKSOURCE(RCC_ClkInitStruct->SYSCLKSource));

    /* HSE is selected as System Clock Source */
    if (RCC_ClkInitStruct->SYSCLKSource == RCC_SYSCLKSOURCE_HSE)
 80039aa:	687b      	ldr	r3, [r7, #4]
 80039ac:	685b      	ldr	r3, [r3, #4]
 80039ae:	2b01      	cmp	r3, #1
 80039b0:	d107      	bne.n	80039c2 <HAL_RCC_ClockConfig+0xb6>
    {
      /* Check the HSE ready flag */
      if (__HAL_RCC_GET_FLAG(RCC_FLAG_HSERDY) == RESET)
 80039b2:	4b47      	ldr	r3, [pc, #284]	@ (8003ad0 <HAL_RCC_ClockConfig+0x1c4>)
 80039b4:	681b      	ldr	r3, [r3, #0]
 80039b6:	f403 3300 	and.w	r3, r3, #131072	@ 0x20000
 80039ba:	2b00      	cmp	r3, #0
 80039bc:	d115      	bne.n	80039ea <HAL_RCC_ClockConfig+0xde>
      {
        return HAL_ERROR;
 80039be:	2301      	movs	r3, #1
 80039c0:	e07f      	b.n	8003ac2 <HAL_RCC_ClockConfig+0x1b6>
      }
    }
    /* PLL is selected as System Clock Source */
    else if (RCC_ClkInitStruct->SYSCLKSource == RCC_SYSCLKSOURCE_PLLCLK)
 80039c2:	687b      	ldr	r3, [r7, #4]
 80039c4:	685b      	ldr	r3, [r3, #4]
 80039c6:	2b02      	cmp	r3, #2
 80039c8:	d107      	bne.n	80039da <HAL_RCC_ClockConfig+0xce>
    {
      /* Check the PLL ready flag */
      if (__HAL_RCC_GET_FLAG(RCC_FLAG_PLLRDY) == RESET)
 80039ca:	4b41      	ldr	r3, [pc, #260]	@ (8003ad0 <HAL_RCC_ClockConfig+0x1c4>)
 80039cc:	681b      	ldr	r3, [r3, #0]
 80039ce:	f003 7300 	and.w	r3, r3, #33554432	@ 0x2000000
 80039d2:	2b00      	cmp	r3, #0
 80039d4:	d109      	bne.n	80039ea <HAL_RCC_ClockConfig+0xde>
      {
        return HAL_ERROR;
 80039d6:	2301      	movs	r3, #1
 80039d8:	e073      	b.n	8003ac2 <HAL_RCC_ClockConfig+0x1b6>
    }
    /* HSI is selected as System Clock Source */
    else
    {
      /* Check the HSI ready flag */
      if (__HAL_RCC_GET_FLAG(RCC_FLAG_HSIRDY) == RESET)
 80039da:	4b3d      	ldr	r3, [pc, #244]	@ (8003ad0 <HAL_RCC_ClockConfig+0x1c4>)
 80039dc:	681b      	ldr	r3, [r3, #0]
 80039de:	f003 0302 	and.w	r3, r3, #2
 80039e2:	2b00      	cmp	r3, #0
 80039e4:	d101      	bne.n	80039ea <HAL_RCC_ClockConfig+0xde>
      {
        return HAL_ERROR;
 80039e6:	2301      	movs	r3, #1
 80039e8:	e06b      	b.n	8003ac2 <HAL_RCC_ClockConfig+0x1b6>
      }
    }
    __HAL_RCC_SYSCLK_CONFIG(RCC_ClkInitStruct->SYSCLKSource);
 80039ea:	4b39      	ldr	r3, [pc, #228]	@ (8003ad0 <HAL_RCC_ClockConfig+0x1c4>)
 80039ec:	685b      	ldr	r3, [r3, #4]
 80039ee:	f023 0203 	bic.w	r2, r3, #3
 80039f2:	687b      	ldr	r3, [r7, #4]
 80039f4:	685b      	ldr	r3, [r3, #4]
 80039f6:	4936      	ldr	r1, [pc, #216]	@ (8003ad0 <HAL_RCC_ClockConfig+0x1c4>)
 80039f8:	4313      	orrs	r3, r2
 80039fa:	604b      	str	r3, [r1, #4]

    /* Get Start Tick */
    tickstart = HAL_GetTick();
 80039fc:	f7fe fb5e 	bl	80020bc <HAL_GetTick>
 8003a00:	60f8      	str	r0, [r7, #12]

    while (__HAL_RCC_GET_SYSCLK_SOURCE() != (RCC_ClkInitStruct->SYSCLKSource << RCC_CFGR_SWS_Pos))
 8003a02:	e00a      	b.n	8003a1a <HAL_RCC_ClockConfig+0x10e>
    {
      if ((HAL_GetTick() - tickstart) > CLOCKSWITCH_TIMEOUT_VALUE)
 8003a04:	f7fe fb5a 	bl	80020bc <HAL_GetTick>
 8003a08:	4602      	mov	r2, r0
 8003a0a:	68fb      	ldr	r3, [r7, #12]
 8003a0c:	1ad3      	subs	r3, r2, r3
 8003a0e:	f241 3288 	movw	r2, #5000	@ 0x1388
 8003a12:	4293      	cmp	r3, r2
 8003a14:	d901      	bls.n	8003a1a <HAL_RCC_ClockConfig+0x10e>
      {
        return HAL_TIMEOUT;
 8003a16:	2303      	movs	r3, #3
 8003a18:	e053      	b.n	8003ac2 <HAL_RCC_ClockConfig+0x1b6>
    while (__HAL_RCC_GET_SYSCLK_SOURCE() != (RCC_ClkInitStruct->SYSCLKSource << RCC_CFGR_SWS_Pos))
 8003a1a:	4b2d      	ldr	r3, [pc, #180]	@ (8003ad0 <HAL_RCC_ClockConfig+0x1c4>)
 8003a1c:	685b      	ldr	r3, [r3, #4]
 8003a1e:	f003 020c 	and.w	r2, r3, #12
 8003a22:	687b      	ldr	r3, [r7, #4]
 8003a24:	685b      	ldr	r3, [r3, #4]
 8003a26:	009b      	lsls	r3, r3, #2
 8003a28:	429a      	cmp	r2, r3
 8003a2a:	d1eb      	bne.n	8003a04 <HAL_RCC_ClockConfig+0xf8>
    }
  }

#if defined(FLASH_ACR_LATENCY)
  /* Decreasing the number of wait states because of lower CPU frequency */
  if (FLatency < __HAL_FLASH_GET_LATENCY())
 8003a2c:	4b27      	ldr	r3, [pc, #156]	@ (8003acc <HAL_RCC_ClockConfig+0x1c0>)
 8003a2e:	681b      	ldr	r3, [r3, #0]
 8003a30:	f003 0307 	and.w	r3, r3, #7
 8003a34:	683a      	ldr	r2, [r7, #0]
 8003a36:	429a      	cmp	r2, r3
 8003a38:	d210      	bcs.n	8003a5c <HAL_RCC_ClockConfig+0x150>
  {
    /* Program the new number of wait states to the LATENCY bits in the FLASH_ACR register */
    __HAL_FLASH_SET_LATENCY(FLatency);
 8003a3a:	4b24      	ldr	r3, [pc, #144]	@ (8003acc <HAL_RCC_ClockConfig+0x1c0>)
 8003a3c:	681b      	ldr	r3, [r3, #0]
 8003a3e:	f023 0207 	bic.w	r2, r3, #7
 8003a42:	4922      	ldr	r1, [pc, #136]	@ (8003acc <HAL_RCC_ClockConfig+0x1c0>)
 8003a44:	683b      	ldr	r3, [r7, #0]
 8003a46:	4313      	orrs	r3, r2
 8003a48:	600b      	str	r3, [r1, #0]

    /* Check that the new number of wait states is taken into account to access the Flash
    memory by reading the FLASH_ACR register */
    if (__HAL_FLASH_GET_LATENCY() != FLatency)
 8003a4a:	4b20      	ldr	r3, [pc, #128]	@ (8003acc <HAL_RCC_ClockConfig+0x1c0>)
 8003a4c:	681b      	ldr	r3, [r3, #0]
 8003a4e:	f003 0307 	and.w	r3, r3, #7
 8003a52:	683a      	ldr	r2, [r7, #0]
 8003a54:	429a      	cmp	r2, r3
 8003a56:	d001      	beq.n	8003a5c <HAL_RCC_ClockConfig+0x150>
  {
    return HAL_ERROR;
 8003a58:	2301      	movs	r3, #1
 8003a5a:	e032      	b.n	8003ac2 <HAL_RCC_ClockConfig+0x1b6>
  }
}
#endif /* FLASH_ACR_LATENCY */

/*-------------------------- PCLK1 Configuration ---------------------------*/
if (((RCC_ClkInitStruct->ClockType) & RCC_CLOCKTYPE_PCLK1) == RCC_CLOCKTYPE_PCLK1)
 8003a5c:	687b      	ldr	r3, [r7, #4]
 8003a5e:	681b      	ldr	r3, [r3, #0]
 8003a60:	f003 0304 	and.w	r3, r3, #4
 8003a64:	2b00      	cmp	r3, #0
 8003a66:	d008      	beq.n	8003a7a <HAL_RCC_ClockConfig+0x16e>
  {
    assert_param(IS_RCC_PCLK(RCC_ClkInitStruct->APB1CLKDivider));
    MODIFY_REG(RCC->CFGR, RCC_CFGR_PPRE1, RCC_ClkInitStruct->APB1CLKDivider);
 8003a68:	4b19      	ldr	r3, [pc, #100]	@ (8003ad0 <HAL_RCC_ClockConfig+0x1c4>)
 8003a6a:	685b      	ldr	r3, [r3, #4]
 8003a6c:	f423 62e0 	bic.w	r2, r3, #1792	@ 0x700
 8003a70:	687b      	ldr	r3, [r7, #4]
 8003a72:	68db      	ldr	r3, [r3, #12]
 8003a74:	4916      	ldr	r1, [pc, #88]	@ (8003ad0 <HAL_RCC_ClockConfig+0x1c4>)
 8003a76:	4313      	orrs	r3, r2
 8003a78:	604b      	str	r3, [r1, #4]
  }

  /*-------------------------- PCLK2 Configuration ---------------------------*/
  if (((RCC_ClkInitStruct->ClockType) & RCC_CLOCKTYPE_PCLK2) == RCC_CLOCKTYPE_PCLK2)
 8003a7a:	687b      	ldr	r3, [r7, #4]
 8003a7c:	681b      	ldr	r3, [r3, #0]
 8003a7e:	f003 0308 	and.w	r3, r3, #8
 8003a82:	2b00      	cmp	r3, #0
 8003a84:	d009      	beq.n	8003a9a <HAL_RCC_ClockConfig+0x18e>
  {
    assert_param(IS_RCC_PCLK(RCC_ClkInitStruct->APB2CLKDivider));
    MODIFY_REG(RCC->CFGR, RCC_CFGR_PPRE2, ((RCC_ClkInitStruct->APB2CLKDivider) << 3));
 8003a86:	4b12      	ldr	r3, [pc, #72]	@ (8003ad0 <HAL_RCC_ClockConfig+0x1c4>)
 8003a88:	685b      	ldr	r3, [r3, #4]
 8003a8a:	f423 5260 	bic.w	r2, r3, #14336	@ 0x3800
 8003a8e:	687b      	ldr	r3, [r7, #4]
 8003a90:	691b      	ldr	r3, [r3, #16]
 8003a92:	00db      	lsls	r3, r3, #3
 8003a94:	490e      	ldr	r1, [pc, #56]	@ (8003ad0 <HAL_RCC_ClockConfig+0x1c4>)
 8003a96:	4313      	orrs	r3, r2
 8003a98:	604b      	str	r3, [r1, #4]
  }

  /* Update the SystemCoreClock global variable */
  SystemCoreClock = HAL_RCC_GetSysClockFreq() >> AHBPrescTable[(RCC->CFGR & RCC_CFGR_HPRE) >> RCC_CFGR_HPRE_Pos];
 8003a9a:	f000 f821 	bl	8003ae0 <HAL_RCC_GetSysClockFreq>
 8003a9e:	4602      	mov	r2, r0
 8003aa0:	4b0b      	ldr	r3, [pc, #44]	@ (8003ad0 <HAL_RCC_ClockConfig+0x1c4>)
 8003aa2:	685b      	ldr	r3, [r3, #4]
 8003aa4:	091b      	lsrs	r3, r3, #4
 8003aa6:	f003 030f 	and.w	r3, r3, #15
 8003aaa:	490a      	ldr	r1, [pc, #40]	@ (8003ad4 <HAL_RCC_ClockConfig+0x1c8>)
 8003aac:	5ccb      	ldrb	r3, [r1, r3]
 8003aae:	fa22 f303 	lsr.w	r3, r2, r3
 8003ab2:	4a09      	ldr	r2, [pc, #36]	@ (8003ad8 <HAL_RCC_ClockConfig+0x1cc>)
 8003ab4:	6013      	str	r3, [r2, #0]

  /* Configure the source of time base considering new system clocks settings*/
  HAL_InitTick(uwTickPrio);
 8003ab6:	4b09      	ldr	r3, [pc, #36]	@ (8003adc <HAL_RCC_ClockConfig+0x1d0>)
 8003ab8:	681b      	ldr	r3, [r3, #0]
 8003aba:	4618      	mov	r0, r3
 8003abc:	f7fe fabc 	bl	8002038 <HAL_InitTick>

  return HAL_OK;
 8003ac0:	2300      	movs	r3, #0
}
 8003ac2:	4618      	mov	r0, r3
 8003ac4:	3710      	adds	r7, #16
 8003ac6:	46bd      	mov	sp, r7
 8003ac8:	bd80      	pop	{r7, pc}
 8003aca:	bf00      	nop
 8003acc:	40022000 	.word	0x40022000
 8003ad0:	40021000 	.word	0x40021000
 8003ad4:	08007994 	.word	0x08007994
 8003ad8:	20000000 	.word	0x20000000
 8003adc:	20000004 	.word	0x20000004

08003ae0 <HAL_RCC_GetSysClockFreq>:
  *         right SYSCLK value. Otherwise, any configuration based on this function will be incorrect.
  *
  * @retval SYSCLK frequency
  */
uint32_t HAL_RCC_GetSysClockFreq(void)
{
 8003ae0:	b480      	push	{r7}
 8003ae2:	b087      	sub	sp, #28
 8003ae4:	af00      	add	r7, sp, #0
#else
  static const uint8_t aPredivFactorTable[2U] = {1, 2};
#endif /*RCC_CFGR2_PREDIV1*/

#endif
  uint32_t tmpreg = 0U, prediv = 0U, pllclk = 0U, pllmul = 0U;
 8003ae6:	2300      	movs	r3, #0
 8003ae8:	60fb      	str	r3, [r7, #12]
 8003aea:	2300      	movs	r3, #0
 8003aec:	60bb      	str	r3, [r7, #8]
 8003aee:	2300      	movs	r3, #0
 8003af0:	617b      	str	r3, [r7, #20]
 8003af2:	2300      	movs	r3, #0
 8003af4:	607b      	str	r3, [r7, #4]
  uint32_t sysclockfreq = 0U;
 8003af6:	2300      	movs	r3, #0
 8003af8:	613b      	str	r3, [r7, #16]
#if defined(RCC_CFGR2_PREDIV1SRC)
  uint32_t prediv2 = 0U, pll2mul = 0U;
#endif /*RCC_CFGR2_PREDIV1SRC*/

  tmpreg = RCC->CFGR;
 8003afa:	4b1e      	ldr	r3, [pc, #120]	@ (8003b74 <HAL_RCC_GetSysClockFreq+0x94>)
 8003afc:	685b      	ldr	r3, [r3, #4]
 8003afe:	60fb      	str	r3, [r7, #12]

  /* Get SYSCLK source -------------------------------------------------------*/
  switch (tmpreg & RCC_CFGR_SWS)
 8003b00:	68fb      	ldr	r3, [r7, #12]
 8003b02:	f003 030c 	and.w	r3, r3, #12
 8003b06:	2b04      	cmp	r3, #4
 8003b08:	d002      	beq.n	8003b10 <HAL_RCC_GetSysClockFreq+0x30>
 8003b0a:	2b08      	cmp	r3, #8
 8003b0c:	d003      	beq.n	8003b16 <HAL_RCC_GetSysClockFreq+0x36>
 8003b0e:	e027      	b.n	8003b60 <HAL_RCC_GetSysClockFreq+0x80>
  {
    case RCC_SYSCLKSOURCE_STATUS_HSE:  /* HSE used as system clock */
    {
      sysclockfreq = HSE_VALUE;
 8003b10:	4b19      	ldr	r3, [pc, #100]	@ (8003b78 <HAL_RCC_GetSysClockFreq+0x98>)
 8003b12:	613b      	str	r3, [r7, #16]
      break;
 8003b14:	e027      	b.n	8003b66 <HAL_RCC_GetSysClockFreq+0x86>
    }
    case RCC_SYSCLKSOURCE_STATUS_PLLCLK:  /* PLL used as system clock */
    {
      pllmul = aPLLMULFactorTable[(uint32_t)(tmpreg & RCC_CFGR_PLLMULL) >> RCC_CFGR_PLLMULL_Pos];
 8003b16:	68fb      	ldr	r3, [r7, #12]
 8003b18:	0c9b      	lsrs	r3, r3, #18
 8003b1a:	f003 030f 	and.w	r3, r3, #15
 8003b1e:	4a17      	ldr	r2, [pc, #92]	@ (8003b7c <HAL_RCC_GetSysClockFreq+0x9c>)
 8003b20:	5cd3      	ldrb	r3, [r2, r3]
 8003b22:	607b      	str	r3, [r7, #4]
      if ((tmpreg & RCC_CFGR_PLLSRC) != RCC_PLLSOURCE_HSI_DIV2)
 8003b24:	68fb      	ldr	r3, [r7, #12]
 8003b26:	f403 3380 	and.w	r3, r3, #65536	@ 0x10000
 8003b2a:	2b00      	cmp	r3, #0
 8003b2c:	d010      	beq.n	8003b50 <HAL_RCC_GetSysClockFreq+0x70>
      {
#if defined(RCC_CFGR2_PREDIV1)
        prediv = aPredivFactorTable[(uint32_t)(RCC->CFGR2 & RCC_CFGR2_PREDIV1) >> RCC_CFGR2_PREDIV1_Pos];
#else
        prediv = aPredivFactorTable[(uint32_t)(RCC->CFGR & RCC_CFGR_PLLXTPRE) >> RCC_CFGR_PLLXTPRE_Pos];
 8003b2e:	4b11      	ldr	r3, [pc, #68]	@ (8003b74 <HAL_RCC_GetSysClockFreq+0x94>)
 8003b30:	685b      	ldr	r3, [r3, #4]
 8003b32:	0c5b      	lsrs	r3, r3, #17
 8003b34:	f003 0301 	and.w	r3, r3, #1
 8003b38:	4a11      	ldr	r2, [pc, #68]	@ (8003b80 <HAL_RCC_GetSysClockFreq+0xa0>)
 8003b3a:	5cd3      	ldrb	r3, [r2, r3]
 8003b3c:	60bb      	str	r3, [r7, #8]
        {
          pllclk = pllclk / 2;
        }
#else
        /* HSE used as PLL clock source : PLLCLK = HSE/PREDIV1 * PLLMUL */
        pllclk = (uint32_t)((HSE_VALUE  * pllmul) / prediv);
 8003b3e:	687b      	ldr	r3, [r7, #4]
 8003b40:	4a0d      	ldr	r2, [pc, #52]	@ (8003b78 <HAL_RCC_GetSysClockFreq+0x98>)
 8003b42:	fb03 f202 	mul.w	r2, r3, r2
 8003b46:	68bb      	ldr	r3, [r7, #8]
 8003b48:	fbb2 f3f3 	udiv	r3, r2, r3
 8003b4c:	617b      	str	r3, [r7, #20]
 8003b4e:	e004      	b.n	8003b5a <HAL_RCC_GetSysClockFreq+0x7a>
#endif /*RCC_CFGR2_PREDIV1SRC*/
      }
      else
      {
        /* HSI used as PLL clock source : PLLCLK = HSI/2 * PLLMUL */
        pllclk = (uint32_t)((HSI_VALUE >> 1) * pllmul);
 8003b50:	687b      	ldr	r3, [r7, #4]
 8003b52:	4a0c      	ldr	r2, [pc, #48]	@ (8003b84 <HAL_RCC_GetSysClockFreq+0xa4>)
 8003b54:	fb02 f303 	mul.w	r3, r2, r3
 8003b58:	617b      	str	r3, [r7, #20]
      }
      sysclockfreq = pllclk;
 8003b5a:	697b      	ldr	r3, [r7, #20]
 8003b5c:	613b      	str	r3, [r7, #16]
      break;
 8003b5e:	e002      	b.n	8003b66 <HAL_RCC_GetSysClockFreq+0x86>
    }
    case RCC_SYSCLKSOURCE_STATUS_HSI:  /* HSI used as system clock source */
    default: /* HSI used as system clock */
    {
      sysclockfreq = HSI_VALUE;
 8003b60:	4b05      	ldr	r3, [pc, #20]	@ (8003b78 <HAL_RCC_GetSysClockFreq+0x98>)
 8003b62:	613b      	str	r3, [r7, #16]
      break;
 8003b64:	bf00      	nop
    }
  }
  return sysclockfreq;
 8003b66:	693b      	ldr	r3, [r7, #16]
}
 8003b68:	4618      	mov	r0, r3
 8003b6a:	371c      	adds	r7, #28
 8003b6c:	46bd      	mov	sp, r7
 8003b6e:	bc80      	pop	{r7}
 8003b70:	4770      	bx	lr
 8003b72:	bf00      	nop
 8003b74:	40021000 	.word	0x40021000
 8003b78:	007a1200 	.word	0x007a1200
 8003b7c:	080079ac 	.word	0x080079ac
 8003b80:	080079bc 	.word	0x080079bc
 8003b84:	003d0900 	.word	0x003d0900

08003b88 <HAL_RCC_GetHCLKFreq>:
  * @note   The SystemCoreClock CMSIS variable is used to store System Clock Frequency
  *         and updated within this function
  * @retval HCLK frequency
  */
uint32_t HAL_RCC_GetHCLKFreq(void)
{
 8003b88:	b480      	push	{r7}
 8003b8a:	af00      	add	r7, sp, #0
  return SystemCoreClock;
 8003b8c:	4b02      	ldr	r3, [pc, #8]	@ (8003b98 <HAL_RCC_GetHCLKFreq+0x10>)
 8003b8e:	681b      	ldr	r3, [r3, #0]
}
 8003b90:	4618      	mov	r0, r3
 8003b92:	46bd      	mov	sp, r7
 8003b94:	bc80      	pop	{r7}
 8003b96:	4770      	bx	lr
 8003b98:	20000000 	.word	0x20000000

08003b9c <HAL_RCC_GetPCLK1Freq>:
  * @note   Each time PCLK1 changes, this function must be called to update the
  *         right PCLK1 value. Otherwise, any configuration based on this function will be incorrect.
  * @retval PCLK1 frequency
  */
uint32_t HAL_RCC_GetPCLK1Freq(void)
{
 8003b9c:	b580      	push	{r7, lr}
 8003b9e:	af00      	add	r7, sp, #0
  /* Get HCLK source and Compute PCLK1 frequency ---------------------------*/
  return (HAL_RCC_GetHCLKFreq() >> APBPrescTable[(RCC->CFGR & RCC_CFGR_PPRE1) >> RCC_CFGR_PPRE1_Pos]);
 8003ba0:	f7ff fff2 	bl	8003b88 <HAL_RCC_GetHCLKFreq>
 8003ba4:	4602      	mov	r2, r0
 8003ba6:	4b05      	ldr	r3, [pc, #20]	@ (8003bbc <HAL_RCC_GetPCLK1Freq+0x20>)
 8003ba8:	685b      	ldr	r3, [r3, #4]
 8003baa:	0a1b      	lsrs	r3, r3, #8
 8003bac:	f003 0307 	and.w	r3, r3, #7
 8003bb0:	4903      	ldr	r1, [pc, #12]	@ (8003bc0 <HAL_RCC_GetPCLK1Freq+0x24>)
 8003bb2:	5ccb      	ldrb	r3, [r1, r3]
 8003bb4:	fa22 f303 	lsr.w	r3, r2, r3
}
 8003bb8:	4618      	mov	r0, r3
 8003bba:	bd80      	pop	{r7, pc}
 8003bbc:	40021000 	.word	0x40021000
 8003bc0:	080079a4 	.word	0x080079a4

08003bc4 <HAL_RCC_GetPCLK2Freq>:
  * @note   Each time PCLK2 changes, this function must be called to update the
  *         right PCLK2 value. Otherwise, any configuration based on this function will be incorrect.
  * @retval PCLK2 frequency
  */
uint32_t HAL_RCC_GetPCLK2Freq(void)
{
 8003bc4:	b580      	push	{r7, lr}
 8003bc6:	af00      	add	r7, sp, #0
  /* Get HCLK source and Compute PCLK2 frequency ---------------------------*/
  return (HAL_RCC_GetHCLKFreq() >> APBPrescTable[(RCC->CFGR & RCC_CFGR_PPRE2) >> RCC_CFGR_PPRE2_Pos]);
 8003bc8:	f7ff ffde 	bl	8003b88 <HAL_RCC_GetHCLKFreq>
 8003bcc:	4602      	mov	r2, r0
 8003bce:	4b05      	ldr	r3, [pc, #20]	@ (8003be4 <HAL_RCC_GetPCLK2Freq+0x20>)
 8003bd0:	685b      	ldr	r3, [r3, #4]
 8003bd2:	0adb      	lsrs	r3, r3, #11
 8003bd4:	f003 0307 	and.w	r3, r3, #7
 8003bd8:	4903      	ldr	r1, [pc, #12]	@ (8003be8 <HAL_RCC_GetPCLK2Freq+0x24>)
 8003bda:	5ccb      	ldrb	r3, [r1, r3]
 8003bdc:	fa22 f303 	lsr.w	r3, r2, r3
}
 8003be0:	4618      	mov	r0, r3
 8003be2:	bd80      	pop	{r7, pc}
 8003be4:	40021000 	.word	0x40021000
 8003be8:	080079a4 	.word	0x080079a4

08003bec <RCC_Delay>:
  * @brief  This function provides delay (in milliseconds) based on CPU cycles method.
  * @param  mdelay: specifies the delay time length, in milliseconds.
  * @retval None
  */
static void RCC_Delay(uint32_t mdelay)
{
 8003bec:	b480      	push	{r7}
 8003bee:	b085      	sub	sp, #20
 8003bf0:	af00      	add	r7, sp, #0
 8003bf2:	6078      	str	r0, [r7, #4]
  __IO uint32_t Delay = mdelay * (SystemCoreClock / 8U / 1000U);
 8003bf4:	4b0a      	ldr	r3, [pc, #40]	@ (8003c20 <RCC_Delay+0x34>)
 8003bf6:	681b      	ldr	r3, [r3, #0]
 8003bf8:	4a0a      	ldr	r2, [pc, #40]	@ (8003c24 <RCC_Delay+0x38>)
 8003bfa:	fba2 2303 	umull	r2, r3, r2, r3
 8003bfe:	0a5b      	lsrs	r3, r3, #9
 8003c00:	687a      	ldr	r2, [r7, #4]
 8003c02:	fb02 f303 	mul.w	r3, r2, r3
 8003c06:	60fb      	str	r3, [r7, #12]
  do
  {
    __NOP();
 8003c08:	bf00      	nop
  }
  while (Delay --);
 8003c0a:	68fb      	ldr	r3, [r7, #12]
 8003c0c:	1e5a      	subs	r2, r3, #1
 8003c0e:	60fa      	str	r2, [r7, #12]
 8003c10:	2b00      	cmp	r3, #0
 8003c12:	d1f9      	bne.n	8003c08 <RCC_Delay+0x1c>
}
 8003c14:	bf00      	nop
 8003c16:	bf00      	nop
 8003c18:	3714      	adds	r7, #20
 8003c1a:	46bd      	mov	sp, r7
 8003c1c:	bc80      	pop	{r7}
 8003c1e:	4770      	bx	lr
 8003c20:	20000000 	.word	0x20000000
 8003c24:	10624dd3 	.word	0x10624dd3

08003c28 <HAL_RCCEx_PeriphCLKConfig>:
  *         manually disable it.
  *
  * @retval HAL status
  */
HAL_StatusTypeDef HAL_RCCEx_PeriphCLKConfig(RCC_PeriphCLKInitTypeDef  *PeriphClkInit)
{
 8003c28:	b580      	push	{r7, lr}
 8003c2a:	b086      	sub	sp, #24
 8003c2c:	af00      	add	r7, sp, #0
 8003c2e:	6078      	str	r0, [r7, #4]
  uint32_t tickstart = 0U, temp_reg = 0U;
 8003c30:	2300      	movs	r3, #0
 8003c32:	613b      	str	r3, [r7, #16]
 8003c34:	2300      	movs	r3, #0
 8003c36:	60fb      	str	r3, [r7, #12]

  /* Check the parameters */
  assert_param(IS_RCC_PERIPHCLOCK(PeriphClkInit->PeriphClockSelection));

  /*------------------------------- RTC/LCD Configuration ------------------------*/
  if ((((PeriphClkInit->PeriphClockSelection) & RCC_PERIPHCLK_RTC) == RCC_PERIPHCLK_RTC))
 8003c38:	687b      	ldr	r3, [r7, #4]
 8003c3a:	681b      	ldr	r3, [r3, #0]
 8003c3c:	f003 0301 	and.w	r3, r3, #1
 8003c40:	2b00      	cmp	r3, #0
 8003c42:	d07d      	beq.n	8003d40 <HAL_RCCEx_PeriphCLKConfig+0x118>
  {
    FlagStatus pwrclkchanged = RESET;
 8003c44:	2300      	movs	r3, #0
 8003c46:	75fb      	strb	r3, [r7, #23]
    assert_param(IS_RCC_RTCCLKSOURCE(PeriphClkInit->RTCClockSelection));

    /* As soon as function is called to change RTC clock source, activation of the
       power domain is done. */
    /* Requires to enable write access to Backup Domain of necessary */
    if (__HAL_RCC_PWR_IS_CLK_DISABLED())
 8003c48:	4b4f      	ldr	r3, [pc, #316]	@ (8003d88 <HAL_RCCEx_PeriphCLKConfig+0x160>)
 8003c4a:	69db      	ldr	r3, [r3, #28]
 8003c4c:	f003 5380 	and.w	r3, r3, #268435456	@ 0x10000000
 8003c50:	2b00      	cmp	r3, #0
 8003c52:	d10d      	bne.n	8003c70 <HAL_RCCEx_PeriphCLKConfig+0x48>
    {
      __HAL_RCC_PWR_CLK_ENABLE();
 8003c54:	4b4c      	ldr	r3, [pc, #304]	@ (8003d88 <HAL_RCCEx_PeriphCLKConfig+0x160>)
 8003c56:	69db      	ldr	r3, [r3, #28]
 8003c58:	4a4b      	ldr	r2, [pc, #300]	@ (8003d88 <HAL_RCCEx_PeriphCLKConfig+0x160>)
 8003c5a:	f043 5380 	orr.w	r3, r3, #268435456	@ 0x10000000
 8003c5e:	61d3      	str	r3, [r2, #28]
 8003c60:	4b49      	ldr	r3, [pc, #292]	@ (8003d88 <HAL_RCCEx_PeriphCLKConfig+0x160>)
 8003c62:	69db      	ldr	r3, [r3, #28]
 8003c64:	f003 5380 	and.w	r3, r3, #268435456	@ 0x10000000
 8003c68:	60bb      	str	r3, [r7, #8]
 8003c6a:	68bb      	ldr	r3, [r7, #8]
      pwrclkchanged = SET;
 8003c6c:	2301      	movs	r3, #1
 8003c6e:	75fb      	strb	r3, [r7, #23]
    }

    if (HAL_IS_BIT_CLR(PWR->CR, PWR_CR_DBP))
 8003c70:	4b46      	ldr	r3, [pc, #280]	@ (8003d8c <HAL_RCCEx_PeriphCLKConfig+0x164>)
 8003c72:	681b      	ldr	r3, [r3, #0]
 8003c74:	f403 7380 	and.w	r3, r3, #256	@ 0x100
 8003c78:	2b00      	cmp	r3, #0
 8003c7a:	d118      	bne.n	8003cae <HAL_RCCEx_PeriphCLKConfig+0x86>
    {
      /* Enable write access to Backup domain */
      SET_BIT(PWR->CR, PWR_CR_DBP);
 8003c7c:	4b43      	ldr	r3, [pc, #268]	@ (8003d8c <HAL_RCCEx_PeriphCLKConfig+0x164>)
 8003c7e:	681b      	ldr	r3, [r3, #0]
 8003c80:	4a42      	ldr	r2, [pc, #264]	@ (8003d8c <HAL_RCCEx_PeriphCLKConfig+0x164>)
 8003c82:	f443 7380 	orr.w	r3, r3, #256	@ 0x100
 8003c86:	6013      	str	r3, [r2, #0]

      /* Wait for Backup domain Write protection disable */
      tickstart = HAL_GetTick();
 8003c88:	f7fe fa18 	bl	80020bc <HAL_GetTick>
 8003c8c:	6138      	str	r0, [r7, #16]

      while (HAL_IS_BIT_CLR(PWR->CR, PWR_CR_DBP))
 8003c8e:	e008      	b.n	8003ca2 <HAL_RCCEx_PeriphCLKConfig+0x7a>
      {
        if ((HAL_GetTick() - tickstart) > RCC_DBP_TIMEOUT_VALUE)
 8003c90:	f7fe fa14 	bl	80020bc <HAL_GetTick>
 8003c94:	4602      	mov	r2, r0
 8003c96:	693b      	ldr	r3, [r7, #16]
 8003c98:	1ad3      	subs	r3, r2, r3
 8003c9a:	2b64      	cmp	r3, #100	@ 0x64
 8003c9c:	d901      	bls.n	8003ca2 <HAL_RCCEx_PeriphCLKConfig+0x7a>
        {
          return HAL_TIMEOUT;
 8003c9e:	2303      	movs	r3, #3
 8003ca0:	e06d      	b.n	8003d7e <HAL_RCCEx_PeriphCLKConfig+0x156>
      while (HAL_IS_BIT_CLR(PWR->CR, PWR_CR_DBP))
 8003ca2:	4b3a      	ldr	r3, [pc, #232]	@ (8003d8c <HAL_RCCEx_PeriphCLKConfig+0x164>)
 8003ca4:	681b      	ldr	r3, [r3, #0]
 8003ca6:	f403 7380 	and.w	r3, r3, #256	@ 0x100
 8003caa:	2b00      	cmp	r3, #0
 8003cac:	d0f0      	beq.n	8003c90 <HAL_RCCEx_PeriphCLKConfig+0x68>
        }
      }
    }

    /* Reset the Backup domain only if the RTC Clock source selection is modified from reset value */
    temp_reg = (RCC->BDCR & RCC_BDCR_RTCSEL);
 8003cae:	4b36      	ldr	r3, [pc, #216]	@ (8003d88 <HAL_RCCEx_PeriphCLKConfig+0x160>)
 8003cb0:	6a1b      	ldr	r3, [r3, #32]
 8003cb2:	f403 7340 	and.w	r3, r3, #768	@ 0x300
 8003cb6:	60fb      	str	r3, [r7, #12]
    if ((temp_reg != 0x00000000U) && (temp_reg != (PeriphClkInit->RTCClockSelection & RCC_BDCR_RTCSEL)))
 8003cb8:	68fb      	ldr	r3, [r7, #12]
 8003cba:	2b00      	cmp	r3, #0
 8003cbc:	d02e      	beq.n	8003d1c <HAL_RCCEx_PeriphCLKConfig+0xf4>
 8003cbe:	687b      	ldr	r3, [r7, #4]
 8003cc0:	685b      	ldr	r3, [r3, #4]
 8003cc2:	f403 7340 	and.w	r3, r3, #768	@ 0x300
 8003cc6:	68fa      	ldr	r2, [r7, #12]
 8003cc8:	429a      	cmp	r2, r3
 8003cca:	d027      	beq.n	8003d1c <HAL_RCCEx_PeriphCLKConfig+0xf4>
    {
      /* Store the content of BDCR register before the reset of Backup Domain */
      temp_reg = (RCC->BDCR & ~(RCC_BDCR_RTCSEL));
 8003ccc:	4b2e      	ldr	r3, [pc, #184]	@ (8003d88 <HAL_RCCEx_PeriphCLKConfig+0x160>)
 8003cce:	6a1b      	ldr	r3, [r3, #32]
 8003cd0:	f423 7340 	bic.w	r3, r3, #768	@ 0x300
 8003cd4:	60fb      	str	r3, [r7, #12]
      /* RTC Clock selection can be changed only if the Backup Domain is reset */
      __HAL_RCC_BACKUPRESET_FORCE();
 8003cd6:	4b2e      	ldr	r3, [pc, #184]	@ (8003d90 <HAL_RCCEx_PeriphCLKConfig+0x168>)
 8003cd8:	2201      	movs	r2, #1
 8003cda:	601a      	str	r2, [r3, #0]
      __HAL_RCC_BACKUPRESET_RELEASE();
 8003cdc:	4b2c      	ldr	r3, [pc, #176]	@ (8003d90 <HAL_RCCEx_PeriphCLKConfig+0x168>)
 8003cde:	2200      	movs	r2, #0
 8003ce0:	601a      	str	r2, [r3, #0]
      /* Restore the Content of BDCR register */
      RCC->BDCR = temp_reg;
 8003ce2:	4a29      	ldr	r2, [pc, #164]	@ (8003d88 <HAL_RCCEx_PeriphCLKConfig+0x160>)
 8003ce4:	68fb      	ldr	r3, [r7, #12]
 8003ce6:	6213      	str	r3, [r2, #32]

      /* Wait for LSERDY if LSE was enabled */
      if (HAL_IS_BIT_SET(temp_reg, RCC_BDCR_LSEON))
 8003ce8:	68fb      	ldr	r3, [r7, #12]
 8003cea:	f003 0301 	and.w	r3, r3, #1
 8003cee:	2b00      	cmp	r3, #0
 8003cf0:	d014      	beq.n	8003d1c <HAL_RCCEx_PeriphCLKConfig+0xf4>
      {
        /* Get Start Tick */
        tickstart = HAL_GetTick();
 8003cf2:	f7fe f9e3 	bl	80020bc <HAL_GetTick>
 8003cf6:	6138      	str	r0, [r7, #16]

        /* Wait till LSE is ready */
        while (__HAL_RCC_GET_FLAG(RCC_FLAG_LSERDY) == RESET)
 8003cf8:	e00a      	b.n	8003d10 <HAL_RCCEx_PeriphCLKConfig+0xe8>
        {
          if ((HAL_GetTick() - tickstart) > RCC_LSE_TIMEOUT_VALUE)
 8003cfa:	f7fe f9df 	bl	80020bc <HAL_GetTick>
 8003cfe:	4602      	mov	r2, r0
 8003d00:	693b      	ldr	r3, [r7, #16]
 8003d02:	1ad3      	subs	r3, r2, r3
 8003d04:	f241 3288 	movw	r2, #5000	@ 0x1388
 8003d08:	4293      	cmp	r3, r2
 8003d0a:	d901      	bls.n	8003d10 <HAL_RCCEx_PeriphCLKConfig+0xe8>
          {
            return HAL_TIMEOUT;
 8003d0c:	2303      	movs	r3, #3
 8003d0e:	e036      	b.n	8003d7e <HAL_RCCEx_PeriphCLKConfig+0x156>
        while (__HAL_RCC_GET_FLAG(RCC_FLAG_LSERDY) == RESET)
 8003d10:	4b1d      	ldr	r3, [pc, #116]	@ (8003d88 <HAL_RCCEx_PeriphCLKConfig+0x160>)
 8003d12:	6a1b      	ldr	r3, [r3, #32]
 8003d14:	f003 0302 	and.w	r3, r3, #2
 8003d18:	2b00      	cmp	r3, #0
 8003d1a:	d0ee      	beq.n	8003cfa <HAL_RCCEx_PeriphCLKConfig+0xd2>
          }
        }
      }
    }
    __HAL_RCC_RTC_CONFIG(PeriphClkInit->RTCClockSelection);
 8003d1c:	4b1a      	ldr	r3, [pc, #104]	@ (8003d88 <HAL_RCCEx_PeriphCLKConfig+0x160>)
 8003d1e:	6a1b      	ldr	r3, [r3, #32]
 8003d20:	f423 7240 	bic.w	r2, r3, #768	@ 0x300
 8003d24:	687b      	ldr	r3, [r7, #4]
 8003d26:	685b      	ldr	r3, [r3, #4]
 8003d28:	4917      	ldr	r1, [pc, #92]	@ (8003d88 <HAL_RCCEx_PeriphCLKConfig+0x160>)
 8003d2a:	4313      	orrs	r3, r2
 8003d2c:	620b      	str	r3, [r1, #32]

    /* Require to disable power clock if necessary */
    if (pwrclkchanged == SET)
 8003d2e:	7dfb      	ldrb	r3, [r7, #23]
 8003d30:	2b01      	cmp	r3, #1
 8003d32:	d105      	bne.n	8003d40 <HAL_RCCEx_PeriphCLKConfig+0x118>
    {
      __HAL_RCC_PWR_CLK_DISABLE();
 8003d34:	4b14      	ldr	r3, [pc, #80]	@ (8003d88 <HAL_RCCEx_PeriphCLKConfig+0x160>)
 8003d36:	69db      	ldr	r3, [r3, #28]
 8003d38:	4a13      	ldr	r2, [pc, #76]	@ (8003d88 <HAL_RCCEx_PeriphCLKConfig+0x160>)
 8003d3a:	f023 5380 	bic.w	r3, r3, #268435456	@ 0x10000000
 8003d3e:	61d3      	str	r3, [r2, #28]
    }
  }

  /*------------------------------ ADC clock Configuration ------------------*/
  if (((PeriphClkInit->PeriphClockSelection) & RCC_PERIPHCLK_ADC) == RCC_PERIPHCLK_ADC)
 8003d40:	687b      	ldr	r3, [r7, #4]
 8003d42:	681b      	ldr	r3, [r3, #0]
 8003d44:	f003 0302 	and.w	r3, r3, #2
 8003d48:	2b00      	cmp	r3, #0
 8003d4a:	d008      	beq.n	8003d5e <HAL_RCCEx_PeriphCLKConfig+0x136>
  {
    /* Check the parameters */
    assert_param(IS_RCC_ADCPLLCLK_DIV(PeriphClkInit->AdcClockSelection));

    /* Configure the ADC clock source */
    __HAL_RCC_ADC_CONFIG(PeriphClkInit->AdcClockSelection);
 8003d4c:	4b0e      	ldr	r3, [pc, #56]	@ (8003d88 <HAL_RCCEx_PeriphCLKConfig+0x160>)
 8003d4e:	685b      	ldr	r3, [r3, #4]
 8003d50:	f423 4240 	bic.w	r2, r3, #49152	@ 0xc000
 8003d54:	687b      	ldr	r3, [r7, #4]
 8003d56:	689b      	ldr	r3, [r3, #8]
 8003d58:	490b      	ldr	r1, [pc, #44]	@ (8003d88 <HAL_RCCEx_PeriphCLKConfig+0x160>)
 8003d5a:	4313      	orrs	r3, r2
 8003d5c:	604b      	str	r3, [r1, #4]

#if defined(STM32F102x6) || defined(STM32F102xB) || defined(STM32F103x6)\
 || defined(STM32F103xB) || defined(STM32F103xE) || defined(STM32F103xG)\
 || defined(STM32F105xC) || defined(STM32F107xC)
  /*------------------------------ USB clock Configuration ------------------*/
  if (((PeriphClkInit->PeriphClockSelection) & RCC_PERIPHCLK_USB) == RCC_PERIPHCLK_USB)
 8003d5e:	687b      	ldr	r3, [r7, #4]
 8003d60:	681b      	ldr	r3, [r3, #0]
 8003d62:	f003 0310 	and.w	r3, r3, #16
 8003d66:	2b00      	cmp	r3, #0
 8003d68:	d008      	beq.n	8003d7c <HAL_RCCEx_PeriphCLKConfig+0x154>
  {
    /* Check the parameters */
    assert_param(IS_RCC_USBPLLCLK_DIV(PeriphClkInit->UsbClockSelection));

    /* Configure the USB clock source */
    __HAL_RCC_USB_CONFIG(PeriphClkInit->UsbClockSelection);
 8003d6a:	4b07      	ldr	r3, [pc, #28]	@ (8003d88 <HAL_RCCEx_PeriphCLKConfig+0x160>)
 8003d6c:	685b      	ldr	r3, [r3, #4]
 8003d6e:	f423 0280 	bic.w	r2, r3, #4194304	@ 0x400000
 8003d72:	687b      	ldr	r3, [r7, #4]
 8003d74:	68db      	ldr	r3, [r3, #12]
 8003d76:	4904      	ldr	r1, [pc, #16]	@ (8003d88 <HAL_RCCEx_PeriphCLKConfig+0x160>)
 8003d78:	4313      	orrs	r3, r2
 8003d7a:	604b      	str	r3, [r1, #4]
  }
#endif /* STM32F102x6 || STM32F102xB || STM32F103x6 || STM32F103xB || STM32F103xE || STM32F103xG || STM32F105xC || STM32F107xC */

  return HAL_OK;
 8003d7c:	2300      	movs	r3, #0
}
 8003d7e:	4618      	mov	r0, r3
 8003d80:	3718      	adds	r7, #24
 8003d82:	46bd      	mov	sp, r7
 8003d84:	bd80      	pop	{r7, pc}
 8003d86:	bf00      	nop
 8003d88:	40021000 	.word	0x40021000
 8003d8c:	40007000 	.word	0x40007000
 8003d90:	42420440 	.word	0x42420440

08003d94 <HAL_RCCEx_GetPeriphCLKFreq>:
  *            @arg @ref RCC_PERIPHCLK_USB  USB peripheral clock
  @endif
  * @retval Frequency in Hz (0: means that no available frequency for the peripheral)
  */
uint32_t HAL_RCCEx_GetPeriphCLKFreq(uint32_t PeriphClk)
{
 8003d94:	b580      	push	{r7, lr}
 8003d96:	b088      	sub	sp, #32
 8003d98:	af00      	add	r7, sp, #0
 8003d9a:	6078      	str	r0, [r7, #4]
#if defined(STM32F102x6) || defined(STM32F102xB) || defined(STM32F103x6) || \
    defined(STM32F103xB) || defined(STM32F103xE) || defined(STM32F103xG)
  static const uint8_t aPLLMULFactorTable[16U] = {2, 3, 4, 5, 6, 7, 8, 9, 10, 11, 12, 13, 14, 15, 16, 16};
  static const uint8_t aPredivFactorTable[2U] = {1, 2};

  uint32_t prediv1 = 0U, pllclk = 0U, pllmul = 0U;
 8003d9c:	2300      	movs	r3, #0
 8003d9e:	617b      	str	r3, [r7, #20]
 8003da0:	2300      	movs	r3, #0
 8003da2:	61fb      	str	r3, [r7, #28]
 8003da4:	2300      	movs	r3, #0
 8003da6:	613b      	str	r3, [r7, #16]
#endif /* STM32F102x6 || STM32F102xB || STM32F103x6 || STM32F103xB || STM32F103xE || STM32F103xG */
  uint32_t temp_reg = 0U, frequency = 0U;
 8003da8:	2300      	movs	r3, #0
 8003daa:	60fb      	str	r3, [r7, #12]
 8003dac:	2300      	movs	r3, #0
 8003dae:	61bb      	str	r3, [r7, #24]

  /* Check the parameters */
  assert_param(IS_RCC_PERIPHCLOCK(PeriphClk));

  switch (PeriphClk)
 8003db0:	687b      	ldr	r3, [r7, #4]
 8003db2:	2b10      	cmp	r3, #16
 8003db4:	d00a      	beq.n	8003dcc <HAL_RCCEx_GetPeriphCLKFreq+0x38>
 8003db6:	687b      	ldr	r3, [r7, #4]
 8003db8:	2b10      	cmp	r3, #16
 8003dba:	f200 808a 	bhi.w	8003ed2 <HAL_RCCEx_GetPeriphCLKFreq+0x13e>
 8003dbe:	687b      	ldr	r3, [r7, #4]
 8003dc0:	2b01      	cmp	r3, #1
 8003dc2:	d045      	beq.n	8003e50 <HAL_RCCEx_GetPeriphCLKFreq+0xbc>
 8003dc4:	687b      	ldr	r3, [r7, #4]
 8003dc6:	2b02      	cmp	r3, #2
 8003dc8:	d075      	beq.n	8003eb6 <HAL_RCCEx_GetPeriphCLKFreq+0x122>
      frequency = HAL_RCC_GetPCLK2Freq() / (((__HAL_RCC_GET_ADC_SOURCE() >> RCC_CFGR_ADCPRE_Pos) + 1) * 2);
      break;
    }
    default:
    {
      break;
 8003dca:	e082      	b.n	8003ed2 <HAL_RCCEx_GetPeriphCLKFreq+0x13e>
      temp_reg = RCC->CFGR;
 8003dcc:	4b46      	ldr	r3, [pc, #280]	@ (8003ee8 <HAL_RCCEx_GetPeriphCLKFreq+0x154>)
 8003dce:	685b      	ldr	r3, [r3, #4]
 8003dd0:	60fb      	str	r3, [r7, #12]
      if (HAL_IS_BIT_SET(RCC->CR, RCC_CR_PLLON))
 8003dd2:	4b45      	ldr	r3, [pc, #276]	@ (8003ee8 <HAL_RCCEx_GetPeriphCLKFreq+0x154>)
 8003dd4:	681b      	ldr	r3, [r3, #0]
 8003dd6:	f003 7380 	and.w	r3, r3, #16777216	@ 0x1000000
 8003dda:	2b00      	cmp	r3, #0
 8003ddc:	d07b      	beq.n	8003ed6 <HAL_RCCEx_GetPeriphCLKFreq+0x142>
        pllmul = aPLLMULFactorTable[(uint32_t)(temp_reg & RCC_CFGR_PLLMULL) >> RCC_CFGR_PLLMULL_Pos];
 8003dde:	68fb      	ldr	r3, [r7, #12]
 8003de0:	0c9b      	lsrs	r3, r3, #18
 8003de2:	f003 030f 	and.w	r3, r3, #15
 8003de6:	4a41      	ldr	r2, [pc, #260]	@ (8003eec <HAL_RCCEx_GetPeriphCLKFreq+0x158>)
 8003de8:	5cd3      	ldrb	r3, [r2, r3]
 8003dea:	613b      	str	r3, [r7, #16]
        if ((temp_reg & RCC_CFGR_PLLSRC) != RCC_PLLSOURCE_HSI_DIV2)
 8003dec:	68fb      	ldr	r3, [r7, #12]
 8003dee:	f403 3380 	and.w	r3, r3, #65536	@ 0x10000
 8003df2:	2b00      	cmp	r3, #0
 8003df4:	d015      	beq.n	8003e22 <HAL_RCCEx_GetPeriphCLKFreq+0x8e>
          prediv1 = aPredivFactorTable[(uint32_t)(RCC->CFGR & RCC_CFGR_PLLXTPRE) >> RCC_CFGR_PLLXTPRE_Pos];
 8003df6:	4b3c      	ldr	r3, [pc, #240]	@ (8003ee8 <HAL_RCCEx_GetPeriphCLKFreq+0x154>)
 8003df8:	685b      	ldr	r3, [r3, #4]
 8003dfa:	0c5b      	lsrs	r3, r3, #17
 8003dfc:	f003 0301 	and.w	r3, r3, #1
 8003e00:	4a3b      	ldr	r2, [pc, #236]	@ (8003ef0 <HAL_RCCEx_GetPeriphCLKFreq+0x15c>)
 8003e02:	5cd3      	ldrb	r3, [r2, r3]
 8003e04:	617b      	str	r3, [r7, #20]
          if ((temp_reg & RCC_CFGR_PLLSRC) != RCC_PLLSOURCE_HSI_DIV2)
 8003e06:	68fb      	ldr	r3, [r7, #12]
 8003e08:	f403 3380 	and.w	r3, r3, #65536	@ 0x10000
 8003e0c:	2b00      	cmp	r3, #0
 8003e0e:	d00d      	beq.n	8003e2c <HAL_RCCEx_GetPeriphCLKFreq+0x98>
            pllclk = (uint32_t)((HSE_VALUE / prediv1) * pllmul);
 8003e10:	4a38      	ldr	r2, [pc, #224]	@ (8003ef4 <HAL_RCCEx_GetPeriphCLKFreq+0x160>)
 8003e12:	697b      	ldr	r3, [r7, #20]
 8003e14:	fbb2 f2f3 	udiv	r2, r2, r3
 8003e18:	693b      	ldr	r3, [r7, #16]
 8003e1a:	fb02 f303 	mul.w	r3, r2, r3
 8003e1e:	61fb      	str	r3, [r7, #28]
 8003e20:	e004      	b.n	8003e2c <HAL_RCCEx_GetPeriphCLKFreq+0x98>
          pllclk = (uint32_t)((HSI_VALUE >> 1) * pllmul);
 8003e22:	693b      	ldr	r3, [r7, #16]
 8003e24:	4a34      	ldr	r2, [pc, #208]	@ (8003ef8 <HAL_RCCEx_GetPeriphCLKFreq+0x164>)
 8003e26:	fb02 f303 	mul.w	r3, r2, r3
 8003e2a:	61fb      	str	r3, [r7, #28]
        if (__HAL_RCC_GET_USB_SOURCE() == RCC_USBCLKSOURCE_PLL)
 8003e2c:	4b2e      	ldr	r3, [pc, #184]	@ (8003ee8 <HAL_RCCEx_GetPeriphCLKFreq+0x154>)
 8003e2e:	685b      	ldr	r3, [r3, #4]
 8003e30:	f403 0380 	and.w	r3, r3, #4194304	@ 0x400000
 8003e34:	f5b3 0f80 	cmp.w	r3, #4194304	@ 0x400000
 8003e38:	d102      	bne.n	8003e40 <HAL_RCCEx_GetPeriphCLKFreq+0xac>
          frequency = pllclk;
 8003e3a:	69fb      	ldr	r3, [r7, #28]
 8003e3c:	61bb      	str	r3, [r7, #24]
      break;
 8003e3e:	e04a      	b.n	8003ed6 <HAL_RCCEx_GetPeriphCLKFreq+0x142>
          frequency = (pllclk * 2) / 3;
 8003e40:	69fb      	ldr	r3, [r7, #28]
 8003e42:	005b      	lsls	r3, r3, #1
 8003e44:	4a2d      	ldr	r2, [pc, #180]	@ (8003efc <HAL_RCCEx_GetPeriphCLKFreq+0x168>)
 8003e46:	fba2 2303 	umull	r2, r3, r2, r3
 8003e4a:	085b      	lsrs	r3, r3, #1
 8003e4c:	61bb      	str	r3, [r7, #24]
      break;
 8003e4e:	e042      	b.n	8003ed6 <HAL_RCCEx_GetPeriphCLKFreq+0x142>
      temp_reg = RCC->BDCR;
 8003e50:	4b25      	ldr	r3, [pc, #148]	@ (8003ee8 <HAL_RCCEx_GetPeriphCLKFreq+0x154>)
 8003e52:	6a1b      	ldr	r3, [r3, #32]
 8003e54:	60fb      	str	r3, [r7, #12]
      if (((temp_reg & RCC_BDCR_RTCSEL) == RCC_RTCCLKSOURCE_LSE) && (HAL_IS_BIT_SET(temp_reg, RCC_BDCR_LSERDY)))
 8003e56:	68fb      	ldr	r3, [r7, #12]
 8003e58:	f403 7340 	and.w	r3, r3, #768	@ 0x300
 8003e5c:	f5b3 7f80 	cmp.w	r3, #256	@ 0x100
 8003e60:	d108      	bne.n	8003e74 <HAL_RCCEx_GetPeriphCLKFreq+0xe0>
 8003e62:	68fb      	ldr	r3, [r7, #12]
 8003e64:	f003 0302 	and.w	r3, r3, #2
 8003e68:	2b00      	cmp	r3, #0
 8003e6a:	d003      	beq.n	8003e74 <HAL_RCCEx_GetPeriphCLKFreq+0xe0>
        frequency = LSE_VALUE;
 8003e6c:	f44f 4300 	mov.w	r3, #32768	@ 0x8000
 8003e70:	61bb      	str	r3, [r7, #24]
 8003e72:	e01f      	b.n	8003eb4 <HAL_RCCEx_GetPeriphCLKFreq+0x120>
      else if (((temp_reg & RCC_BDCR_RTCSEL) == RCC_RTCCLKSOURCE_LSI) && (HAL_IS_BIT_SET(RCC->CSR, RCC_CSR_LSIRDY)))
 8003e74:	68fb      	ldr	r3, [r7, #12]
 8003e76:	f403 7340 	and.w	r3, r3, #768	@ 0x300
 8003e7a:	f5b3 7f00 	cmp.w	r3, #512	@ 0x200
 8003e7e:	d109      	bne.n	8003e94 <HAL_RCCEx_GetPeriphCLKFreq+0x100>
 8003e80:	4b19      	ldr	r3, [pc, #100]	@ (8003ee8 <HAL_RCCEx_GetPeriphCLKFreq+0x154>)
 8003e82:	6a5b      	ldr	r3, [r3, #36]	@ 0x24
 8003e84:	f003 0302 	and.w	r3, r3, #2
 8003e88:	2b00      	cmp	r3, #0
 8003e8a:	d003      	beq.n	8003e94 <HAL_RCCEx_GetPeriphCLKFreq+0x100>
        frequency = LSI_VALUE;
 8003e8c:	f649 4340 	movw	r3, #40000	@ 0x9c40
 8003e90:	61bb      	str	r3, [r7, #24]
 8003e92:	e00f      	b.n	8003eb4 <HAL_RCCEx_GetPeriphCLKFreq+0x120>
      else if (((temp_reg & RCC_BDCR_RTCSEL) == RCC_RTCCLKSOURCE_HSE_DIV128) && (HAL_IS_BIT_SET(RCC->CR, RCC_CR_HSERDY)))
 8003e94:	68fb      	ldr	r3, [r7, #12]
 8003e96:	f403 7340 	and.w	r3, r3, #768	@ 0x300
 8003e9a:	f5b3 7f40 	cmp.w	r3, #768	@ 0x300
 8003e9e:	d11c      	bne.n	8003eda <HAL_RCCEx_GetPeriphCLKFreq+0x146>
 8003ea0:	4b11      	ldr	r3, [pc, #68]	@ (8003ee8 <HAL_RCCEx_GetPeriphCLKFreq+0x154>)
 8003ea2:	681b      	ldr	r3, [r3, #0]
 8003ea4:	f403 3300 	and.w	r3, r3, #131072	@ 0x20000
 8003ea8:	2b00      	cmp	r3, #0
 8003eaa:	d016      	beq.n	8003eda <HAL_RCCEx_GetPeriphCLKFreq+0x146>
        frequency = HSE_VALUE / 128U;
 8003eac:	f24f 4324 	movw	r3, #62500	@ 0xf424
 8003eb0:	61bb      	str	r3, [r7, #24]
      break;
 8003eb2:	e012      	b.n	8003eda <HAL_RCCEx_GetPeriphCLKFreq+0x146>
 8003eb4:	e011      	b.n	8003eda <HAL_RCCEx_GetPeriphCLKFreq+0x146>
      frequency = HAL_RCC_GetPCLK2Freq() / (((__HAL_RCC_GET_ADC_SOURCE() >> RCC_CFGR_ADCPRE_Pos) + 1) * 2);
 8003eb6:	f7ff fe85 	bl	8003bc4 <HAL_RCC_GetPCLK2Freq>
 8003eba:	4602      	mov	r2, r0
 8003ebc:	4b0a      	ldr	r3, [pc, #40]	@ (8003ee8 <HAL_RCCEx_GetPeriphCLKFreq+0x154>)
 8003ebe:	685b      	ldr	r3, [r3, #4]
 8003ec0:	0b9b      	lsrs	r3, r3, #14
 8003ec2:	f003 0303 	and.w	r3, r3, #3
 8003ec6:	3301      	adds	r3, #1
 8003ec8:	005b      	lsls	r3, r3, #1
 8003eca:	fbb2 f3f3 	udiv	r3, r2, r3
 8003ece:	61bb      	str	r3, [r7, #24]
      break;
 8003ed0:	e004      	b.n	8003edc <HAL_RCCEx_GetPeriphCLKFreq+0x148>
      break;
 8003ed2:	bf00      	nop
 8003ed4:	e002      	b.n	8003edc <HAL_RCCEx_GetPeriphCLKFreq+0x148>
      break;
 8003ed6:	bf00      	nop
 8003ed8:	e000      	b.n	8003edc <HAL_RCCEx_GetPeriphCLKFreq+0x148>
      break;
 8003eda:	bf00      	nop
    }
  }
  return (frequency);
 8003edc:	69bb      	ldr	r3, [r7, #24]
}
 8003ede:	4618      	mov	r0, r3
 8003ee0:	3720      	adds	r7, #32
 8003ee2:	46bd      	mov	sp, r7
 8003ee4:	bd80      	pop	{r7, pc}
 8003ee6:	bf00      	nop
 8003ee8:	40021000 	.word	0x40021000
 8003eec:	080079c0 	.word	0x080079c0
 8003ef0:	080079d0 	.word	0x080079d0
 8003ef4:	007a1200 	.word	0x007a1200
 8003ef8:	003d0900 	.word	0x003d0900
 8003efc:	aaaaaaab 	.word	0xaaaaaaab

08003f00 <HAL_UART_Init>:
  * @param  huart  Pointer to a UART_HandleTypeDef structure that contains
  *                the configuration information for the specified UART module.
  * @retval HAL status
  */
HAL_StatusTypeDef HAL_UART_Init(UART_HandleTypeDef *huart)
{
 8003f00:	b580      	push	{r7, lr}
 8003f02:	b082      	sub	sp, #8
 8003f04:	af00      	add	r7, sp, #0
 8003f06:	6078      	str	r0, [r7, #4]
  /* Check the UART handle allocation */
  if (huart == NULL)
 8003f08:	687b      	ldr	r3, [r7, #4]
 8003f0a:	2b00      	cmp	r3, #0
 8003f0c:	d101      	bne.n	8003f12 <HAL_UART_Init+0x12>
  {
    return HAL_ERROR;
 8003f0e:	2301      	movs	r3, #1
 8003f10:	e042      	b.n	8003f98 <HAL_UART_Init+0x98>
  assert_param(IS_UART_WORD_LENGTH(huart->Init.WordLength));
#if defined(USART_CR1_OVER8)
  assert_param(IS_UART_OVERSAMPLING(huart->Init.OverSampling));
#endif /* USART_CR1_OVER8 */

  if (huart->gState == HAL_UART_STATE_RESET)
 8003f12:	687b      	ldr	r3, [r7, #4]
 8003f14:	f893 3041 	ldrb.w	r3, [r3, #65]	@ 0x41
 8003f18:	b2db      	uxtb	r3, r3
 8003f1a:	2b00      	cmp	r3, #0
 8003f1c:	d106      	bne.n	8003f2c <HAL_UART_Init+0x2c>
  {
    /* Allocate lock resource and initialize it */
    huart->Lock = HAL_UNLOCKED;
 8003f1e:	687b      	ldr	r3, [r7, #4]
 8003f20:	2200      	movs	r2, #0
 8003f22:	f883 2040 	strb.w	r2, [r3, #64]	@ 0x40

    /* Init the low level hardware */
    huart->MspInitCallback(huart);
#else
    /* Init the low level hardware : GPIO, CLOCK */
    HAL_UART_MspInit(huart);
 8003f26:	6878      	ldr	r0, [r7, #4]
 8003f28:	f7fd fea4 	bl	8001c74 <HAL_UART_MspInit>
#endif /* (USE_HAL_UART_REGISTER_CALLBACKS) */
  }

  huart->gState = HAL_UART_STATE_BUSY;
 8003f2c:	687b      	ldr	r3, [r7, #4]
 8003f2e:	2224      	movs	r2, #36	@ 0x24
 8003f30:	f883 2041 	strb.w	r2, [r3, #65]	@ 0x41

  /* Disable the peripheral */
  __HAL_UART_DISABLE(huart);
 8003f34:	687b      	ldr	r3, [r7, #4]
 8003f36:	681b      	ldr	r3, [r3, #0]
 8003f38:	68da      	ldr	r2, [r3, #12]
 8003f3a:	687b      	ldr	r3, [r7, #4]
 8003f3c:	681b      	ldr	r3, [r3, #0]
 8003f3e:	f422 5200 	bic.w	r2, r2, #8192	@ 0x2000
 8003f42:	60da      	str	r2, [r3, #12]

  /* Set the UART Communication parameters */
  UART_SetConfig(huart);
 8003f44:	6878      	ldr	r0, [r7, #4]
 8003f46:	f000 fdb7 	bl	8004ab8 <UART_SetConfig>

  /* In asynchronous mode, the following bits must be kept cleared:
     - LINEN and CLKEN bits in the USART_CR2 register,
     - SCEN, HDSEL and IREN  bits in the USART_CR3 register.*/
  CLEAR_BIT(huart->Instance->CR2, (USART_CR2_LINEN | USART_CR2_CLKEN));
 8003f4a:	687b      	ldr	r3, [r7, #4]
 8003f4c:	681b      	ldr	r3, [r3, #0]
 8003f4e:	691a      	ldr	r2, [r3, #16]
 8003f50:	687b      	ldr	r3, [r7, #4]
 8003f52:	681b      	ldr	r3, [r3, #0]
 8003f54:	f422 4290 	bic.w	r2, r2, #18432	@ 0x4800
 8003f58:	611a      	str	r2, [r3, #16]
  CLEAR_BIT(huart->Instance->CR3, (USART_CR3_SCEN | USART_CR3_HDSEL | USART_CR3_IREN));
 8003f5a:	687b      	ldr	r3, [r7, #4]
 8003f5c:	681b      	ldr	r3, [r3, #0]
 8003f5e:	695a      	ldr	r2, [r3, #20]
 8003f60:	687b      	ldr	r3, [r7, #4]
 8003f62:	681b      	ldr	r3, [r3, #0]
 8003f64:	f022 022a 	bic.w	r2, r2, #42	@ 0x2a
 8003f68:	615a      	str	r2, [r3, #20]

  /* Enable the peripheral */
  __HAL_UART_ENABLE(huart);
 8003f6a:	687b      	ldr	r3, [r7, #4]
 8003f6c:	681b      	ldr	r3, [r3, #0]
 8003f6e:	68da      	ldr	r2, [r3, #12]
 8003f70:	687b      	ldr	r3, [r7, #4]
 8003f72:	681b      	ldr	r3, [r3, #0]
 8003f74:	f442 5200 	orr.w	r2, r2, #8192	@ 0x2000
 8003f78:	60da      	str	r2, [r3, #12]

  /* Initialize the UART state */
  huart->ErrorCode = HAL_UART_ERROR_NONE;
 8003f7a:	687b      	ldr	r3, [r7, #4]
 8003f7c:	2200      	movs	r2, #0
 8003f7e:	645a      	str	r2, [r3, #68]	@ 0x44
  huart->gState = HAL_UART_STATE_READY;
 8003f80:	687b      	ldr	r3, [r7, #4]
 8003f82:	2220      	movs	r2, #32
 8003f84:	f883 2041 	strb.w	r2, [r3, #65]	@ 0x41
  huart->RxState = HAL_UART_STATE_READY;
 8003f88:	687b      	ldr	r3, [r7, #4]
 8003f8a:	2220      	movs	r2, #32
 8003f8c:	f883 2042 	strb.w	r2, [r3, #66]	@ 0x42
  huart->RxEventType = HAL_UART_RXEVENT_TC;
 8003f90:	687b      	ldr	r3, [r7, #4]
 8003f92:	2200      	movs	r2, #0
 8003f94:	635a      	str	r2, [r3, #52]	@ 0x34

  return HAL_OK;
 8003f96:	2300      	movs	r3, #0
}
 8003f98:	4618      	mov	r0, r3
 8003f9a:	3708      	adds	r7, #8
 8003f9c:	46bd      	mov	sp, r7
 8003f9e:	bd80      	pop	{r7, pc}

08003fa0 <HAL_UART_Transmit>:
  * @param  Size  Amount of data elements (u8 or u16) to be sent
  * @param  Timeout Timeout duration
  * @retval HAL status
  */
HAL_StatusTypeDef HAL_UART_Transmit(UART_HandleTypeDef *huart, const uint8_t *pData, uint16_t Size, uint32_t Timeout)
{
 8003fa0:	b580      	push	{r7, lr}
 8003fa2:	b08a      	sub	sp, #40	@ 0x28
 8003fa4:	af02      	add	r7, sp, #8
 8003fa6:	60f8      	str	r0, [r7, #12]
 8003fa8:	60b9      	str	r1, [r7, #8]
 8003faa:	603b      	str	r3, [r7, #0]
 8003fac:	4613      	mov	r3, r2
 8003fae:	80fb      	strh	r3, [r7, #6]
  const uint8_t  *pdata8bits;
  const uint16_t *pdata16bits;
  uint32_t tickstart = 0U;
 8003fb0:	2300      	movs	r3, #0
 8003fb2:	617b      	str	r3, [r7, #20]

  /* Check that a Tx process is not already ongoing */
  if (huart->gState == HAL_UART_STATE_READY)
 8003fb4:	68fb      	ldr	r3, [r7, #12]
 8003fb6:	f893 3041 	ldrb.w	r3, [r3, #65]	@ 0x41
 8003fba:	b2db      	uxtb	r3, r3
 8003fbc:	2b20      	cmp	r3, #32
 8003fbe:	d175      	bne.n	80040ac <HAL_UART_Transmit+0x10c>
  {
    if ((pData == NULL) || (Size == 0U))
 8003fc0:	68bb      	ldr	r3, [r7, #8]
 8003fc2:	2b00      	cmp	r3, #0
 8003fc4:	d002      	beq.n	8003fcc <HAL_UART_Transmit+0x2c>
 8003fc6:	88fb      	ldrh	r3, [r7, #6]
 8003fc8:	2b00      	cmp	r3, #0
 8003fca:	d101      	bne.n	8003fd0 <HAL_UART_Transmit+0x30>
    {
      return  HAL_ERROR;
 8003fcc:	2301      	movs	r3, #1
 8003fce:	e06e      	b.n	80040ae <HAL_UART_Transmit+0x10e>
    }

    huart->ErrorCode = HAL_UART_ERROR_NONE;
 8003fd0:	68fb      	ldr	r3, [r7, #12]
 8003fd2:	2200      	movs	r2, #0
 8003fd4:	645a      	str	r2, [r3, #68]	@ 0x44
    huart->gState = HAL_UART_STATE_BUSY_TX;
 8003fd6:	68fb      	ldr	r3, [r7, #12]
 8003fd8:	2221      	movs	r2, #33	@ 0x21
 8003fda:	f883 2041 	strb.w	r2, [r3, #65]	@ 0x41

    /* Init tickstart for timeout management */
    tickstart = HAL_GetTick();
 8003fde:	f7fe f86d 	bl	80020bc <HAL_GetTick>
 8003fe2:	6178      	str	r0, [r7, #20]

    huart->TxXferSize = Size;
 8003fe4:	68fb      	ldr	r3, [r7, #12]
 8003fe6:	88fa      	ldrh	r2, [r7, #6]
 8003fe8:	849a      	strh	r2, [r3, #36]	@ 0x24
    huart->TxXferCount = Size;
 8003fea:	68fb      	ldr	r3, [r7, #12]
 8003fec:	88fa      	ldrh	r2, [r7, #6]
 8003fee:	84da      	strh	r2, [r3, #38]	@ 0x26

    /* In case of 9bits/No Parity transfer, pData needs to be handled as a uint16_t pointer */
    if ((huart->Init.WordLength == UART_WORDLENGTH_9B) && (huart->Init.Parity == UART_PARITY_NONE))
 8003ff0:	68fb      	ldr	r3, [r7, #12]
 8003ff2:	689b      	ldr	r3, [r3, #8]
 8003ff4:	f5b3 5f80 	cmp.w	r3, #4096	@ 0x1000
 8003ff8:	d108      	bne.n	800400c <HAL_UART_Transmit+0x6c>
 8003ffa:	68fb      	ldr	r3, [r7, #12]
 8003ffc:	691b      	ldr	r3, [r3, #16]
 8003ffe:	2b00      	cmp	r3, #0
 8004000:	d104      	bne.n	800400c <HAL_UART_Transmit+0x6c>
    {
      pdata8bits  = NULL;
 8004002:	2300      	movs	r3, #0
 8004004:	61fb      	str	r3, [r7, #28]
      pdata16bits = (const uint16_t *) pData;
 8004006:	68bb      	ldr	r3, [r7, #8]
 8004008:	61bb      	str	r3, [r7, #24]
 800400a:	e003      	b.n	8004014 <HAL_UART_Transmit+0x74>
    }
    else
    {
      pdata8bits  = pData;
 800400c:	68bb      	ldr	r3, [r7, #8]
 800400e:	61fb      	str	r3, [r7, #28]
      pdata16bits = NULL;
 8004010:	2300      	movs	r3, #0
 8004012:	61bb      	str	r3, [r7, #24]
    }

    while (huart->TxXferCount > 0U)
 8004014:	e02e      	b.n	8004074 <HAL_UART_Transmit+0xd4>
    {
      if (UART_WaitOnFlagUntilTimeout(huart, UART_FLAG_TXE, RESET, tickstart, Timeout) != HAL_OK)
 8004016:	683b      	ldr	r3, [r7, #0]
 8004018:	9300      	str	r3, [sp, #0]
 800401a:	697b      	ldr	r3, [r7, #20]
 800401c:	2200      	movs	r2, #0
 800401e:	2180      	movs	r1, #128	@ 0x80
 8004020:	68f8      	ldr	r0, [r7, #12]
 8004022:	f000 fb1c 	bl	800465e <UART_WaitOnFlagUntilTimeout>
 8004026:	4603      	mov	r3, r0
 8004028:	2b00      	cmp	r3, #0
 800402a:	d005      	beq.n	8004038 <HAL_UART_Transmit+0x98>
      {
        huart->gState = HAL_UART_STATE_READY;
 800402c:	68fb      	ldr	r3, [r7, #12]
 800402e:	2220      	movs	r2, #32
 8004030:	f883 2041 	strb.w	r2, [r3, #65]	@ 0x41

        return HAL_TIMEOUT;
 8004034:	2303      	movs	r3, #3
 8004036:	e03a      	b.n	80040ae <HAL_UART_Transmit+0x10e>
      }
      if (pdata8bits == NULL)
 8004038:	69fb      	ldr	r3, [r7, #28]
 800403a:	2b00      	cmp	r3, #0
 800403c:	d10b      	bne.n	8004056 <HAL_UART_Transmit+0xb6>
      {
        huart->Instance->DR = (uint16_t)(*pdata16bits & 0x01FFU);
 800403e:	69bb      	ldr	r3, [r7, #24]
 8004040:	881b      	ldrh	r3, [r3, #0]
 8004042:	461a      	mov	r2, r3
 8004044:	68fb      	ldr	r3, [r7, #12]
 8004046:	681b      	ldr	r3, [r3, #0]
 8004048:	f3c2 0208 	ubfx	r2, r2, #0, #9
 800404c:	605a      	str	r2, [r3, #4]
        pdata16bits++;
 800404e:	69bb      	ldr	r3, [r7, #24]
 8004050:	3302      	adds	r3, #2
 8004052:	61bb      	str	r3, [r7, #24]
 8004054:	e007      	b.n	8004066 <HAL_UART_Transmit+0xc6>
      }
      else
      {
        huart->Instance->DR = (uint8_t)(*pdata8bits & 0xFFU);
 8004056:	69fb      	ldr	r3, [r7, #28]
 8004058:	781a      	ldrb	r2, [r3, #0]
 800405a:	68fb      	ldr	r3, [r7, #12]
 800405c:	681b      	ldr	r3, [r3, #0]
 800405e:	605a      	str	r2, [r3, #4]
        pdata8bits++;
 8004060:	69fb      	ldr	r3, [r7, #28]
 8004062:	3301      	adds	r3, #1
 8004064:	61fb      	str	r3, [r7, #28]
      }
      huart->TxXferCount--;
 8004066:	68fb      	ldr	r3, [r7, #12]
 8004068:	8cdb      	ldrh	r3, [r3, #38]	@ 0x26
 800406a:	b29b      	uxth	r3, r3
 800406c:	3b01      	subs	r3, #1
 800406e:	b29a      	uxth	r2, r3
 8004070:	68fb      	ldr	r3, [r7, #12]
 8004072:	84da      	strh	r2, [r3, #38]	@ 0x26
    while (huart->TxXferCount > 0U)
 8004074:	68fb      	ldr	r3, [r7, #12]
 8004076:	8cdb      	ldrh	r3, [r3, #38]	@ 0x26
 8004078:	b29b      	uxth	r3, r3
 800407a:	2b00      	cmp	r3, #0
 800407c:	d1cb      	bne.n	8004016 <HAL_UART_Transmit+0x76>
    }

    if (UART_WaitOnFlagUntilTimeout(huart, UART_FLAG_TC, RESET, tickstart, Timeout) != HAL_OK)
 800407e:	683b      	ldr	r3, [r7, #0]
 8004080:	9300      	str	r3, [sp, #0]
 8004082:	697b      	ldr	r3, [r7, #20]
 8004084:	2200      	movs	r2, #0
 8004086:	2140      	movs	r1, #64	@ 0x40
 8004088:	68f8      	ldr	r0, [r7, #12]
 800408a:	f000 fae8 	bl	800465e <UART_WaitOnFlagUntilTimeout>
 800408e:	4603      	mov	r3, r0
 8004090:	2b00      	cmp	r3, #0
 8004092:	d005      	beq.n	80040a0 <HAL_UART_Transmit+0x100>
    {
      huart->gState = HAL_UART_STATE_READY;
 8004094:	68fb      	ldr	r3, [r7, #12]
 8004096:	2220      	movs	r2, #32
 8004098:	f883 2041 	strb.w	r2, [r3, #65]	@ 0x41

      return HAL_TIMEOUT;
 800409c:	2303      	movs	r3, #3
 800409e:	e006      	b.n	80040ae <HAL_UART_Transmit+0x10e>
    }

    /* At end of Tx process, restore huart->gState to Ready */
    huart->gState = HAL_UART_STATE_READY;
 80040a0:	68fb      	ldr	r3, [r7, #12]
 80040a2:	2220      	movs	r2, #32
 80040a4:	f883 2041 	strb.w	r2, [r3, #65]	@ 0x41

    return HAL_OK;
 80040a8:	2300      	movs	r3, #0
 80040aa:	e000      	b.n	80040ae <HAL_UART_Transmit+0x10e>
  }
  else
  {
    return HAL_BUSY;
 80040ac:	2302      	movs	r3, #2
  }
}
 80040ae:	4618      	mov	r0, r3
 80040b0:	3720      	adds	r7, #32
 80040b2:	46bd      	mov	sp, r7
 80040b4:	bd80      	pop	{r7, pc}

080040b6 <HAL_UART_Receive_IT>:
  * @param  pData Pointer to data buffer (u8 or u16 data elements).
  * @param  Size  Amount of data elements (u8 or u16) to be received.
  * @retval HAL status
  */
HAL_StatusTypeDef HAL_UART_Receive_IT(UART_HandleTypeDef *huart, uint8_t *pData, uint16_t Size)
{
 80040b6:	b580      	push	{r7, lr}
 80040b8:	b084      	sub	sp, #16
 80040ba:	af00      	add	r7, sp, #0
 80040bc:	60f8      	str	r0, [r7, #12]
 80040be:	60b9      	str	r1, [r7, #8]
 80040c0:	4613      	mov	r3, r2
 80040c2:	80fb      	strh	r3, [r7, #6]
  /* Check that a Rx process is not already ongoing */
  if (huart->RxState == HAL_UART_STATE_READY)
 80040c4:	68fb      	ldr	r3, [r7, #12]
 80040c6:	f893 3042 	ldrb.w	r3, [r3, #66]	@ 0x42
 80040ca:	b2db      	uxtb	r3, r3
 80040cc:	2b20      	cmp	r3, #32
 80040ce:	d112      	bne.n	80040f6 <HAL_UART_Receive_IT+0x40>
  {
    if ((pData == NULL) || (Size == 0U))
 80040d0:	68bb      	ldr	r3, [r7, #8]
 80040d2:	2b00      	cmp	r3, #0
 80040d4:	d002      	beq.n	80040dc <HAL_UART_Receive_IT+0x26>
 80040d6:	88fb      	ldrh	r3, [r7, #6]
 80040d8:	2b00      	cmp	r3, #0
 80040da:	d101      	bne.n	80040e0 <HAL_UART_Receive_IT+0x2a>
    {
      return HAL_ERROR;
 80040dc:	2301      	movs	r3, #1
 80040de:	e00b      	b.n	80040f8 <HAL_UART_Receive_IT+0x42>
    }

    /* Set Reception type to Standard reception */
    huart->ReceptionType = HAL_UART_RECEPTION_STANDARD;
 80040e0:	68fb      	ldr	r3, [r7, #12]
 80040e2:	2200      	movs	r2, #0
 80040e4:	631a      	str	r2, [r3, #48]	@ 0x30

    return (UART_Start_Receive_IT(huart, pData, Size));
 80040e6:	88fb      	ldrh	r3, [r7, #6]
 80040e8:	461a      	mov	r2, r3
 80040ea:	68b9      	ldr	r1, [r7, #8]
 80040ec:	68f8      	ldr	r0, [r7, #12]
 80040ee:	f000 fb0f 	bl	8004710 <UART_Start_Receive_IT>
 80040f2:	4603      	mov	r3, r0
 80040f4:	e000      	b.n	80040f8 <HAL_UART_Receive_IT+0x42>
  }
  else
  {
    return HAL_BUSY;
 80040f6:	2302      	movs	r3, #2
  }
}
 80040f8:	4618      	mov	r0, r3
 80040fa:	3710      	adds	r7, #16
 80040fc:	46bd      	mov	sp, r7
 80040fe:	bd80      	pop	{r7, pc}

08004100 <HAL_UART_IRQHandler>:
  * @param  huart  Pointer to a UART_HandleTypeDef structure that contains
  *                the configuration information for the specified UART module.
  * @retval None
  */
void HAL_UART_IRQHandler(UART_HandleTypeDef *huart)
{
 8004100:	b580      	push	{r7, lr}
 8004102:	b0ba      	sub	sp, #232	@ 0xe8
 8004104:	af00      	add	r7, sp, #0
 8004106:	6078      	str	r0, [r7, #4]
  uint32_t isrflags   = READ_REG(huart->Instance->SR);
 8004108:	687b      	ldr	r3, [r7, #4]
 800410a:	681b      	ldr	r3, [r3, #0]
 800410c:	681b      	ldr	r3, [r3, #0]
 800410e:	f8c7 30e4 	str.w	r3, [r7, #228]	@ 0xe4
  uint32_t cr1its     = READ_REG(huart->Instance->CR1);
 8004112:	687b      	ldr	r3, [r7, #4]
 8004114:	681b      	ldr	r3, [r3, #0]
 8004116:	68db      	ldr	r3, [r3, #12]
 8004118:	f8c7 30e0 	str.w	r3, [r7, #224]	@ 0xe0
  uint32_t cr3its     = READ_REG(huart->Instance->CR3);
 800411c:	687b      	ldr	r3, [r7, #4]
 800411e:	681b      	ldr	r3, [r3, #0]
 8004120:	695b      	ldr	r3, [r3, #20]
 8004122:	f8c7 30dc 	str.w	r3, [r7, #220]	@ 0xdc
  uint32_t errorflags = 0x00U;
 8004126:	2300      	movs	r3, #0
 8004128:	f8c7 30d8 	str.w	r3, [r7, #216]	@ 0xd8
  uint32_t dmarequest = 0x00U;
 800412c:	2300      	movs	r3, #0
 800412e:	f8c7 30d4 	str.w	r3, [r7, #212]	@ 0xd4

  /* If no error occurs */
  errorflags = (isrflags & (uint32_t)(USART_SR_PE | USART_SR_FE | USART_SR_ORE | USART_SR_NE));
 8004132:	f8d7 30e4 	ldr.w	r3, [r7, #228]	@ 0xe4
 8004136:	f003 030f 	and.w	r3, r3, #15
 800413a:	f8c7 30d8 	str.w	r3, [r7, #216]	@ 0xd8
  if (errorflags == RESET)
 800413e:	f8d7 30d8 	ldr.w	r3, [r7, #216]	@ 0xd8
 8004142:	2b00      	cmp	r3, #0
 8004144:	d10f      	bne.n	8004166 <HAL_UART_IRQHandler+0x66>
  {
    /* UART in mode Receiver -------------------------------------------------*/
    if (((isrflags & USART_SR_RXNE) != RESET) && ((cr1its & USART_CR1_RXNEIE) != RESET))
 8004146:	f8d7 30e4 	ldr.w	r3, [r7, #228]	@ 0xe4
 800414a:	f003 0320 	and.w	r3, r3, #32
 800414e:	2b00      	cmp	r3, #0
 8004150:	d009      	beq.n	8004166 <HAL_UART_IRQHandler+0x66>
 8004152:	f8d7 30e0 	ldr.w	r3, [r7, #224]	@ 0xe0
 8004156:	f003 0320 	and.w	r3, r3, #32
 800415a:	2b00      	cmp	r3, #0
 800415c:	d003      	beq.n	8004166 <HAL_UART_IRQHandler+0x66>
    {
      UART_Receive_IT(huart);
 800415e:	6878      	ldr	r0, [r7, #4]
 8004160:	f000 fbec 	bl	800493c <UART_Receive_IT>
      return;
 8004164:	e25b      	b.n	800461e <HAL_UART_IRQHandler+0x51e>
    }
  }

  /* If some errors occur */
  if ((errorflags != RESET) && (((cr3its & USART_CR3_EIE) != RESET)
 8004166:	f8d7 30d8 	ldr.w	r3, [r7, #216]	@ 0xd8
 800416a:	2b00      	cmp	r3, #0
 800416c:	f000 80de 	beq.w	800432c <HAL_UART_IRQHandler+0x22c>
 8004170:	f8d7 30dc 	ldr.w	r3, [r7, #220]	@ 0xdc
 8004174:	f003 0301 	and.w	r3, r3, #1
 8004178:	2b00      	cmp	r3, #0
 800417a:	d106      	bne.n	800418a <HAL_UART_IRQHandler+0x8a>
                                || ((cr1its & (USART_CR1_RXNEIE | USART_CR1_PEIE)) != RESET)))
 800417c:	f8d7 30e0 	ldr.w	r3, [r7, #224]	@ 0xe0
 8004180:	f403 7390 	and.w	r3, r3, #288	@ 0x120
 8004184:	2b00      	cmp	r3, #0
 8004186:	f000 80d1 	beq.w	800432c <HAL_UART_IRQHandler+0x22c>
  {
    /* UART parity error interrupt occurred ----------------------------------*/
    if (((isrflags & USART_SR_PE) != RESET) && ((cr1its & USART_CR1_PEIE) != RESET))
 800418a:	f8d7 30e4 	ldr.w	r3, [r7, #228]	@ 0xe4
 800418e:	f003 0301 	and.w	r3, r3, #1
 8004192:	2b00      	cmp	r3, #0
 8004194:	d00b      	beq.n	80041ae <HAL_UART_IRQHandler+0xae>
 8004196:	f8d7 30e0 	ldr.w	r3, [r7, #224]	@ 0xe0
 800419a:	f403 7380 	and.w	r3, r3, #256	@ 0x100
 800419e:	2b00      	cmp	r3, #0
 80041a0:	d005      	beq.n	80041ae <HAL_UART_IRQHandler+0xae>
    {
      huart->ErrorCode |= HAL_UART_ERROR_PE;
 80041a2:	687b      	ldr	r3, [r7, #4]
 80041a4:	6c5b      	ldr	r3, [r3, #68]	@ 0x44
 80041a6:	f043 0201 	orr.w	r2, r3, #1
 80041aa:	687b      	ldr	r3, [r7, #4]
 80041ac:	645a      	str	r2, [r3, #68]	@ 0x44
    }

    /* UART noise error interrupt occurred -----------------------------------*/
    if (((isrflags & USART_SR_NE) != RESET) && ((cr3its & USART_CR3_EIE) != RESET))
 80041ae:	f8d7 30e4 	ldr.w	r3, [r7, #228]	@ 0xe4
 80041b2:	f003 0304 	and.w	r3, r3, #4
 80041b6:	2b00      	cmp	r3, #0
 80041b8:	d00b      	beq.n	80041d2 <HAL_UART_IRQHandler+0xd2>
 80041ba:	f8d7 30dc 	ldr.w	r3, [r7, #220]	@ 0xdc
 80041be:	f003 0301 	and.w	r3, r3, #1
 80041c2:	2b00      	cmp	r3, #0
 80041c4:	d005      	beq.n	80041d2 <HAL_UART_IRQHandler+0xd2>
    {
      huart->ErrorCode |= HAL_UART_ERROR_NE;
 80041c6:	687b      	ldr	r3, [r7, #4]
 80041c8:	6c5b      	ldr	r3, [r3, #68]	@ 0x44
 80041ca:	f043 0202 	orr.w	r2, r3, #2
 80041ce:	687b      	ldr	r3, [r7, #4]
 80041d0:	645a      	str	r2, [r3, #68]	@ 0x44
    }

    /* UART frame error interrupt occurred -----------------------------------*/
    if (((isrflags & USART_SR_FE) != RESET) && ((cr3its & USART_CR3_EIE) != RESET))
 80041d2:	f8d7 30e4 	ldr.w	r3, [r7, #228]	@ 0xe4
 80041d6:	f003 0302 	and.w	r3, r3, #2
 80041da:	2b00      	cmp	r3, #0
 80041dc:	d00b      	beq.n	80041f6 <HAL_UART_IRQHandler+0xf6>
 80041de:	f8d7 30dc 	ldr.w	r3, [r7, #220]	@ 0xdc
 80041e2:	f003 0301 	and.w	r3, r3, #1
 80041e6:	2b00      	cmp	r3, #0
 80041e8:	d005      	beq.n	80041f6 <HAL_UART_IRQHandler+0xf6>
    {
      huart->ErrorCode |= HAL_UART_ERROR_FE;
 80041ea:	687b      	ldr	r3, [r7, #4]
 80041ec:	6c5b      	ldr	r3, [r3, #68]	@ 0x44
 80041ee:	f043 0204 	orr.w	r2, r3, #4
 80041f2:	687b      	ldr	r3, [r7, #4]
 80041f4:	645a      	str	r2, [r3, #68]	@ 0x44
    }

    /* UART Over-Run interrupt occurred --------------------------------------*/
    if (((isrflags & USART_SR_ORE) != RESET) && (((cr1its & USART_CR1_RXNEIE) != RESET)
 80041f6:	f8d7 30e4 	ldr.w	r3, [r7, #228]	@ 0xe4
 80041fa:	f003 0308 	and.w	r3, r3, #8
 80041fe:	2b00      	cmp	r3, #0
 8004200:	d011      	beq.n	8004226 <HAL_UART_IRQHandler+0x126>
 8004202:	f8d7 30e0 	ldr.w	r3, [r7, #224]	@ 0xe0
 8004206:	f003 0320 	and.w	r3, r3, #32
 800420a:	2b00      	cmp	r3, #0
 800420c:	d105      	bne.n	800421a <HAL_UART_IRQHandler+0x11a>
                                                 || ((cr3its & USART_CR3_EIE) != RESET)))
 800420e:	f8d7 30dc 	ldr.w	r3, [r7, #220]	@ 0xdc
 8004212:	f003 0301 	and.w	r3, r3, #1
 8004216:	2b00      	cmp	r3, #0
 8004218:	d005      	beq.n	8004226 <HAL_UART_IRQHandler+0x126>
    {
      huart->ErrorCode |= HAL_UART_ERROR_ORE;
 800421a:	687b      	ldr	r3, [r7, #4]
 800421c:	6c5b      	ldr	r3, [r3, #68]	@ 0x44
 800421e:	f043 0208 	orr.w	r2, r3, #8
 8004222:	687b      	ldr	r3, [r7, #4]
 8004224:	645a      	str	r2, [r3, #68]	@ 0x44
    }

    /* Call UART Error Call back function if need be --------------------------*/
    if (huart->ErrorCode != HAL_UART_ERROR_NONE)
 8004226:	687b      	ldr	r3, [r7, #4]
 8004228:	6c5b      	ldr	r3, [r3, #68]	@ 0x44
 800422a:	2b00      	cmp	r3, #0
 800422c:	f000 81f2 	beq.w	8004614 <HAL_UART_IRQHandler+0x514>
    {
      /* UART in mode Receiver -----------------------------------------------*/
      if (((isrflags & USART_SR_RXNE) != RESET) && ((cr1its & USART_CR1_RXNEIE) != RESET))
 8004230:	f8d7 30e4 	ldr.w	r3, [r7, #228]	@ 0xe4
 8004234:	f003 0320 	and.w	r3, r3, #32
 8004238:	2b00      	cmp	r3, #0
 800423a:	d008      	beq.n	800424e <HAL_UART_IRQHandler+0x14e>
 800423c:	f8d7 30e0 	ldr.w	r3, [r7, #224]	@ 0xe0
 8004240:	f003 0320 	and.w	r3, r3, #32
 8004244:	2b00      	cmp	r3, #0
 8004246:	d002      	beq.n	800424e <HAL_UART_IRQHandler+0x14e>
      {
        UART_Receive_IT(huart);
 8004248:	6878      	ldr	r0, [r7, #4]
 800424a:	f000 fb77 	bl	800493c <UART_Receive_IT>
      }

      /* If Overrun error occurs, or if any error occurs in DMA mode reception,
         consider error as blocking */
      dmarequest = HAL_IS_BIT_SET(huart->Instance->CR3, USART_CR3_DMAR);
 800424e:	687b      	ldr	r3, [r7, #4]
 8004250:	681b      	ldr	r3, [r3, #0]
 8004252:	695b      	ldr	r3, [r3, #20]
 8004254:	f003 0340 	and.w	r3, r3, #64	@ 0x40
 8004258:	2b00      	cmp	r3, #0
 800425a:	bf14      	ite	ne
 800425c:	2301      	movne	r3, #1
 800425e:	2300      	moveq	r3, #0
 8004260:	b2db      	uxtb	r3, r3
 8004262:	f8c7 30d4 	str.w	r3, [r7, #212]	@ 0xd4
      if (((huart->ErrorCode & HAL_UART_ERROR_ORE) != RESET) || dmarequest)
 8004266:	687b      	ldr	r3, [r7, #4]
 8004268:	6c5b      	ldr	r3, [r3, #68]	@ 0x44
 800426a:	f003 0308 	and.w	r3, r3, #8
 800426e:	2b00      	cmp	r3, #0
 8004270:	d103      	bne.n	800427a <HAL_UART_IRQHandler+0x17a>
 8004272:	f8d7 30d4 	ldr.w	r3, [r7, #212]	@ 0xd4
 8004276:	2b00      	cmp	r3, #0
 8004278:	d04f      	beq.n	800431a <HAL_UART_IRQHandler+0x21a>
      {
        /* Blocking error : transfer is aborted
           Set the UART state ready to be able to start again the process,
           Disable Rx Interrupts, and disable Rx DMA request, if ongoing */
        UART_EndRxTransfer(huart);
 800427a:	6878      	ldr	r0, [r7, #4]
 800427c:	f000 fa81 	bl	8004782 <UART_EndRxTransfer>

        /* Disable the UART DMA Rx request if enabled */
        if (HAL_IS_BIT_SET(huart->Instance->CR3, USART_CR3_DMAR))
 8004280:	687b      	ldr	r3, [r7, #4]
 8004282:	681b      	ldr	r3, [r3, #0]
 8004284:	695b      	ldr	r3, [r3, #20]
 8004286:	f003 0340 	and.w	r3, r3, #64	@ 0x40
 800428a:	2b00      	cmp	r3, #0
 800428c:	d041      	beq.n	8004312 <HAL_UART_IRQHandler+0x212>
        {
          ATOMIC_CLEAR_BIT(huart->Instance->CR3, USART_CR3_DMAR);
 800428e:	687b      	ldr	r3, [r7, #4]
 8004290:	681b      	ldr	r3, [r3, #0]
 8004292:	3314      	adds	r3, #20
 8004294:	f8c7 309c 	str.w	r3, [r7, #156]	@ 0x9c
 */
__STATIC_FORCEINLINE uint32_t __LDREXW(volatile uint32_t *addr)
{
    uint32_t result;

   __ASM volatile ("ldrex %0, %1" : "=r" (result) : "Q" (*addr) );
 8004298:	f8d7 309c 	ldr.w	r3, [r7, #156]	@ 0x9c
 800429c:	e853 3f00 	ldrex	r3, [r3]
 80042a0:	f8c7 3098 	str.w	r3, [r7, #152]	@ 0x98
   return(result);
 80042a4:	f8d7 3098 	ldr.w	r3, [r7, #152]	@ 0x98
 80042a8:	f023 0340 	bic.w	r3, r3, #64	@ 0x40
 80042ac:	f8c7 30d0 	str.w	r3, [r7, #208]	@ 0xd0
 80042b0:	687b      	ldr	r3, [r7, #4]
 80042b2:	681b      	ldr	r3, [r3, #0]
 80042b4:	3314      	adds	r3, #20
 80042b6:	f8d7 20d0 	ldr.w	r2, [r7, #208]	@ 0xd0
 80042ba:	f8c7 20a8 	str.w	r2, [r7, #168]	@ 0xa8
 80042be:	f8c7 30a4 	str.w	r3, [r7, #164]	@ 0xa4
 */
__STATIC_FORCEINLINE uint32_t __STREXW(uint32_t value, volatile uint32_t *addr)
{
   uint32_t result;

   __ASM volatile ("strex %0, %2, %1" : "=&r" (result), "=Q" (*addr) : "r" (value) );
 80042c2:	f8d7 10a4 	ldr.w	r1, [r7, #164]	@ 0xa4
 80042c6:	f8d7 20a8 	ldr.w	r2, [r7, #168]	@ 0xa8
 80042ca:	e841 2300 	strex	r3, r2, [r1]
 80042ce:	f8c7 30a0 	str.w	r3, [r7, #160]	@ 0xa0
   return(result);
 80042d2:	f8d7 30a0 	ldr.w	r3, [r7, #160]	@ 0xa0
 80042d6:	2b00      	cmp	r3, #0
 80042d8:	d1d9      	bne.n	800428e <HAL_UART_IRQHandler+0x18e>

          /* Abort the UART DMA Rx channel */
          if (huart->hdmarx != NULL)
 80042da:	687b      	ldr	r3, [r7, #4]
 80042dc:	6bdb      	ldr	r3, [r3, #60]	@ 0x3c
 80042de:	2b00      	cmp	r3, #0
 80042e0:	d013      	beq.n	800430a <HAL_UART_IRQHandler+0x20a>
          {
            /* Set the UART DMA Abort callback :
               will lead to call HAL_UART_ErrorCallback() at end of DMA abort procedure */
            huart->hdmarx->XferAbortCallback = UART_DMAAbortOnError;
 80042e2:	687b      	ldr	r3, [r7, #4]
 80042e4:	6bdb      	ldr	r3, [r3, #60]	@ 0x3c
 80042e6:	4a7e      	ldr	r2, [pc, #504]	@ (80044e0 <HAL_UART_IRQHandler+0x3e0>)
 80042e8:	635a      	str	r2, [r3, #52]	@ 0x34
            if (HAL_DMA_Abort_IT(huart->hdmarx) != HAL_OK)
 80042ea:	687b      	ldr	r3, [r7, #4]
 80042ec:	6bdb      	ldr	r3, [r3, #60]	@ 0x3c
 80042ee:	4618      	mov	r0, r3
 80042f0:	f7fe fe3c 	bl	8002f6c <HAL_DMA_Abort_IT>
 80042f4:	4603      	mov	r3, r0
 80042f6:	2b00      	cmp	r3, #0
 80042f8:	d016      	beq.n	8004328 <HAL_UART_IRQHandler+0x228>
            {
              /* Call Directly XferAbortCallback function in case of error */
              huart->hdmarx->XferAbortCallback(huart->hdmarx);
 80042fa:	687b      	ldr	r3, [r7, #4]
 80042fc:	6bdb      	ldr	r3, [r3, #60]	@ 0x3c
 80042fe:	6b5b      	ldr	r3, [r3, #52]	@ 0x34
 8004300:	687a      	ldr	r2, [r7, #4]
 8004302:	6bd2      	ldr	r2, [r2, #60]	@ 0x3c
 8004304:	4610      	mov	r0, r2
 8004306:	4798      	blx	r3
        if (HAL_IS_BIT_SET(huart->Instance->CR3, USART_CR3_DMAR))
 8004308:	e00e      	b.n	8004328 <HAL_UART_IRQHandler+0x228>
#if (USE_HAL_UART_REGISTER_CALLBACKS == 1)
            /*Call registered error callback*/
            huart->ErrorCallback(huart);
#else
            /*Call legacy weak error callback*/
            HAL_UART_ErrorCallback(huart);
 800430a:	6878      	ldr	r0, [r7, #4]
 800430c:	f000 f993 	bl	8004636 <HAL_UART_ErrorCallback>
        if (HAL_IS_BIT_SET(huart->Instance->CR3, USART_CR3_DMAR))
 8004310:	e00a      	b.n	8004328 <HAL_UART_IRQHandler+0x228>
#if (USE_HAL_UART_REGISTER_CALLBACKS == 1)
          /*Call registered error callback*/
          huart->ErrorCallback(huart);
#else
          /*Call legacy weak error callback*/
          HAL_UART_ErrorCallback(huart);
 8004312:	6878      	ldr	r0, [r7, #4]
 8004314:	f000 f98f 	bl	8004636 <HAL_UART_ErrorCallback>
        if (HAL_IS_BIT_SET(huart->Instance->CR3, USART_CR3_DMAR))
 8004318:	e006      	b.n	8004328 <HAL_UART_IRQHandler+0x228>
#if (USE_HAL_UART_REGISTER_CALLBACKS == 1)
        /*Call registered error callback*/
        huart->ErrorCallback(huart);
#else
        /*Call legacy weak error callback*/
        HAL_UART_ErrorCallback(huart);
 800431a:	6878      	ldr	r0, [r7, #4]
 800431c:	f000 f98b 	bl	8004636 <HAL_UART_ErrorCallback>
#endif /* USE_HAL_UART_REGISTER_CALLBACKS */

        huart->ErrorCode = HAL_UART_ERROR_NONE;
 8004320:	687b      	ldr	r3, [r7, #4]
 8004322:	2200      	movs	r2, #0
 8004324:	645a      	str	r2, [r3, #68]	@ 0x44
      }
    }
    return;
 8004326:	e175      	b.n	8004614 <HAL_UART_IRQHandler+0x514>
        if (HAL_IS_BIT_SET(huart->Instance->CR3, USART_CR3_DMAR))
 8004328:	bf00      	nop
    return;
 800432a:	e173      	b.n	8004614 <HAL_UART_IRQHandler+0x514>
  } /* End if some error occurs */

  /* Check current reception Mode :
     If Reception till IDLE event has been selected : */
  if ((huart->ReceptionType == HAL_UART_RECEPTION_TOIDLE)
 800432c:	687b      	ldr	r3, [r7, #4]
 800432e:	6b1b      	ldr	r3, [r3, #48]	@ 0x30
 8004330:	2b01      	cmp	r3, #1
 8004332:	f040 814f 	bne.w	80045d4 <HAL_UART_IRQHandler+0x4d4>
      && ((isrflags & USART_SR_IDLE) != 0U)
 8004336:	f8d7 30e4 	ldr.w	r3, [r7, #228]	@ 0xe4
 800433a:	f003 0310 	and.w	r3, r3, #16
 800433e:	2b00      	cmp	r3, #0
 8004340:	f000 8148 	beq.w	80045d4 <HAL_UART_IRQHandler+0x4d4>
      && ((cr1its & USART_SR_IDLE) != 0U))
 8004344:	f8d7 30e0 	ldr.w	r3, [r7, #224]	@ 0xe0
 8004348:	f003 0310 	and.w	r3, r3, #16
 800434c:	2b00      	cmp	r3, #0
 800434e:	f000 8141 	beq.w	80045d4 <HAL_UART_IRQHandler+0x4d4>
  {
    __HAL_UART_CLEAR_IDLEFLAG(huart);
 8004352:	2300      	movs	r3, #0
 8004354:	60bb      	str	r3, [r7, #8]
 8004356:	687b      	ldr	r3, [r7, #4]
 8004358:	681b      	ldr	r3, [r3, #0]
 800435a:	681b      	ldr	r3, [r3, #0]
 800435c:	60bb      	str	r3, [r7, #8]
 800435e:	687b      	ldr	r3, [r7, #4]
 8004360:	681b      	ldr	r3, [r3, #0]
 8004362:	685b      	ldr	r3, [r3, #4]
 8004364:	60bb      	str	r3, [r7, #8]
 8004366:	68bb      	ldr	r3, [r7, #8]

    /* Check if DMA mode is enabled in UART */
    if (HAL_IS_BIT_SET(huart->Instance->CR3, USART_CR3_DMAR))
 8004368:	687b      	ldr	r3, [r7, #4]
 800436a:	681b      	ldr	r3, [r3, #0]
 800436c:	695b      	ldr	r3, [r3, #20]
 800436e:	f003 0340 	and.w	r3, r3, #64	@ 0x40
 8004372:	2b00      	cmp	r3, #0
 8004374:	f000 80b6 	beq.w	80044e4 <HAL_UART_IRQHandler+0x3e4>
    {
      /* DMA mode enabled */
      /* Check received length : If all expected data are received, do nothing,
         (DMA cplt callback will be called).
         Otherwise, if at least one data has already been received, IDLE event is to be notified to user */
      uint16_t nb_remaining_rx_data = (uint16_t) __HAL_DMA_GET_COUNTER(huart->hdmarx);
 8004378:	687b      	ldr	r3, [r7, #4]
 800437a:	6bdb      	ldr	r3, [r3, #60]	@ 0x3c
 800437c:	681b      	ldr	r3, [r3, #0]
 800437e:	685b      	ldr	r3, [r3, #4]
 8004380:	f8a7 30be 	strh.w	r3, [r7, #190]	@ 0xbe
      if ((nb_remaining_rx_data > 0U)
 8004384:	f8b7 30be 	ldrh.w	r3, [r7, #190]	@ 0xbe
 8004388:	2b00      	cmp	r3, #0
 800438a:	f000 8145 	beq.w	8004618 <HAL_UART_IRQHandler+0x518>
          && (nb_remaining_rx_data < huart->RxXferSize))
 800438e:	687b      	ldr	r3, [r7, #4]
 8004390:	8d9b      	ldrh	r3, [r3, #44]	@ 0x2c
 8004392:	f8b7 20be 	ldrh.w	r2, [r7, #190]	@ 0xbe
 8004396:	429a      	cmp	r2, r3
 8004398:	f080 813e 	bcs.w	8004618 <HAL_UART_IRQHandler+0x518>
      {
        /* Reception is not complete */
        huart->RxXferCount = nb_remaining_rx_data;
 800439c:	687b      	ldr	r3, [r7, #4]
 800439e:	f8b7 20be 	ldrh.w	r2, [r7, #190]	@ 0xbe
 80043a2:	85da      	strh	r2, [r3, #46]	@ 0x2e

        /* In Normal mode, end DMA xfer and HAL UART Rx process*/
        if (huart->hdmarx->Init.Mode != DMA_CIRCULAR)
 80043a4:	687b      	ldr	r3, [r7, #4]
 80043a6:	6bdb      	ldr	r3, [r3, #60]	@ 0x3c
 80043a8:	699b      	ldr	r3, [r3, #24]
 80043aa:	2b20      	cmp	r3, #32
 80043ac:	f000 8088 	beq.w	80044c0 <HAL_UART_IRQHandler+0x3c0>
        {
          /* Disable PE and ERR (Frame error, noise error, overrun error) interrupts */
          ATOMIC_CLEAR_BIT(huart->Instance->CR1, USART_CR1_PEIE);
 80043b0:	687b      	ldr	r3, [r7, #4]
 80043b2:	681b      	ldr	r3, [r3, #0]
 80043b4:	330c      	adds	r3, #12
 80043b6:	f8c7 3088 	str.w	r3, [r7, #136]	@ 0x88
   __ASM volatile ("ldrex %0, %1" : "=r" (result) : "Q" (*addr) );
 80043ba:	f8d7 3088 	ldr.w	r3, [r7, #136]	@ 0x88
 80043be:	e853 3f00 	ldrex	r3, [r3]
 80043c2:	f8c7 3084 	str.w	r3, [r7, #132]	@ 0x84
   return(result);
 80043c6:	f8d7 3084 	ldr.w	r3, [r7, #132]	@ 0x84
 80043ca:	f423 7380 	bic.w	r3, r3, #256	@ 0x100
 80043ce:	f8c7 30b8 	str.w	r3, [r7, #184]	@ 0xb8
 80043d2:	687b      	ldr	r3, [r7, #4]
 80043d4:	681b      	ldr	r3, [r3, #0]
 80043d6:	330c      	adds	r3, #12
 80043d8:	f8d7 20b8 	ldr.w	r2, [r7, #184]	@ 0xb8
 80043dc:	f8c7 2094 	str.w	r2, [r7, #148]	@ 0x94
 80043e0:	f8c7 3090 	str.w	r3, [r7, #144]	@ 0x90
   __ASM volatile ("strex %0, %2, %1" : "=&r" (result), "=Q" (*addr) : "r" (value) );
 80043e4:	f8d7 1090 	ldr.w	r1, [r7, #144]	@ 0x90
 80043e8:	f8d7 2094 	ldr.w	r2, [r7, #148]	@ 0x94
 80043ec:	e841 2300 	strex	r3, r2, [r1]
 80043f0:	f8c7 308c 	str.w	r3, [r7, #140]	@ 0x8c
   return(result);
 80043f4:	f8d7 308c 	ldr.w	r3, [r7, #140]	@ 0x8c
 80043f8:	2b00      	cmp	r3, #0
 80043fa:	d1d9      	bne.n	80043b0 <HAL_UART_IRQHandler+0x2b0>
          ATOMIC_CLEAR_BIT(huart->Instance->CR3, USART_CR3_EIE);
 80043fc:	687b      	ldr	r3, [r7, #4]
 80043fe:	681b      	ldr	r3, [r3, #0]
 8004400:	3314      	adds	r3, #20
 8004402:	677b      	str	r3, [r7, #116]	@ 0x74
   __ASM volatile ("ldrex %0, %1" : "=r" (result) : "Q" (*addr) );
 8004404:	6f7b      	ldr	r3, [r7, #116]	@ 0x74
 8004406:	e853 3f00 	ldrex	r3, [r3]
 800440a:	673b      	str	r3, [r7, #112]	@ 0x70
   return(result);
 800440c:	6f3b      	ldr	r3, [r7, #112]	@ 0x70
 800440e:	f023 0301 	bic.w	r3, r3, #1
 8004412:	f8c7 30b4 	str.w	r3, [r7, #180]	@ 0xb4
 8004416:	687b      	ldr	r3, [r7, #4]
 8004418:	681b      	ldr	r3, [r3, #0]
 800441a:	3314      	adds	r3, #20
 800441c:	f8d7 20b4 	ldr.w	r2, [r7, #180]	@ 0xb4
 8004420:	f8c7 2080 	str.w	r2, [r7, #128]	@ 0x80
 8004424:	67fb      	str	r3, [r7, #124]	@ 0x7c
   __ASM volatile ("strex %0, %2, %1" : "=&r" (result), "=Q" (*addr) : "r" (value) );
 8004426:	6ff9      	ldr	r1, [r7, #124]	@ 0x7c
 8004428:	f8d7 2080 	ldr.w	r2, [r7, #128]	@ 0x80
 800442c:	e841 2300 	strex	r3, r2, [r1]
 8004430:	67bb      	str	r3, [r7, #120]	@ 0x78
   return(result);
 8004432:	6fbb      	ldr	r3, [r7, #120]	@ 0x78
 8004434:	2b00      	cmp	r3, #0
 8004436:	d1e1      	bne.n	80043fc <HAL_UART_IRQHandler+0x2fc>

          /* Disable the DMA transfer for the receiver request by resetting the DMAR bit
             in the UART CR3 register */
          ATOMIC_CLEAR_BIT(huart->Instance->CR3, USART_CR3_DMAR);
 8004438:	687b      	ldr	r3, [r7, #4]
 800443a:	681b      	ldr	r3, [r3, #0]
 800443c:	3314      	adds	r3, #20
 800443e:	663b      	str	r3, [r7, #96]	@ 0x60
   __ASM volatile ("ldrex %0, %1" : "=r" (result) : "Q" (*addr) );
 8004440:	6e3b      	ldr	r3, [r7, #96]	@ 0x60
 8004442:	e853 3f00 	ldrex	r3, [r3]
 8004446:	65fb      	str	r3, [r7, #92]	@ 0x5c
   return(result);
 8004448:	6dfb      	ldr	r3, [r7, #92]	@ 0x5c
 800444a:	f023 0340 	bic.w	r3, r3, #64	@ 0x40
 800444e:	f8c7 30b0 	str.w	r3, [r7, #176]	@ 0xb0
 8004452:	687b      	ldr	r3, [r7, #4]
 8004454:	681b      	ldr	r3, [r3, #0]
 8004456:	3314      	adds	r3, #20
 8004458:	f8d7 20b0 	ldr.w	r2, [r7, #176]	@ 0xb0
 800445c:	66fa      	str	r2, [r7, #108]	@ 0x6c
 800445e:	66bb      	str	r3, [r7, #104]	@ 0x68
   __ASM volatile ("strex %0, %2, %1" : "=&r" (result), "=Q" (*addr) : "r" (value) );
 8004460:	6eb9      	ldr	r1, [r7, #104]	@ 0x68
 8004462:	6efa      	ldr	r2, [r7, #108]	@ 0x6c
 8004464:	e841 2300 	strex	r3, r2, [r1]
 8004468:	667b      	str	r3, [r7, #100]	@ 0x64
   return(result);
 800446a:	6e7b      	ldr	r3, [r7, #100]	@ 0x64
 800446c:	2b00      	cmp	r3, #0
 800446e:	d1e3      	bne.n	8004438 <HAL_UART_IRQHandler+0x338>

          /* At end of Rx process, restore huart->RxState to Ready */
          huart->RxState = HAL_UART_STATE_READY;
 8004470:	687b      	ldr	r3, [r7, #4]
 8004472:	2220      	movs	r2, #32
 8004474:	f883 2042 	strb.w	r2, [r3, #66]	@ 0x42
          huart->ReceptionType = HAL_UART_RECEPTION_STANDARD;
 8004478:	687b      	ldr	r3, [r7, #4]
 800447a:	2200      	movs	r2, #0
 800447c:	631a      	str	r2, [r3, #48]	@ 0x30

          ATOMIC_CLEAR_BIT(huart->Instance->CR1, USART_CR1_IDLEIE);
 800447e:	687b      	ldr	r3, [r7, #4]
 8004480:	681b      	ldr	r3, [r3, #0]
 8004482:	330c      	adds	r3, #12
 8004484:	64fb      	str	r3, [r7, #76]	@ 0x4c
   __ASM volatile ("ldrex %0, %1" : "=r" (result) : "Q" (*addr) );
 8004486:	6cfb      	ldr	r3, [r7, #76]	@ 0x4c
 8004488:	e853 3f00 	ldrex	r3, [r3]
 800448c:	64bb      	str	r3, [r7, #72]	@ 0x48
   return(result);
 800448e:	6cbb      	ldr	r3, [r7, #72]	@ 0x48
 8004490:	f023 0310 	bic.w	r3, r3, #16
 8004494:	f8c7 30ac 	str.w	r3, [r7, #172]	@ 0xac
 8004498:	687b      	ldr	r3, [r7, #4]
 800449a:	681b      	ldr	r3, [r3, #0]
 800449c:	330c      	adds	r3, #12
 800449e:	f8d7 20ac 	ldr.w	r2, [r7, #172]	@ 0xac
 80044a2:	65ba      	str	r2, [r7, #88]	@ 0x58
 80044a4:	657b      	str	r3, [r7, #84]	@ 0x54
   __ASM volatile ("strex %0, %2, %1" : "=&r" (result), "=Q" (*addr) : "r" (value) );
 80044a6:	6d79      	ldr	r1, [r7, #84]	@ 0x54
 80044a8:	6dba      	ldr	r2, [r7, #88]	@ 0x58
 80044aa:	e841 2300 	strex	r3, r2, [r1]
 80044ae:	653b      	str	r3, [r7, #80]	@ 0x50
   return(result);
 80044b0:	6d3b      	ldr	r3, [r7, #80]	@ 0x50
 80044b2:	2b00      	cmp	r3, #0
 80044b4:	d1e3      	bne.n	800447e <HAL_UART_IRQHandler+0x37e>

          /* Last bytes received, so no need as the abort is immediate */
          (void)HAL_DMA_Abort(huart->hdmarx);
 80044b6:	687b      	ldr	r3, [r7, #4]
 80044b8:	6bdb      	ldr	r3, [r3, #60]	@ 0x3c
 80044ba:	4618      	mov	r0, r3
 80044bc:	f7fe fd1b 	bl	8002ef6 <HAL_DMA_Abort>
        }

        /* Initialize type of RxEvent that correspond to RxEvent callback execution;
        In this case, Rx Event type is Idle Event */
        huart->RxEventType = HAL_UART_RXEVENT_IDLE;
 80044c0:	687b      	ldr	r3, [r7, #4]
 80044c2:	2202      	movs	r2, #2
 80044c4:	635a      	str	r2, [r3, #52]	@ 0x34
#if (USE_HAL_UART_REGISTER_CALLBACKS == 1)
        /*Call registered Rx Event callback*/
        huart->RxEventCallback(huart, (huart->RxXferSize - huart->RxXferCount));
#else
        /*Call legacy weak Rx Event callback*/
        HAL_UARTEx_RxEventCallback(huart, (huart->RxXferSize - huart->RxXferCount));
 80044c6:	687b      	ldr	r3, [r7, #4]
 80044c8:	8d9a      	ldrh	r2, [r3, #44]	@ 0x2c
 80044ca:	687b      	ldr	r3, [r7, #4]
 80044cc:	8ddb      	ldrh	r3, [r3, #46]	@ 0x2e
 80044ce:	b29b      	uxth	r3, r3
 80044d0:	1ad3      	subs	r3, r2, r3
 80044d2:	b29b      	uxth	r3, r3
 80044d4:	4619      	mov	r1, r3
 80044d6:	6878      	ldr	r0, [r7, #4]
 80044d8:	f000 f8b6 	bl	8004648 <HAL_UARTEx_RxEventCallback>
#endif /* USE_HAL_UART_REGISTER_CALLBACKS */
      }
      return;
 80044dc:	e09c      	b.n	8004618 <HAL_UART_IRQHandler+0x518>
 80044de:	bf00      	nop
 80044e0:	08004847 	.word	0x08004847
    else
    {
      /* DMA mode not enabled */
      /* Check received length : If all expected data are received, do nothing.
         Otherwise, if at least one data has already been received, IDLE event is to be notified to user */
      uint16_t nb_rx_data = huart->RxXferSize - huart->RxXferCount;
 80044e4:	687b      	ldr	r3, [r7, #4]
 80044e6:	8d9a      	ldrh	r2, [r3, #44]	@ 0x2c
 80044e8:	687b      	ldr	r3, [r7, #4]
 80044ea:	8ddb      	ldrh	r3, [r3, #46]	@ 0x2e
 80044ec:	b29b      	uxth	r3, r3
 80044ee:	1ad3      	subs	r3, r2, r3
 80044f0:	f8a7 30ce 	strh.w	r3, [r7, #206]	@ 0xce
      if ((huart->RxXferCount > 0U)
 80044f4:	687b      	ldr	r3, [r7, #4]
 80044f6:	8ddb      	ldrh	r3, [r3, #46]	@ 0x2e
 80044f8:	b29b      	uxth	r3, r3
 80044fa:	2b00      	cmp	r3, #0
 80044fc:	f000 808e 	beq.w	800461c <HAL_UART_IRQHandler+0x51c>
          && (nb_rx_data > 0U))
 8004500:	f8b7 30ce 	ldrh.w	r3, [r7, #206]	@ 0xce
 8004504:	2b00      	cmp	r3, #0
 8004506:	f000 8089 	beq.w	800461c <HAL_UART_IRQHandler+0x51c>
      {
        /* Disable the UART Parity Error Interrupt and RXNE interrupts */
        ATOMIC_CLEAR_BIT(huart->Instance->CR1, (USART_CR1_RXNEIE | USART_CR1_PEIE));
 800450a:	687b      	ldr	r3, [r7, #4]
 800450c:	681b      	ldr	r3, [r3, #0]
 800450e:	330c      	adds	r3, #12
 8004510:	63bb      	str	r3, [r7, #56]	@ 0x38
   __ASM volatile ("ldrex %0, %1" : "=r" (result) : "Q" (*addr) );
 8004512:	6bbb      	ldr	r3, [r7, #56]	@ 0x38
 8004514:	e853 3f00 	ldrex	r3, [r3]
 8004518:	637b      	str	r3, [r7, #52]	@ 0x34
   return(result);
 800451a:	6b7b      	ldr	r3, [r7, #52]	@ 0x34
 800451c:	f423 7390 	bic.w	r3, r3, #288	@ 0x120
 8004520:	f8c7 30c8 	str.w	r3, [r7, #200]	@ 0xc8
 8004524:	687b      	ldr	r3, [r7, #4]
 8004526:	681b      	ldr	r3, [r3, #0]
 8004528:	330c      	adds	r3, #12
 800452a:	f8d7 20c8 	ldr.w	r2, [r7, #200]	@ 0xc8
 800452e:	647a      	str	r2, [r7, #68]	@ 0x44
 8004530:	643b      	str	r3, [r7, #64]	@ 0x40
   __ASM volatile ("strex %0, %2, %1" : "=&r" (result), "=Q" (*addr) : "r" (value) );
 8004532:	6c39      	ldr	r1, [r7, #64]	@ 0x40
 8004534:	6c7a      	ldr	r2, [r7, #68]	@ 0x44
 8004536:	e841 2300 	strex	r3, r2, [r1]
 800453a:	63fb      	str	r3, [r7, #60]	@ 0x3c
   return(result);
 800453c:	6bfb      	ldr	r3, [r7, #60]	@ 0x3c
 800453e:	2b00      	cmp	r3, #0
 8004540:	d1e3      	bne.n	800450a <HAL_UART_IRQHandler+0x40a>

        /* Disable the UART Error Interrupt: (Frame error, noise error, overrun error) */
        ATOMIC_CLEAR_BIT(huart->Instance->CR3, USART_CR3_EIE);
 8004542:	687b      	ldr	r3, [r7, #4]
 8004544:	681b      	ldr	r3, [r3, #0]
 8004546:	3314      	adds	r3, #20
 8004548:	627b      	str	r3, [r7, #36]	@ 0x24
   __ASM volatile ("ldrex %0, %1" : "=r" (result) : "Q" (*addr) );
 800454a:	6a7b      	ldr	r3, [r7, #36]	@ 0x24
 800454c:	e853 3f00 	ldrex	r3, [r3]
 8004550:	623b      	str	r3, [r7, #32]
   return(result);
 8004552:	6a3b      	ldr	r3, [r7, #32]
 8004554:	f023 0301 	bic.w	r3, r3, #1
 8004558:	f8c7 30c4 	str.w	r3, [r7, #196]	@ 0xc4
 800455c:	687b      	ldr	r3, [r7, #4]
 800455e:	681b      	ldr	r3, [r3, #0]
 8004560:	3314      	adds	r3, #20
 8004562:	f8d7 20c4 	ldr.w	r2, [r7, #196]	@ 0xc4
 8004566:	633a      	str	r2, [r7, #48]	@ 0x30
 8004568:	62fb      	str	r3, [r7, #44]	@ 0x2c
   __ASM volatile ("strex %0, %2, %1" : "=&r" (result), "=Q" (*addr) : "r" (value) );
 800456a:	6af9      	ldr	r1, [r7, #44]	@ 0x2c
 800456c:	6b3a      	ldr	r2, [r7, #48]	@ 0x30
 800456e:	e841 2300 	strex	r3, r2, [r1]
 8004572:	62bb      	str	r3, [r7, #40]	@ 0x28
   return(result);
 8004574:	6abb      	ldr	r3, [r7, #40]	@ 0x28
 8004576:	2b00      	cmp	r3, #0
 8004578:	d1e3      	bne.n	8004542 <HAL_UART_IRQHandler+0x442>

        /* Rx process is completed, restore huart->RxState to Ready */
        huart->RxState = HAL_UART_STATE_READY;
 800457a:	687b      	ldr	r3, [r7, #4]
 800457c:	2220      	movs	r2, #32
 800457e:	f883 2042 	strb.w	r2, [r3, #66]	@ 0x42
        huart->ReceptionType = HAL_UART_RECEPTION_STANDARD;
 8004582:	687b      	ldr	r3, [r7, #4]
 8004584:	2200      	movs	r2, #0
 8004586:	631a      	str	r2, [r3, #48]	@ 0x30

        ATOMIC_CLEAR_BIT(huart->Instance->CR1, USART_CR1_IDLEIE);
 8004588:	687b      	ldr	r3, [r7, #4]
 800458a:	681b      	ldr	r3, [r3, #0]
 800458c:	330c      	adds	r3, #12
 800458e:	613b      	str	r3, [r7, #16]
   __ASM volatile ("ldrex %0, %1" : "=r" (result) : "Q" (*addr) );
 8004590:	693b      	ldr	r3, [r7, #16]
 8004592:	e853 3f00 	ldrex	r3, [r3]
 8004596:	60fb      	str	r3, [r7, #12]
   return(result);
 8004598:	68fb      	ldr	r3, [r7, #12]
 800459a:	f023 0310 	bic.w	r3, r3, #16
 800459e:	f8c7 30c0 	str.w	r3, [r7, #192]	@ 0xc0
 80045a2:	687b      	ldr	r3, [r7, #4]
 80045a4:	681b      	ldr	r3, [r3, #0]
 80045a6:	330c      	adds	r3, #12
 80045a8:	f8d7 20c0 	ldr.w	r2, [r7, #192]	@ 0xc0
 80045ac:	61fa      	str	r2, [r7, #28]
 80045ae:	61bb      	str	r3, [r7, #24]
   __ASM volatile ("strex %0, %2, %1" : "=&r" (result), "=Q" (*addr) : "r" (value) );
 80045b0:	69b9      	ldr	r1, [r7, #24]
 80045b2:	69fa      	ldr	r2, [r7, #28]
 80045b4:	e841 2300 	strex	r3, r2, [r1]
 80045b8:	617b      	str	r3, [r7, #20]
   return(result);
 80045ba:	697b      	ldr	r3, [r7, #20]
 80045bc:	2b00      	cmp	r3, #0
 80045be:	d1e3      	bne.n	8004588 <HAL_UART_IRQHandler+0x488>

        /* Initialize type of RxEvent that correspond to RxEvent callback execution;
           In this case, Rx Event type is Idle Event */
        huart->RxEventType = HAL_UART_RXEVENT_IDLE;
 80045c0:	687b      	ldr	r3, [r7, #4]
 80045c2:	2202      	movs	r2, #2
 80045c4:	635a      	str	r2, [r3, #52]	@ 0x34
#if (USE_HAL_UART_REGISTER_CALLBACKS == 1)
        /*Call registered Rx complete callback*/
        huart->RxEventCallback(huart, nb_rx_data);
#else
        /*Call legacy weak Rx Event callback*/
        HAL_UARTEx_RxEventCallback(huart, nb_rx_data);
 80045c6:	f8b7 30ce 	ldrh.w	r3, [r7, #206]	@ 0xce
 80045ca:	4619      	mov	r1, r3
 80045cc:	6878      	ldr	r0, [r7, #4]
 80045ce:	f000 f83b 	bl	8004648 <HAL_UARTEx_RxEventCallback>
#endif /* USE_HAL_UART_REGISTER_CALLBACKS */
      }
      return;
 80045d2:	e023      	b.n	800461c <HAL_UART_IRQHandler+0x51c>
    }
  }

  /* UART in mode Transmitter ------------------------------------------------*/
  if (((isrflags & USART_SR_TXE) != RESET) && ((cr1its & USART_CR1_TXEIE) != RESET))
 80045d4:	f8d7 30e4 	ldr.w	r3, [r7, #228]	@ 0xe4
 80045d8:	f003 0380 	and.w	r3, r3, #128	@ 0x80
 80045dc:	2b00      	cmp	r3, #0
 80045de:	d009      	beq.n	80045f4 <HAL_UART_IRQHandler+0x4f4>
 80045e0:	f8d7 30e0 	ldr.w	r3, [r7, #224]	@ 0xe0
 80045e4:	f003 0380 	and.w	r3, r3, #128	@ 0x80
 80045e8:	2b00      	cmp	r3, #0
 80045ea:	d003      	beq.n	80045f4 <HAL_UART_IRQHandler+0x4f4>
  {
    UART_Transmit_IT(huart);
 80045ec:	6878      	ldr	r0, [r7, #4]
 80045ee:	f000 f93e 	bl	800486e <UART_Transmit_IT>
    return;
 80045f2:	e014      	b.n	800461e <HAL_UART_IRQHandler+0x51e>
  }

  /* UART in mode Transmitter end --------------------------------------------*/
  if (((isrflags & USART_SR_TC) != RESET) && ((cr1its & USART_CR1_TCIE) != RESET))
 80045f4:	f8d7 30e4 	ldr.w	r3, [r7, #228]	@ 0xe4
 80045f8:	f003 0340 	and.w	r3, r3, #64	@ 0x40
 80045fc:	2b00      	cmp	r3, #0
 80045fe:	d00e      	beq.n	800461e <HAL_UART_IRQHandler+0x51e>
 8004600:	f8d7 30e0 	ldr.w	r3, [r7, #224]	@ 0xe0
 8004604:	f003 0340 	and.w	r3, r3, #64	@ 0x40
 8004608:	2b00      	cmp	r3, #0
 800460a:	d008      	beq.n	800461e <HAL_UART_IRQHandler+0x51e>
  {
    UART_EndTransmit_IT(huart);
 800460c:	6878      	ldr	r0, [r7, #4]
 800460e:	f000 f97d 	bl	800490c <UART_EndTransmit_IT>
    return;
 8004612:	e004      	b.n	800461e <HAL_UART_IRQHandler+0x51e>
    return;
 8004614:	bf00      	nop
 8004616:	e002      	b.n	800461e <HAL_UART_IRQHandler+0x51e>
      return;
 8004618:	bf00      	nop
 800461a:	e000      	b.n	800461e <HAL_UART_IRQHandler+0x51e>
      return;
 800461c:	bf00      	nop
  }
}
 800461e:	37e8      	adds	r7, #232	@ 0xe8
 8004620:	46bd      	mov	sp, r7
 8004622:	bd80      	pop	{r7, pc}

08004624 <HAL_UART_TxCpltCallback>:
  * @param  huart  Pointer to a UART_HandleTypeDef structure that contains
  *                the configuration information for the specified UART module.
  * @retval None
  */
__weak void HAL_UART_TxCpltCallback(UART_HandleTypeDef *huart)
{
 8004624:	b480      	push	{r7}
 8004626:	b083      	sub	sp, #12
 8004628:	af00      	add	r7, sp, #0
 800462a:	6078      	str	r0, [r7, #4]
  /* Prevent unused argument(s) compilation warning */
  UNUSED(huart);
  /* NOTE: This function should not be modified, when the callback is needed,
           the HAL_UART_TxCpltCallback could be implemented in the user file
   */
}
 800462c:	bf00      	nop
 800462e:	370c      	adds	r7, #12
 8004630:	46bd      	mov	sp, r7
 8004632:	bc80      	pop	{r7}
 8004634:	4770      	bx	lr

08004636 <HAL_UART_ErrorCallback>:
  * @param  huart  Pointer to a UART_HandleTypeDef structure that contains
  *                the configuration information for the specified UART module.
  * @retval None
  */
__weak void HAL_UART_ErrorCallback(UART_HandleTypeDef *huart)
{
 8004636:	b480      	push	{r7}
 8004638:	b083      	sub	sp, #12
 800463a:	af00      	add	r7, sp, #0
 800463c:	6078      	str	r0, [r7, #4]
  /* Prevent unused argument(s) compilation warning */
  UNUSED(huart);
  /* NOTE: This function should not be modified, when the callback is needed,
           the HAL_UART_ErrorCallback could be implemented in the user file
   */
}
 800463e:	bf00      	nop
 8004640:	370c      	adds	r7, #12
 8004642:	46bd      	mov	sp, r7
 8004644:	bc80      	pop	{r7}
 8004646:	4770      	bx	lr

08004648 <HAL_UARTEx_RxEventCallback>:
  * @param  Size  Number of data available in application reception buffer (indicates a position in
  *               reception buffer until which, data are available)
  * @retval None
  */
__weak void HAL_UARTEx_RxEventCallback(UART_HandleTypeDef *huart, uint16_t Size)
{
 8004648:	b480      	push	{r7}
 800464a:	b083      	sub	sp, #12
 800464c:	af00      	add	r7, sp, #0
 800464e:	6078      	str	r0, [r7, #4]
 8004650:	460b      	mov	r3, r1
 8004652:	807b      	strh	r3, [r7, #2]
  UNUSED(Size);

  /* NOTE : This function should not be modified, when the callback is needed,
            the HAL_UARTEx_RxEventCallback can be implemented in the user file.
   */
}
 8004654:	bf00      	nop
 8004656:	370c      	adds	r7, #12
 8004658:	46bd      	mov	sp, r7
 800465a:	bc80      	pop	{r7}
 800465c:	4770      	bx	lr

0800465e <UART_WaitOnFlagUntilTimeout>:
  * @param  Timeout Timeout duration
  * @retval HAL status
  */
static HAL_StatusTypeDef UART_WaitOnFlagUntilTimeout(UART_HandleTypeDef *huart, uint32_t Flag, FlagStatus Status,
                                                     uint32_t Tickstart, uint32_t Timeout)
{
 800465e:	b580      	push	{r7, lr}
 8004660:	b086      	sub	sp, #24
 8004662:	af00      	add	r7, sp, #0
 8004664:	60f8      	str	r0, [r7, #12]
 8004666:	60b9      	str	r1, [r7, #8]
 8004668:	603b      	str	r3, [r7, #0]
 800466a:	4613      	mov	r3, r2
 800466c:	71fb      	strb	r3, [r7, #7]
  /* Wait until flag is set */
  while ((__HAL_UART_GET_FLAG(huart, Flag) ? SET : RESET) == Status)
 800466e:	e03b      	b.n	80046e8 <UART_WaitOnFlagUntilTimeout+0x8a>
  {
    /* Check for the Timeout */
    if (Timeout != HAL_MAX_DELAY)
 8004670:	6a3b      	ldr	r3, [r7, #32]
 8004672:	f1b3 3fff 	cmp.w	r3, #4294967295
 8004676:	d037      	beq.n	80046e8 <UART_WaitOnFlagUntilTimeout+0x8a>
    {
      if (((HAL_GetTick() - Tickstart) > Timeout) || (Timeout == 0U))
 8004678:	f7fd fd20 	bl	80020bc <HAL_GetTick>
 800467c:	4602      	mov	r2, r0
 800467e:	683b      	ldr	r3, [r7, #0]
 8004680:	1ad3      	subs	r3, r2, r3
 8004682:	6a3a      	ldr	r2, [r7, #32]
 8004684:	429a      	cmp	r2, r3
 8004686:	d302      	bcc.n	800468e <UART_WaitOnFlagUntilTimeout+0x30>
 8004688:	6a3b      	ldr	r3, [r7, #32]
 800468a:	2b00      	cmp	r3, #0
 800468c:	d101      	bne.n	8004692 <UART_WaitOnFlagUntilTimeout+0x34>
      {

        return HAL_TIMEOUT;
 800468e:	2303      	movs	r3, #3
 8004690:	e03a      	b.n	8004708 <UART_WaitOnFlagUntilTimeout+0xaa>
      }

      if ((READ_BIT(huart->Instance->CR1, USART_CR1_RE) != 0U) && (Flag != UART_FLAG_TXE) && (Flag != UART_FLAG_TC))
 8004692:	68fb      	ldr	r3, [r7, #12]
 8004694:	681b      	ldr	r3, [r3, #0]
 8004696:	68db      	ldr	r3, [r3, #12]
 8004698:	f003 0304 	and.w	r3, r3, #4
 800469c:	2b00      	cmp	r3, #0
 800469e:	d023      	beq.n	80046e8 <UART_WaitOnFlagUntilTimeout+0x8a>
 80046a0:	68bb      	ldr	r3, [r7, #8]
 80046a2:	2b80      	cmp	r3, #128	@ 0x80
 80046a4:	d020      	beq.n	80046e8 <UART_WaitOnFlagUntilTimeout+0x8a>
 80046a6:	68bb      	ldr	r3, [r7, #8]
 80046a8:	2b40      	cmp	r3, #64	@ 0x40
 80046aa:	d01d      	beq.n	80046e8 <UART_WaitOnFlagUntilTimeout+0x8a>
      {
        if (__HAL_UART_GET_FLAG(huart, UART_FLAG_ORE) == SET)
 80046ac:	68fb      	ldr	r3, [r7, #12]
 80046ae:	681b      	ldr	r3, [r3, #0]
 80046b0:	681b      	ldr	r3, [r3, #0]
 80046b2:	f003 0308 	and.w	r3, r3, #8
 80046b6:	2b08      	cmp	r3, #8
 80046b8:	d116      	bne.n	80046e8 <UART_WaitOnFlagUntilTimeout+0x8a>
        {
          /* Clear Overrun Error flag*/
          __HAL_UART_CLEAR_OREFLAG(huart);
 80046ba:	2300      	movs	r3, #0
 80046bc:	617b      	str	r3, [r7, #20]
 80046be:	68fb      	ldr	r3, [r7, #12]
 80046c0:	681b      	ldr	r3, [r3, #0]
 80046c2:	681b      	ldr	r3, [r3, #0]
 80046c4:	617b      	str	r3, [r7, #20]
 80046c6:	68fb      	ldr	r3, [r7, #12]
 80046c8:	681b      	ldr	r3, [r3, #0]
 80046ca:	685b      	ldr	r3, [r3, #4]
 80046cc:	617b      	str	r3, [r7, #20]
 80046ce:	697b      	ldr	r3, [r7, #20]

          /* Blocking error : transfer is aborted
          Set the UART state ready to be able to start again the process,
          Disable Rx Interrupts if ongoing */
          UART_EndRxTransfer(huart);
 80046d0:	68f8      	ldr	r0, [r7, #12]
 80046d2:	f000 f856 	bl	8004782 <UART_EndRxTransfer>

          huart->ErrorCode = HAL_UART_ERROR_ORE;
 80046d6:	68fb      	ldr	r3, [r7, #12]
 80046d8:	2208      	movs	r2, #8
 80046da:	645a      	str	r2, [r3, #68]	@ 0x44

          /* Process Unlocked */
          __HAL_UNLOCK(huart);
 80046dc:	68fb      	ldr	r3, [r7, #12]
 80046de:	2200      	movs	r2, #0
 80046e0:	f883 2040 	strb.w	r2, [r3, #64]	@ 0x40

          return HAL_ERROR;
 80046e4:	2301      	movs	r3, #1
 80046e6:	e00f      	b.n	8004708 <UART_WaitOnFlagUntilTimeout+0xaa>
  while ((__HAL_UART_GET_FLAG(huart, Flag) ? SET : RESET) == Status)
 80046e8:	68fb      	ldr	r3, [r7, #12]
 80046ea:	681b      	ldr	r3, [r3, #0]
 80046ec:	681a      	ldr	r2, [r3, #0]
 80046ee:	68bb      	ldr	r3, [r7, #8]
 80046f0:	4013      	ands	r3, r2
 80046f2:	68ba      	ldr	r2, [r7, #8]
 80046f4:	429a      	cmp	r2, r3
 80046f6:	bf0c      	ite	eq
 80046f8:	2301      	moveq	r3, #1
 80046fa:	2300      	movne	r3, #0
 80046fc:	b2db      	uxtb	r3, r3
 80046fe:	461a      	mov	r2, r3
 8004700:	79fb      	ldrb	r3, [r7, #7]
 8004702:	429a      	cmp	r2, r3
 8004704:	d0b4      	beq.n	8004670 <UART_WaitOnFlagUntilTimeout+0x12>
        }
      }
    }
  }
  return HAL_OK;
 8004706:	2300      	movs	r3, #0
}
 8004708:	4618      	mov	r0, r3
 800470a:	3718      	adds	r7, #24
 800470c:	46bd      	mov	sp, r7
 800470e:	bd80      	pop	{r7, pc}

08004710 <UART_Start_Receive_IT>:
  * @param  pData Pointer to data buffer (u8 or u16 data elements).
  * @param  Size  Amount of data elements (u8 or u16) to be received.
  * @retval HAL status
  */
HAL_StatusTypeDef UART_Start_Receive_IT(UART_HandleTypeDef *huart, uint8_t *pData, uint16_t Size)
{
 8004710:	b480      	push	{r7}
 8004712:	b085      	sub	sp, #20
 8004714:	af00      	add	r7, sp, #0
 8004716:	60f8      	str	r0, [r7, #12]
 8004718:	60b9      	str	r1, [r7, #8]
 800471a:	4613      	mov	r3, r2
 800471c:	80fb      	strh	r3, [r7, #6]
  huart->pRxBuffPtr = pData;
 800471e:	68fb      	ldr	r3, [r7, #12]
 8004720:	68ba      	ldr	r2, [r7, #8]
 8004722:	629a      	str	r2, [r3, #40]	@ 0x28
  huart->RxXferSize = Size;
 8004724:	68fb      	ldr	r3, [r7, #12]
 8004726:	88fa      	ldrh	r2, [r7, #6]
 8004728:	859a      	strh	r2, [r3, #44]	@ 0x2c
  huart->RxXferCount = Size;
 800472a:	68fb      	ldr	r3, [r7, #12]
 800472c:	88fa      	ldrh	r2, [r7, #6]
 800472e:	85da      	strh	r2, [r3, #46]	@ 0x2e

  huart->ErrorCode = HAL_UART_ERROR_NONE;
 8004730:	68fb      	ldr	r3, [r7, #12]
 8004732:	2200      	movs	r2, #0
 8004734:	645a      	str	r2, [r3, #68]	@ 0x44
  huart->RxState = HAL_UART_STATE_BUSY_RX;
 8004736:	68fb      	ldr	r3, [r7, #12]
 8004738:	2222      	movs	r2, #34	@ 0x22
 800473a:	f883 2042 	strb.w	r2, [r3, #66]	@ 0x42

  if (huart->Init.Parity != UART_PARITY_NONE)
 800473e:	68fb      	ldr	r3, [r7, #12]
 8004740:	691b      	ldr	r3, [r3, #16]
 8004742:	2b00      	cmp	r3, #0
 8004744:	d007      	beq.n	8004756 <UART_Start_Receive_IT+0x46>
  {
    /* Enable the UART Parity Error Interrupt */
    __HAL_UART_ENABLE_IT(huart, UART_IT_PE);
 8004746:	68fb      	ldr	r3, [r7, #12]
 8004748:	681b      	ldr	r3, [r3, #0]
 800474a:	68da      	ldr	r2, [r3, #12]
 800474c:	68fb      	ldr	r3, [r7, #12]
 800474e:	681b      	ldr	r3, [r3, #0]
 8004750:	f442 7280 	orr.w	r2, r2, #256	@ 0x100
 8004754:	60da      	str	r2, [r3, #12]
  }

  /* Enable the UART Error Interrupt: (Frame error, noise error, overrun error) */
  __HAL_UART_ENABLE_IT(huart, UART_IT_ERR);
 8004756:	68fb      	ldr	r3, [r7, #12]
 8004758:	681b      	ldr	r3, [r3, #0]
 800475a:	695a      	ldr	r2, [r3, #20]
 800475c:	68fb      	ldr	r3, [r7, #12]
 800475e:	681b      	ldr	r3, [r3, #0]
 8004760:	f042 0201 	orr.w	r2, r2, #1
 8004764:	615a      	str	r2, [r3, #20]

  /* Enable the UART Data Register not empty Interrupt */
  __HAL_UART_ENABLE_IT(huart, UART_IT_RXNE);
 8004766:	68fb      	ldr	r3, [r7, #12]
 8004768:	681b      	ldr	r3, [r3, #0]
 800476a:	68da      	ldr	r2, [r3, #12]
 800476c:	68fb      	ldr	r3, [r7, #12]
 800476e:	681b      	ldr	r3, [r3, #0]
 8004770:	f042 0220 	orr.w	r2, r2, #32
 8004774:	60da      	str	r2, [r3, #12]

  return HAL_OK;
 8004776:	2300      	movs	r3, #0
}
 8004778:	4618      	mov	r0, r3
 800477a:	3714      	adds	r7, #20
 800477c:	46bd      	mov	sp, r7
 800477e:	bc80      	pop	{r7}
 8004780:	4770      	bx	lr

08004782 <UART_EndRxTransfer>:
  * @brief  End ongoing Rx transfer on UART peripheral (following error detection or Reception completion).
  * @param  huart UART handle.
  * @retval None
  */
static void UART_EndRxTransfer(UART_HandleTypeDef *huart)
{
 8004782:	b480      	push	{r7}
 8004784:	b095      	sub	sp, #84	@ 0x54
 8004786:	af00      	add	r7, sp, #0
 8004788:	6078      	str	r0, [r7, #4]
  /* Disable RXNE, PE and ERR (Frame error, noise error, overrun error) interrupts */
  ATOMIC_CLEAR_BIT(huart->Instance->CR1, (USART_CR1_RXNEIE | USART_CR1_PEIE));
 800478a:	687b      	ldr	r3, [r7, #4]
 800478c:	681b      	ldr	r3, [r3, #0]
 800478e:	330c      	adds	r3, #12
 8004790:	637b      	str	r3, [r7, #52]	@ 0x34
   __ASM volatile ("ldrex %0, %1" : "=r" (result) : "Q" (*addr) );
 8004792:	6b7b      	ldr	r3, [r7, #52]	@ 0x34
 8004794:	e853 3f00 	ldrex	r3, [r3]
 8004798:	633b      	str	r3, [r7, #48]	@ 0x30
   return(result);
 800479a:	6b3b      	ldr	r3, [r7, #48]	@ 0x30
 800479c:	f423 7390 	bic.w	r3, r3, #288	@ 0x120
 80047a0:	64fb      	str	r3, [r7, #76]	@ 0x4c
 80047a2:	687b      	ldr	r3, [r7, #4]
 80047a4:	681b      	ldr	r3, [r3, #0]
 80047a6:	330c      	adds	r3, #12
 80047a8:	6cfa      	ldr	r2, [r7, #76]	@ 0x4c
 80047aa:	643a      	str	r2, [r7, #64]	@ 0x40
 80047ac:	63fb      	str	r3, [r7, #60]	@ 0x3c
   __ASM volatile ("strex %0, %2, %1" : "=&r" (result), "=Q" (*addr) : "r" (value) );
 80047ae:	6bf9      	ldr	r1, [r7, #60]	@ 0x3c
 80047b0:	6c3a      	ldr	r2, [r7, #64]	@ 0x40
 80047b2:	e841 2300 	strex	r3, r2, [r1]
 80047b6:	63bb      	str	r3, [r7, #56]	@ 0x38
   return(result);
 80047b8:	6bbb      	ldr	r3, [r7, #56]	@ 0x38
 80047ba:	2b00      	cmp	r3, #0
 80047bc:	d1e5      	bne.n	800478a <UART_EndRxTransfer+0x8>
  ATOMIC_CLEAR_BIT(huart->Instance->CR3, USART_CR3_EIE);
 80047be:	687b      	ldr	r3, [r7, #4]
 80047c0:	681b      	ldr	r3, [r3, #0]
 80047c2:	3314      	adds	r3, #20
 80047c4:	623b      	str	r3, [r7, #32]
   __ASM volatile ("ldrex %0, %1" : "=r" (result) : "Q" (*addr) );
 80047c6:	6a3b      	ldr	r3, [r7, #32]
 80047c8:	e853 3f00 	ldrex	r3, [r3]
 80047cc:	61fb      	str	r3, [r7, #28]
   return(result);
 80047ce:	69fb      	ldr	r3, [r7, #28]
 80047d0:	f023 0301 	bic.w	r3, r3, #1
 80047d4:	64bb      	str	r3, [r7, #72]	@ 0x48
 80047d6:	687b      	ldr	r3, [r7, #4]
 80047d8:	681b      	ldr	r3, [r3, #0]
 80047da:	3314      	adds	r3, #20
 80047dc:	6cba      	ldr	r2, [r7, #72]	@ 0x48
 80047de:	62fa      	str	r2, [r7, #44]	@ 0x2c
 80047e0:	62bb      	str	r3, [r7, #40]	@ 0x28
   __ASM volatile ("strex %0, %2, %1" : "=&r" (result), "=Q" (*addr) : "r" (value) );
 80047e2:	6ab9      	ldr	r1, [r7, #40]	@ 0x28
 80047e4:	6afa      	ldr	r2, [r7, #44]	@ 0x2c
 80047e6:	e841 2300 	strex	r3, r2, [r1]
 80047ea:	627b      	str	r3, [r7, #36]	@ 0x24
   return(result);
 80047ec:	6a7b      	ldr	r3, [r7, #36]	@ 0x24
 80047ee:	2b00      	cmp	r3, #0
 80047f0:	d1e5      	bne.n	80047be <UART_EndRxTransfer+0x3c>

  /* In case of reception waiting for IDLE event, disable also the IDLE IE interrupt source */
  if (huart->ReceptionType == HAL_UART_RECEPTION_TOIDLE)
 80047f2:	687b      	ldr	r3, [r7, #4]
 80047f4:	6b1b      	ldr	r3, [r3, #48]	@ 0x30
 80047f6:	2b01      	cmp	r3, #1
 80047f8:	d119      	bne.n	800482e <UART_EndRxTransfer+0xac>
  {
    ATOMIC_CLEAR_BIT(huart->Instance->CR1, USART_CR1_IDLEIE);
 80047fa:	687b      	ldr	r3, [r7, #4]
 80047fc:	681b      	ldr	r3, [r3, #0]
 80047fe:	330c      	adds	r3, #12
 8004800:	60fb      	str	r3, [r7, #12]
   __ASM volatile ("ldrex %0, %1" : "=r" (result) : "Q" (*addr) );
 8004802:	68fb      	ldr	r3, [r7, #12]
 8004804:	e853 3f00 	ldrex	r3, [r3]
 8004808:	60bb      	str	r3, [r7, #8]
   return(result);
 800480a:	68bb      	ldr	r3, [r7, #8]
 800480c:	f023 0310 	bic.w	r3, r3, #16
 8004810:	647b      	str	r3, [r7, #68]	@ 0x44
 8004812:	687b      	ldr	r3, [r7, #4]
 8004814:	681b      	ldr	r3, [r3, #0]
 8004816:	330c      	adds	r3, #12
 8004818:	6c7a      	ldr	r2, [r7, #68]	@ 0x44
 800481a:	61ba      	str	r2, [r7, #24]
 800481c:	617b      	str	r3, [r7, #20]
   __ASM volatile ("strex %0, %2, %1" : "=&r" (result), "=Q" (*addr) : "r" (value) );
 800481e:	6979      	ldr	r1, [r7, #20]
 8004820:	69ba      	ldr	r2, [r7, #24]
 8004822:	e841 2300 	strex	r3, r2, [r1]
 8004826:	613b      	str	r3, [r7, #16]
   return(result);
 8004828:	693b      	ldr	r3, [r7, #16]
 800482a:	2b00      	cmp	r3, #0
 800482c:	d1e5      	bne.n	80047fa <UART_EndRxTransfer+0x78>
  }

  /* At end of Rx process, restore huart->RxState to Ready */
  huart->RxState = HAL_UART_STATE_READY;
 800482e:	687b      	ldr	r3, [r7, #4]
 8004830:	2220      	movs	r2, #32
 8004832:	f883 2042 	strb.w	r2, [r3, #66]	@ 0x42
  huart->ReceptionType = HAL_UART_RECEPTION_STANDARD;
 8004836:	687b      	ldr	r3, [r7, #4]
 8004838:	2200      	movs	r2, #0
 800483a:	631a      	str	r2, [r3, #48]	@ 0x30
}
 800483c:	bf00      	nop
 800483e:	3754      	adds	r7, #84	@ 0x54
 8004840:	46bd      	mov	sp, r7
 8004842:	bc80      	pop	{r7}
 8004844:	4770      	bx	lr

08004846 <UART_DMAAbortOnError>:
  * @param  hdma  Pointer to a DMA_HandleTypeDef structure that contains
  *               the configuration information for the specified DMA module.
  * @retval None
  */
static void UART_DMAAbortOnError(DMA_HandleTypeDef *hdma)
{
 8004846:	b580      	push	{r7, lr}
 8004848:	b084      	sub	sp, #16
 800484a:	af00      	add	r7, sp, #0
 800484c:	6078      	str	r0, [r7, #4]
  UART_HandleTypeDef *huart = (UART_HandleTypeDef *)((DMA_HandleTypeDef *)hdma)->Parent;
 800484e:	687b      	ldr	r3, [r7, #4]
 8004850:	6a5b      	ldr	r3, [r3, #36]	@ 0x24
 8004852:	60fb      	str	r3, [r7, #12]
  huart->RxXferCount = 0x00U;
 8004854:	68fb      	ldr	r3, [r7, #12]
 8004856:	2200      	movs	r2, #0
 8004858:	85da      	strh	r2, [r3, #46]	@ 0x2e
  huart->TxXferCount = 0x00U;
 800485a:	68fb      	ldr	r3, [r7, #12]
 800485c:	2200      	movs	r2, #0
 800485e:	84da      	strh	r2, [r3, #38]	@ 0x26
#if (USE_HAL_UART_REGISTER_CALLBACKS == 1)
  /*Call registered error callback*/
  huart->ErrorCallback(huart);
#else
  /*Call legacy weak error callback*/
  HAL_UART_ErrorCallback(huart);
 8004860:	68f8      	ldr	r0, [r7, #12]
 8004862:	f7ff fee8 	bl	8004636 <HAL_UART_ErrorCallback>
#endif /* USE_HAL_UART_REGISTER_CALLBACKS */
}
 8004866:	bf00      	nop
 8004868:	3710      	adds	r7, #16
 800486a:	46bd      	mov	sp, r7
 800486c:	bd80      	pop	{r7, pc}

0800486e <UART_Transmit_IT>:
  * @param  huart  Pointer to a UART_HandleTypeDef structure that contains
  *                the configuration information for the specified UART module.
  * @retval HAL status
  */
static HAL_StatusTypeDef UART_Transmit_IT(UART_HandleTypeDef *huart)
{
 800486e:	b480      	push	{r7}
 8004870:	b085      	sub	sp, #20
 8004872:	af00      	add	r7, sp, #0
 8004874:	6078      	str	r0, [r7, #4]
  const uint16_t *tmp;

  /* Check that a Tx process is ongoing */
  if (huart->gState == HAL_UART_STATE_BUSY_TX)
 8004876:	687b      	ldr	r3, [r7, #4]
 8004878:	f893 3041 	ldrb.w	r3, [r3, #65]	@ 0x41
 800487c:	b2db      	uxtb	r3, r3
 800487e:	2b21      	cmp	r3, #33	@ 0x21
 8004880:	d13e      	bne.n	8004900 <UART_Transmit_IT+0x92>
  {
    if ((huart->Init.WordLength == UART_WORDLENGTH_9B) && (huart->Init.Parity == UART_PARITY_NONE))
 8004882:	687b      	ldr	r3, [r7, #4]
 8004884:	689b      	ldr	r3, [r3, #8]
 8004886:	f5b3 5f80 	cmp.w	r3, #4096	@ 0x1000
 800488a:	d114      	bne.n	80048b6 <UART_Transmit_IT+0x48>
 800488c:	687b      	ldr	r3, [r7, #4]
 800488e:	691b      	ldr	r3, [r3, #16]
 8004890:	2b00      	cmp	r3, #0
 8004892:	d110      	bne.n	80048b6 <UART_Transmit_IT+0x48>
    {
      tmp = (const uint16_t *) huart->pTxBuffPtr;
 8004894:	687b      	ldr	r3, [r7, #4]
 8004896:	6a1b      	ldr	r3, [r3, #32]
 8004898:	60fb      	str	r3, [r7, #12]
      huart->Instance->DR = (uint16_t)(*tmp & (uint16_t)0x01FF);
 800489a:	68fb      	ldr	r3, [r7, #12]
 800489c:	881b      	ldrh	r3, [r3, #0]
 800489e:	461a      	mov	r2, r3
 80048a0:	687b      	ldr	r3, [r7, #4]
 80048a2:	681b      	ldr	r3, [r3, #0]
 80048a4:	f3c2 0208 	ubfx	r2, r2, #0, #9
 80048a8:	605a      	str	r2, [r3, #4]
      huart->pTxBuffPtr += 2U;
 80048aa:	687b      	ldr	r3, [r7, #4]
 80048ac:	6a1b      	ldr	r3, [r3, #32]
 80048ae:	1c9a      	adds	r2, r3, #2
 80048b0:	687b      	ldr	r3, [r7, #4]
 80048b2:	621a      	str	r2, [r3, #32]
 80048b4:	e008      	b.n	80048c8 <UART_Transmit_IT+0x5a>
    }
    else
    {
      huart->Instance->DR = (uint8_t)(*huart->pTxBuffPtr++ & (uint8_t)0x00FF);
 80048b6:	687b      	ldr	r3, [r7, #4]
 80048b8:	6a1b      	ldr	r3, [r3, #32]
 80048ba:	1c59      	adds	r1, r3, #1
 80048bc:	687a      	ldr	r2, [r7, #4]
 80048be:	6211      	str	r1, [r2, #32]
 80048c0:	781a      	ldrb	r2, [r3, #0]
 80048c2:	687b      	ldr	r3, [r7, #4]
 80048c4:	681b      	ldr	r3, [r3, #0]
 80048c6:	605a      	str	r2, [r3, #4]
    }

    if (--huart->TxXferCount == 0U)
 80048c8:	687b      	ldr	r3, [r7, #4]
 80048ca:	8cdb      	ldrh	r3, [r3, #38]	@ 0x26
 80048cc:	b29b      	uxth	r3, r3
 80048ce:	3b01      	subs	r3, #1
 80048d0:	b29b      	uxth	r3, r3
 80048d2:	687a      	ldr	r2, [r7, #4]
 80048d4:	4619      	mov	r1, r3
 80048d6:	84d1      	strh	r1, [r2, #38]	@ 0x26
 80048d8:	2b00      	cmp	r3, #0
 80048da:	d10f      	bne.n	80048fc <UART_Transmit_IT+0x8e>
    {
      /* Disable the UART Transmit Data Register Empty Interrupt */
      __HAL_UART_DISABLE_IT(huart, UART_IT_TXE);
 80048dc:	687b      	ldr	r3, [r7, #4]
 80048de:	681b      	ldr	r3, [r3, #0]
 80048e0:	68da      	ldr	r2, [r3, #12]
 80048e2:	687b      	ldr	r3, [r7, #4]
 80048e4:	681b      	ldr	r3, [r3, #0]
 80048e6:	f022 0280 	bic.w	r2, r2, #128	@ 0x80
 80048ea:	60da      	str	r2, [r3, #12]

      /* Enable the UART Transmit Complete Interrupt */
      __HAL_UART_ENABLE_IT(huart, UART_IT_TC);
 80048ec:	687b      	ldr	r3, [r7, #4]
 80048ee:	681b      	ldr	r3, [r3, #0]
 80048f0:	68da      	ldr	r2, [r3, #12]
 80048f2:	687b      	ldr	r3, [r7, #4]
 80048f4:	681b      	ldr	r3, [r3, #0]
 80048f6:	f042 0240 	orr.w	r2, r2, #64	@ 0x40
 80048fa:	60da      	str	r2, [r3, #12]
    }
    return HAL_OK;
 80048fc:	2300      	movs	r3, #0
 80048fe:	e000      	b.n	8004902 <UART_Transmit_IT+0x94>
  }
  else
  {
    return HAL_BUSY;
 8004900:	2302      	movs	r3, #2
  }
}
 8004902:	4618      	mov	r0, r3
 8004904:	3714      	adds	r7, #20
 8004906:	46bd      	mov	sp, r7
 8004908:	bc80      	pop	{r7}
 800490a:	4770      	bx	lr

0800490c <UART_EndTransmit_IT>:
  * @param  huart  Pointer to a UART_HandleTypeDef structure that contains
  *                the configuration information for the specified UART module.
  * @retval HAL status
  */
static HAL_StatusTypeDef UART_EndTransmit_IT(UART_HandleTypeDef *huart)
{
 800490c:	b580      	push	{r7, lr}
 800490e:	b082      	sub	sp, #8
 8004910:	af00      	add	r7, sp, #0
 8004912:	6078      	str	r0, [r7, #4]
  /* Disable the UART Transmit Complete Interrupt */
  __HAL_UART_DISABLE_IT(huart, UART_IT_TC);
 8004914:	687b      	ldr	r3, [r7, #4]
 8004916:	681b      	ldr	r3, [r3, #0]
 8004918:	68da      	ldr	r2, [r3, #12]
 800491a:	687b      	ldr	r3, [r7, #4]
 800491c:	681b      	ldr	r3, [r3, #0]
 800491e:	f022 0240 	bic.w	r2, r2, #64	@ 0x40
 8004922:	60da      	str	r2, [r3, #12]

  /* Tx process is ended, restore huart->gState to Ready */
  huart->gState = HAL_UART_STATE_READY;
 8004924:	687b      	ldr	r3, [r7, #4]
 8004926:	2220      	movs	r2, #32
 8004928:	f883 2041 	strb.w	r2, [r3, #65]	@ 0x41
#if (USE_HAL_UART_REGISTER_CALLBACKS == 1)
  /*Call registered Tx complete callback*/
  huart->TxCpltCallback(huart);
#else
  /*Call legacy weak Tx complete callback*/
  HAL_UART_TxCpltCallback(huart);
 800492c:	6878      	ldr	r0, [r7, #4]
 800492e:	f7ff fe79 	bl	8004624 <HAL_UART_TxCpltCallback>
#endif /* USE_HAL_UART_REGISTER_CALLBACKS */

  return HAL_OK;
 8004932:	2300      	movs	r3, #0
}
 8004934:	4618      	mov	r0, r3
 8004936:	3708      	adds	r7, #8
 8004938:	46bd      	mov	sp, r7
 800493a:	bd80      	pop	{r7, pc}

0800493c <UART_Receive_IT>:
  * @param  huart  Pointer to a UART_HandleTypeDef structure that contains
  *                the configuration information for the specified UART module.
  * @retval HAL status
  */
static HAL_StatusTypeDef UART_Receive_IT(UART_HandleTypeDef *huart)
{
 800493c:	b580      	push	{r7, lr}
 800493e:	b08c      	sub	sp, #48	@ 0x30
 8004940:	af00      	add	r7, sp, #0
 8004942:	6078      	str	r0, [r7, #4]
  uint8_t  *pdata8bits;
  uint16_t *pdata16bits;

  /* Check that a Rx process is ongoing */
  if (huart->RxState == HAL_UART_STATE_BUSY_RX)
 8004944:	687b      	ldr	r3, [r7, #4]
 8004946:	f893 3042 	ldrb.w	r3, [r3, #66]	@ 0x42
 800494a:	b2db      	uxtb	r3, r3
 800494c:	2b22      	cmp	r3, #34	@ 0x22
 800494e:	f040 80ae 	bne.w	8004aae <UART_Receive_IT+0x172>
  {
    if ((huart->Init.WordLength == UART_WORDLENGTH_9B) && (huart->Init.Parity == UART_PARITY_NONE))
 8004952:	687b      	ldr	r3, [r7, #4]
 8004954:	689b      	ldr	r3, [r3, #8]
 8004956:	f5b3 5f80 	cmp.w	r3, #4096	@ 0x1000
 800495a:	d117      	bne.n	800498c <UART_Receive_IT+0x50>
 800495c:	687b      	ldr	r3, [r7, #4]
 800495e:	691b      	ldr	r3, [r3, #16]
 8004960:	2b00      	cmp	r3, #0
 8004962:	d113      	bne.n	800498c <UART_Receive_IT+0x50>
    {
      pdata8bits  = NULL;
 8004964:	2300      	movs	r3, #0
 8004966:	62fb      	str	r3, [r7, #44]	@ 0x2c
      pdata16bits = (uint16_t *) huart->pRxBuffPtr;
 8004968:	687b      	ldr	r3, [r7, #4]
 800496a:	6a9b      	ldr	r3, [r3, #40]	@ 0x28
 800496c:	62bb      	str	r3, [r7, #40]	@ 0x28
      *pdata16bits = (uint16_t)(huart->Instance->DR & (uint16_t)0x01FF);
 800496e:	687b      	ldr	r3, [r7, #4]
 8004970:	681b      	ldr	r3, [r3, #0]
 8004972:	685b      	ldr	r3, [r3, #4]
 8004974:	b29b      	uxth	r3, r3
 8004976:	f3c3 0308 	ubfx	r3, r3, #0, #9
 800497a:	b29a      	uxth	r2, r3
 800497c:	6abb      	ldr	r3, [r7, #40]	@ 0x28
 800497e:	801a      	strh	r2, [r3, #0]
      huart->pRxBuffPtr += 2U;
 8004980:	687b      	ldr	r3, [r7, #4]
 8004982:	6a9b      	ldr	r3, [r3, #40]	@ 0x28
 8004984:	1c9a      	adds	r2, r3, #2
 8004986:	687b      	ldr	r3, [r7, #4]
 8004988:	629a      	str	r2, [r3, #40]	@ 0x28
 800498a:	e026      	b.n	80049da <UART_Receive_IT+0x9e>
    }
    else
    {
      pdata8bits = (uint8_t *) huart->pRxBuffPtr;
 800498c:	687b      	ldr	r3, [r7, #4]
 800498e:	6a9b      	ldr	r3, [r3, #40]	@ 0x28
 8004990:	62fb      	str	r3, [r7, #44]	@ 0x2c
      pdata16bits  = NULL;
 8004992:	2300      	movs	r3, #0
 8004994:	62bb      	str	r3, [r7, #40]	@ 0x28

      if ((huart->Init.WordLength == UART_WORDLENGTH_9B) || ((huart->Init.WordLength == UART_WORDLENGTH_8B) && (huart->Init.Parity == UART_PARITY_NONE)))
 8004996:	687b      	ldr	r3, [r7, #4]
 8004998:	689b      	ldr	r3, [r3, #8]
 800499a:	f5b3 5f80 	cmp.w	r3, #4096	@ 0x1000
 800499e:	d007      	beq.n	80049b0 <UART_Receive_IT+0x74>
 80049a0:	687b      	ldr	r3, [r7, #4]
 80049a2:	689b      	ldr	r3, [r3, #8]
 80049a4:	2b00      	cmp	r3, #0
 80049a6:	d10a      	bne.n	80049be <UART_Receive_IT+0x82>
 80049a8:	687b      	ldr	r3, [r7, #4]
 80049aa:	691b      	ldr	r3, [r3, #16]
 80049ac:	2b00      	cmp	r3, #0
 80049ae:	d106      	bne.n	80049be <UART_Receive_IT+0x82>
      {
        *pdata8bits = (uint8_t)(huart->Instance->DR & (uint8_t)0x00FF);
 80049b0:	687b      	ldr	r3, [r7, #4]
 80049b2:	681b      	ldr	r3, [r3, #0]
 80049b4:	685b      	ldr	r3, [r3, #4]
 80049b6:	b2da      	uxtb	r2, r3
 80049b8:	6afb      	ldr	r3, [r7, #44]	@ 0x2c
 80049ba:	701a      	strb	r2, [r3, #0]
 80049bc:	e008      	b.n	80049d0 <UART_Receive_IT+0x94>
      }
      else
      {
        *pdata8bits = (uint8_t)(huart->Instance->DR & (uint8_t)0x007F);
 80049be:	687b      	ldr	r3, [r7, #4]
 80049c0:	681b      	ldr	r3, [r3, #0]
 80049c2:	685b      	ldr	r3, [r3, #4]
 80049c4:	b2db      	uxtb	r3, r3
 80049c6:	f003 037f 	and.w	r3, r3, #127	@ 0x7f
 80049ca:	b2da      	uxtb	r2, r3
 80049cc:	6afb      	ldr	r3, [r7, #44]	@ 0x2c
 80049ce:	701a      	strb	r2, [r3, #0]
      }
      huart->pRxBuffPtr += 1U;
 80049d0:	687b      	ldr	r3, [r7, #4]
 80049d2:	6a9b      	ldr	r3, [r3, #40]	@ 0x28
 80049d4:	1c5a      	adds	r2, r3, #1
 80049d6:	687b      	ldr	r3, [r7, #4]
 80049d8:	629a      	str	r2, [r3, #40]	@ 0x28
    }

    if (--huart->RxXferCount == 0U)
 80049da:	687b      	ldr	r3, [r7, #4]
 80049dc:	8ddb      	ldrh	r3, [r3, #46]	@ 0x2e
 80049de:	b29b      	uxth	r3, r3
 80049e0:	3b01      	subs	r3, #1
 80049e2:	b29b      	uxth	r3, r3
 80049e4:	687a      	ldr	r2, [r7, #4]
 80049e6:	4619      	mov	r1, r3
 80049e8:	85d1      	strh	r1, [r2, #46]	@ 0x2e
 80049ea:	2b00      	cmp	r3, #0
 80049ec:	d15d      	bne.n	8004aaa <UART_Receive_IT+0x16e>
    {
      /* Disable the UART Data Register not empty Interrupt */
      __HAL_UART_DISABLE_IT(huart, UART_IT_RXNE);
 80049ee:	687b      	ldr	r3, [r7, #4]
 80049f0:	681b      	ldr	r3, [r3, #0]
 80049f2:	68da      	ldr	r2, [r3, #12]
 80049f4:	687b      	ldr	r3, [r7, #4]
 80049f6:	681b      	ldr	r3, [r3, #0]
 80049f8:	f022 0220 	bic.w	r2, r2, #32
 80049fc:	60da      	str	r2, [r3, #12]

      /* Disable the UART Parity Error Interrupt */
      __HAL_UART_DISABLE_IT(huart, UART_IT_PE);
 80049fe:	687b      	ldr	r3, [r7, #4]
 8004a00:	681b      	ldr	r3, [r3, #0]
 8004a02:	68da      	ldr	r2, [r3, #12]
 8004a04:	687b      	ldr	r3, [r7, #4]
 8004a06:	681b      	ldr	r3, [r3, #0]
 8004a08:	f422 7280 	bic.w	r2, r2, #256	@ 0x100
 8004a0c:	60da      	str	r2, [r3, #12]

      /* Disable the UART Error Interrupt: (Frame error, noise error, overrun error) */
      __HAL_UART_DISABLE_IT(huart, UART_IT_ERR);
 8004a0e:	687b      	ldr	r3, [r7, #4]
 8004a10:	681b      	ldr	r3, [r3, #0]
 8004a12:	695a      	ldr	r2, [r3, #20]
 8004a14:	687b      	ldr	r3, [r7, #4]
 8004a16:	681b      	ldr	r3, [r3, #0]
 8004a18:	f022 0201 	bic.w	r2, r2, #1
 8004a1c:	615a      	str	r2, [r3, #20]

      /* Rx process is completed, restore huart->RxState to Ready */
      huart->RxState = HAL_UART_STATE_READY;
 8004a1e:	687b      	ldr	r3, [r7, #4]
 8004a20:	2220      	movs	r2, #32
 8004a22:	f883 2042 	strb.w	r2, [r3, #66]	@ 0x42

      /* Initialize type of RxEvent to Transfer Complete */
      huart->RxEventType = HAL_UART_RXEVENT_TC;
 8004a26:	687b      	ldr	r3, [r7, #4]
 8004a28:	2200      	movs	r2, #0
 8004a2a:	635a      	str	r2, [r3, #52]	@ 0x34

      /* Check current reception Mode :
         If Reception till IDLE event has been selected : */
      if (huart->ReceptionType == HAL_UART_RECEPTION_TOIDLE)
 8004a2c:	687b      	ldr	r3, [r7, #4]
 8004a2e:	6b1b      	ldr	r3, [r3, #48]	@ 0x30
 8004a30:	2b01      	cmp	r3, #1
 8004a32:	d135      	bne.n	8004aa0 <UART_Receive_IT+0x164>
      {
        /* Set reception type to Standard */
        huart->ReceptionType = HAL_UART_RECEPTION_STANDARD;
 8004a34:	687b      	ldr	r3, [r7, #4]
 8004a36:	2200      	movs	r2, #0
 8004a38:	631a      	str	r2, [r3, #48]	@ 0x30

        /* Disable IDLE interrupt */
        ATOMIC_CLEAR_BIT(huart->Instance->CR1, USART_CR1_IDLEIE);
 8004a3a:	687b      	ldr	r3, [r7, #4]
 8004a3c:	681b      	ldr	r3, [r3, #0]
 8004a3e:	330c      	adds	r3, #12
 8004a40:	617b      	str	r3, [r7, #20]
   __ASM volatile ("ldrex %0, %1" : "=r" (result) : "Q" (*addr) );
 8004a42:	697b      	ldr	r3, [r7, #20]
 8004a44:	e853 3f00 	ldrex	r3, [r3]
 8004a48:	613b      	str	r3, [r7, #16]
   return(result);
 8004a4a:	693b      	ldr	r3, [r7, #16]
 8004a4c:	f023 0310 	bic.w	r3, r3, #16
 8004a50:	627b      	str	r3, [r7, #36]	@ 0x24
 8004a52:	687b      	ldr	r3, [r7, #4]
 8004a54:	681b      	ldr	r3, [r3, #0]
 8004a56:	330c      	adds	r3, #12
 8004a58:	6a7a      	ldr	r2, [r7, #36]	@ 0x24
 8004a5a:	623a      	str	r2, [r7, #32]
 8004a5c:	61fb      	str	r3, [r7, #28]
   __ASM volatile ("strex %0, %2, %1" : "=&r" (result), "=Q" (*addr) : "r" (value) );
 8004a5e:	69f9      	ldr	r1, [r7, #28]
 8004a60:	6a3a      	ldr	r2, [r7, #32]
 8004a62:	e841 2300 	strex	r3, r2, [r1]
 8004a66:	61bb      	str	r3, [r7, #24]
   return(result);
 8004a68:	69bb      	ldr	r3, [r7, #24]
 8004a6a:	2b00      	cmp	r3, #0
 8004a6c:	d1e5      	bne.n	8004a3a <UART_Receive_IT+0xfe>

        /* Check if IDLE flag is set */
        if (__HAL_UART_GET_FLAG(huart, UART_FLAG_IDLE))
 8004a6e:	687b      	ldr	r3, [r7, #4]
 8004a70:	681b      	ldr	r3, [r3, #0]
 8004a72:	681b      	ldr	r3, [r3, #0]
 8004a74:	f003 0310 	and.w	r3, r3, #16
 8004a78:	2b10      	cmp	r3, #16
 8004a7a:	d10a      	bne.n	8004a92 <UART_Receive_IT+0x156>
        {
          /* Clear IDLE flag in ISR */
          __HAL_UART_CLEAR_IDLEFLAG(huart);
 8004a7c:	2300      	movs	r3, #0
 8004a7e:	60fb      	str	r3, [r7, #12]
 8004a80:	687b      	ldr	r3, [r7, #4]
 8004a82:	681b      	ldr	r3, [r3, #0]
 8004a84:	681b      	ldr	r3, [r3, #0]
 8004a86:	60fb      	str	r3, [r7, #12]
 8004a88:	687b      	ldr	r3, [r7, #4]
 8004a8a:	681b      	ldr	r3, [r3, #0]
 8004a8c:	685b      	ldr	r3, [r3, #4]
 8004a8e:	60fb      	str	r3, [r7, #12]
 8004a90:	68fb      	ldr	r3, [r7, #12]
#if (USE_HAL_UART_REGISTER_CALLBACKS == 1)
        /*Call registered Rx Event callback*/
        huart->RxEventCallback(huart, huart->RxXferSize);
#else
        /*Call legacy weak Rx Event callback*/
        HAL_UARTEx_RxEventCallback(huart, huart->RxXferSize);
 8004a92:	687b      	ldr	r3, [r7, #4]
 8004a94:	8d9b      	ldrh	r3, [r3, #44]	@ 0x2c
 8004a96:	4619      	mov	r1, r3
 8004a98:	6878      	ldr	r0, [r7, #4]
 8004a9a:	f7ff fdd5 	bl	8004648 <HAL_UARTEx_RxEventCallback>
 8004a9e:	e002      	b.n	8004aa6 <UART_Receive_IT+0x16a>
#if (USE_HAL_UART_REGISTER_CALLBACKS == 1)
        /*Call registered Rx complete callback*/
        huart->RxCpltCallback(huart);
#else
        /*Call legacy weak Rx complete callback*/
        HAL_UART_RxCpltCallback(huart);
 8004aa0:	6878      	ldr	r0, [r7, #4]
 8004aa2:	f7fc fcc9 	bl	8001438 <HAL_UART_RxCpltCallback>
#endif /* USE_HAL_UART_REGISTER_CALLBACKS */
      }

      return HAL_OK;
 8004aa6:	2300      	movs	r3, #0
 8004aa8:	e002      	b.n	8004ab0 <UART_Receive_IT+0x174>
    }
    return HAL_OK;
 8004aaa:	2300      	movs	r3, #0
 8004aac:	e000      	b.n	8004ab0 <UART_Receive_IT+0x174>
  }
  else
  {
    return HAL_BUSY;
 8004aae:	2302      	movs	r3, #2
  }
}
 8004ab0:	4618      	mov	r0, r3
 8004ab2:	3730      	adds	r7, #48	@ 0x30
 8004ab4:	46bd      	mov	sp, r7
 8004ab6:	bd80      	pop	{r7, pc}

08004ab8 <UART_SetConfig>:
  * @param  huart  Pointer to a UART_HandleTypeDef structure that contains
  *                the configuration information for the specified UART module.
  * @retval None
  */
static void UART_SetConfig(UART_HandleTypeDef *huart)
{
 8004ab8:	b580      	push	{r7, lr}
 8004aba:	b084      	sub	sp, #16
 8004abc:	af00      	add	r7, sp, #0
 8004abe:	6078      	str	r0, [r7, #4]
  assert_param(IS_UART_MODE(huart->Init.Mode));

  /*-------------------------- USART CR2 Configuration -----------------------*/
  /* Configure the UART Stop Bits: Set STOP[13:12] bits
     according to huart->Init.StopBits value */
  MODIFY_REG(huart->Instance->CR2, USART_CR2_STOP, huart->Init.StopBits);
 8004ac0:	687b      	ldr	r3, [r7, #4]
 8004ac2:	681b      	ldr	r3, [r3, #0]
 8004ac4:	691b      	ldr	r3, [r3, #16]
 8004ac6:	f423 5140 	bic.w	r1, r3, #12288	@ 0x3000
 8004aca:	687b      	ldr	r3, [r7, #4]
 8004acc:	68da      	ldr	r2, [r3, #12]
 8004ace:	687b      	ldr	r3, [r7, #4]
 8004ad0:	681b      	ldr	r3, [r3, #0]
 8004ad2:	430a      	orrs	r2, r1
 8004ad4:	611a      	str	r2, [r3, #16]
  tmpreg = (uint32_t)huart->Init.WordLength | huart->Init.Parity | huart->Init.Mode | huart->Init.OverSampling;
  MODIFY_REG(huart->Instance->CR1,
             (uint32_t)(USART_CR1_M | USART_CR1_PCE | USART_CR1_PS | USART_CR1_TE | USART_CR1_RE | USART_CR1_OVER8),
             tmpreg);
#else
  tmpreg = (uint32_t)huart->Init.WordLength | huart->Init.Parity | huart->Init.Mode;
 8004ad6:	687b      	ldr	r3, [r7, #4]
 8004ad8:	689a      	ldr	r2, [r3, #8]
 8004ada:	687b      	ldr	r3, [r7, #4]
 8004adc:	691b      	ldr	r3, [r3, #16]
 8004ade:	431a      	orrs	r2, r3
 8004ae0:	687b      	ldr	r3, [r7, #4]
 8004ae2:	695b      	ldr	r3, [r3, #20]
 8004ae4:	4313      	orrs	r3, r2
 8004ae6:	60bb      	str	r3, [r7, #8]
  MODIFY_REG(huart->Instance->CR1,
 8004ae8:	687b      	ldr	r3, [r7, #4]
 8004aea:	681b      	ldr	r3, [r3, #0]
 8004aec:	68db      	ldr	r3, [r3, #12]
 8004aee:	f423 53b0 	bic.w	r3, r3, #5632	@ 0x1600
 8004af2:	f023 030c 	bic.w	r3, r3, #12
 8004af6:	687a      	ldr	r2, [r7, #4]
 8004af8:	6812      	ldr	r2, [r2, #0]
 8004afa:	68b9      	ldr	r1, [r7, #8]
 8004afc:	430b      	orrs	r3, r1
 8004afe:	60d3      	str	r3, [r2, #12]
             tmpreg);
#endif /* USART_CR1_OVER8 */

  /*-------------------------- USART CR3 Configuration -----------------------*/
  /* Configure the UART HFC: Set CTSE and RTSE bits according to huart->Init.HwFlowCtl value */
  MODIFY_REG(huart->Instance->CR3, (USART_CR3_RTSE | USART_CR3_CTSE), huart->Init.HwFlowCtl);
 8004b00:	687b      	ldr	r3, [r7, #4]
 8004b02:	681b      	ldr	r3, [r3, #0]
 8004b04:	695b      	ldr	r3, [r3, #20]
 8004b06:	f423 7140 	bic.w	r1, r3, #768	@ 0x300
 8004b0a:	687b      	ldr	r3, [r7, #4]
 8004b0c:	699a      	ldr	r2, [r3, #24]
 8004b0e:	687b      	ldr	r3, [r7, #4]
 8004b10:	681b      	ldr	r3, [r3, #0]
 8004b12:	430a      	orrs	r2, r1
 8004b14:	615a      	str	r2, [r3, #20]


  if(huart->Instance == USART1)
 8004b16:	687b      	ldr	r3, [r7, #4]
 8004b18:	681b      	ldr	r3, [r3, #0]
 8004b1a:	4a2c      	ldr	r2, [pc, #176]	@ (8004bcc <UART_SetConfig+0x114>)
 8004b1c:	4293      	cmp	r3, r2
 8004b1e:	d103      	bne.n	8004b28 <UART_SetConfig+0x70>
  {
    pclk = HAL_RCC_GetPCLK2Freq();
 8004b20:	f7ff f850 	bl	8003bc4 <HAL_RCC_GetPCLK2Freq>
 8004b24:	60f8      	str	r0, [r7, #12]
 8004b26:	e002      	b.n	8004b2e <UART_SetConfig+0x76>
  }
  else
  {
    pclk = HAL_RCC_GetPCLK1Freq();
 8004b28:	f7ff f838 	bl	8003b9c <HAL_RCC_GetPCLK1Freq>
 8004b2c:	60f8      	str	r0, [r7, #12]
  else
  {
    huart->Instance->BRR = UART_BRR_SAMPLING16(pclk, huart->Init.BaudRate);
  }
#else
  huart->Instance->BRR = UART_BRR_SAMPLING16(pclk, huart->Init.BaudRate);
 8004b2e:	68fa      	ldr	r2, [r7, #12]
 8004b30:	4613      	mov	r3, r2
 8004b32:	009b      	lsls	r3, r3, #2
 8004b34:	4413      	add	r3, r2
 8004b36:	009a      	lsls	r2, r3, #2
 8004b38:	441a      	add	r2, r3
 8004b3a:	687b      	ldr	r3, [r7, #4]
 8004b3c:	685b      	ldr	r3, [r3, #4]
 8004b3e:	009b      	lsls	r3, r3, #2
 8004b40:	fbb2 f3f3 	udiv	r3, r2, r3
 8004b44:	4a22      	ldr	r2, [pc, #136]	@ (8004bd0 <UART_SetConfig+0x118>)
 8004b46:	fba2 2303 	umull	r2, r3, r2, r3
 8004b4a:	095b      	lsrs	r3, r3, #5
 8004b4c:	0119      	lsls	r1, r3, #4
 8004b4e:	68fa      	ldr	r2, [r7, #12]
 8004b50:	4613      	mov	r3, r2
 8004b52:	009b      	lsls	r3, r3, #2
 8004b54:	4413      	add	r3, r2
 8004b56:	009a      	lsls	r2, r3, #2
 8004b58:	441a      	add	r2, r3
 8004b5a:	687b      	ldr	r3, [r7, #4]
 8004b5c:	685b      	ldr	r3, [r3, #4]
 8004b5e:	009b      	lsls	r3, r3, #2
 8004b60:	fbb2 f2f3 	udiv	r2, r2, r3
 8004b64:	4b1a      	ldr	r3, [pc, #104]	@ (8004bd0 <UART_SetConfig+0x118>)
 8004b66:	fba3 0302 	umull	r0, r3, r3, r2
 8004b6a:	095b      	lsrs	r3, r3, #5
 8004b6c:	2064      	movs	r0, #100	@ 0x64
 8004b6e:	fb00 f303 	mul.w	r3, r0, r3
 8004b72:	1ad3      	subs	r3, r2, r3
 8004b74:	011b      	lsls	r3, r3, #4
 8004b76:	3332      	adds	r3, #50	@ 0x32
 8004b78:	4a15      	ldr	r2, [pc, #84]	@ (8004bd0 <UART_SetConfig+0x118>)
 8004b7a:	fba2 2303 	umull	r2, r3, r2, r3
 8004b7e:	095b      	lsrs	r3, r3, #5
 8004b80:	f003 03f0 	and.w	r3, r3, #240	@ 0xf0
 8004b84:	4419      	add	r1, r3
 8004b86:	68fa      	ldr	r2, [r7, #12]
 8004b88:	4613      	mov	r3, r2
 8004b8a:	009b      	lsls	r3, r3, #2
 8004b8c:	4413      	add	r3, r2
 8004b8e:	009a      	lsls	r2, r3, #2
 8004b90:	441a      	add	r2, r3
 8004b92:	687b      	ldr	r3, [r7, #4]
 8004b94:	685b      	ldr	r3, [r3, #4]
 8004b96:	009b      	lsls	r3, r3, #2
 8004b98:	fbb2 f2f3 	udiv	r2, r2, r3
 8004b9c:	4b0c      	ldr	r3, [pc, #48]	@ (8004bd0 <UART_SetConfig+0x118>)
 8004b9e:	fba3 0302 	umull	r0, r3, r3, r2
 8004ba2:	095b      	lsrs	r3, r3, #5
 8004ba4:	2064      	movs	r0, #100	@ 0x64
 8004ba6:	fb00 f303 	mul.w	r3, r0, r3
 8004baa:	1ad3      	subs	r3, r2, r3
 8004bac:	011b      	lsls	r3, r3, #4
 8004bae:	3332      	adds	r3, #50	@ 0x32
 8004bb0:	4a07      	ldr	r2, [pc, #28]	@ (8004bd0 <UART_SetConfig+0x118>)
 8004bb2:	fba2 2303 	umull	r2, r3, r2, r3
 8004bb6:	095b      	lsrs	r3, r3, #5
 8004bb8:	f003 020f 	and.w	r2, r3, #15
 8004bbc:	687b      	ldr	r3, [r7, #4]
 8004bbe:	681b      	ldr	r3, [r3, #0]
 8004bc0:	440a      	add	r2, r1
 8004bc2:	609a      	str	r2, [r3, #8]
#endif /* USART_CR1_OVER8 */
}
 8004bc4:	bf00      	nop
 8004bc6:	3710      	adds	r7, #16
 8004bc8:	46bd      	mov	sp, r7
 8004bca:	bd80      	pop	{r7, pc}
 8004bcc:	40013800 	.word	0x40013800
 8004bd0:	51eb851f 	.word	0x51eb851f

08004bd4 <__cvt>:
 8004bd4:	2b00      	cmp	r3, #0
 8004bd6:	e92d 47f0 	stmdb	sp!, {r4, r5, r6, r7, r8, r9, sl, lr}
 8004bda:	461d      	mov	r5, r3
 8004bdc:	bfbb      	ittet	lt
 8004bde:	f103 4300 	addlt.w	r3, r3, #2147483648	@ 0x80000000
 8004be2:	461d      	movlt	r5, r3
 8004be4:	2300      	movge	r3, #0
 8004be6:	232d      	movlt	r3, #45	@ 0x2d
 8004be8:	b088      	sub	sp, #32
 8004bea:	4614      	mov	r4, r2
 8004bec:	bfb8      	it	lt
 8004bee:	4614      	movlt	r4, r2
 8004bf0:	9a12      	ldr	r2, [sp, #72]	@ 0x48
 8004bf2:	9e10      	ldr	r6, [sp, #64]	@ 0x40
 8004bf4:	7013      	strb	r3, [r2, #0]
 8004bf6:	9b14      	ldr	r3, [sp, #80]	@ 0x50
 8004bf8:	f8dd a04c 	ldr.w	sl, [sp, #76]	@ 0x4c
 8004bfc:	f023 0820 	bic.w	r8, r3, #32
 8004c00:	f1b8 0f46 	cmp.w	r8, #70	@ 0x46
 8004c04:	d005      	beq.n	8004c12 <__cvt+0x3e>
 8004c06:	f1b8 0f45 	cmp.w	r8, #69	@ 0x45
 8004c0a:	d100      	bne.n	8004c0e <__cvt+0x3a>
 8004c0c:	3601      	adds	r6, #1
 8004c0e:	2302      	movs	r3, #2
 8004c10:	e000      	b.n	8004c14 <__cvt+0x40>
 8004c12:	2303      	movs	r3, #3
 8004c14:	aa07      	add	r2, sp, #28
 8004c16:	9204      	str	r2, [sp, #16]
 8004c18:	aa06      	add	r2, sp, #24
 8004c1a:	e9cd a202 	strd	sl, r2, [sp, #8]
 8004c1e:	e9cd 3600 	strd	r3, r6, [sp]
 8004c22:	4622      	mov	r2, r4
 8004c24:	462b      	mov	r3, r5
 8004c26:	f000 fe83 	bl	8005930 <_dtoa_r>
 8004c2a:	f1b8 0f47 	cmp.w	r8, #71	@ 0x47
 8004c2e:	4607      	mov	r7, r0
 8004c30:	d119      	bne.n	8004c66 <__cvt+0x92>
 8004c32:	9b11      	ldr	r3, [sp, #68]	@ 0x44
 8004c34:	07db      	lsls	r3, r3, #31
 8004c36:	d50e      	bpl.n	8004c56 <__cvt+0x82>
 8004c38:	eb00 0906 	add.w	r9, r0, r6
 8004c3c:	2200      	movs	r2, #0
 8004c3e:	2300      	movs	r3, #0
 8004c40:	4620      	mov	r0, r4
 8004c42:	4629      	mov	r1, r5
 8004c44:	f7fb feb0 	bl	80009a8 <__aeabi_dcmpeq>
 8004c48:	b108      	cbz	r0, 8004c4e <__cvt+0x7a>
 8004c4a:	f8cd 901c 	str.w	r9, [sp, #28]
 8004c4e:	2230      	movs	r2, #48	@ 0x30
 8004c50:	9b07      	ldr	r3, [sp, #28]
 8004c52:	454b      	cmp	r3, r9
 8004c54:	d31e      	bcc.n	8004c94 <__cvt+0xc0>
 8004c56:	4638      	mov	r0, r7
 8004c58:	9b07      	ldr	r3, [sp, #28]
 8004c5a:	9a15      	ldr	r2, [sp, #84]	@ 0x54
 8004c5c:	1bdb      	subs	r3, r3, r7
 8004c5e:	6013      	str	r3, [r2, #0]
 8004c60:	b008      	add	sp, #32
 8004c62:	e8bd 87f0 	ldmia.w	sp!, {r4, r5, r6, r7, r8, r9, sl, pc}
 8004c66:	f1b8 0f46 	cmp.w	r8, #70	@ 0x46
 8004c6a:	eb00 0906 	add.w	r9, r0, r6
 8004c6e:	d1e5      	bne.n	8004c3c <__cvt+0x68>
 8004c70:	7803      	ldrb	r3, [r0, #0]
 8004c72:	2b30      	cmp	r3, #48	@ 0x30
 8004c74:	d10a      	bne.n	8004c8c <__cvt+0xb8>
 8004c76:	2200      	movs	r2, #0
 8004c78:	2300      	movs	r3, #0
 8004c7a:	4620      	mov	r0, r4
 8004c7c:	4629      	mov	r1, r5
 8004c7e:	f7fb fe93 	bl	80009a8 <__aeabi_dcmpeq>
 8004c82:	b918      	cbnz	r0, 8004c8c <__cvt+0xb8>
 8004c84:	f1c6 0601 	rsb	r6, r6, #1
 8004c88:	f8ca 6000 	str.w	r6, [sl]
 8004c8c:	f8da 3000 	ldr.w	r3, [sl]
 8004c90:	4499      	add	r9, r3
 8004c92:	e7d3      	b.n	8004c3c <__cvt+0x68>
 8004c94:	1c59      	adds	r1, r3, #1
 8004c96:	9107      	str	r1, [sp, #28]
 8004c98:	701a      	strb	r2, [r3, #0]
 8004c9a:	e7d9      	b.n	8004c50 <__cvt+0x7c>

08004c9c <__exponent>:
 8004c9c:	b5f7      	push	{r0, r1, r2, r4, r5, r6, r7, lr}
 8004c9e:	2900      	cmp	r1, #0
 8004ca0:	bfb6      	itet	lt
 8004ca2:	232d      	movlt	r3, #45	@ 0x2d
 8004ca4:	232b      	movge	r3, #43	@ 0x2b
 8004ca6:	4249      	neglt	r1, r1
 8004ca8:	2909      	cmp	r1, #9
 8004caa:	7002      	strb	r2, [r0, #0]
 8004cac:	7043      	strb	r3, [r0, #1]
 8004cae:	dd29      	ble.n	8004d04 <__exponent+0x68>
 8004cb0:	f10d 0307 	add.w	r3, sp, #7
 8004cb4:	461d      	mov	r5, r3
 8004cb6:	270a      	movs	r7, #10
 8004cb8:	fbb1 f6f7 	udiv	r6, r1, r7
 8004cbc:	461a      	mov	r2, r3
 8004cbe:	fb07 1416 	mls	r4, r7, r6, r1
 8004cc2:	3430      	adds	r4, #48	@ 0x30
 8004cc4:	f802 4c01 	strb.w	r4, [r2, #-1]
 8004cc8:	460c      	mov	r4, r1
 8004cca:	2c63      	cmp	r4, #99	@ 0x63
 8004ccc:	4631      	mov	r1, r6
 8004cce:	f103 33ff 	add.w	r3, r3, #4294967295
 8004cd2:	dcf1      	bgt.n	8004cb8 <__exponent+0x1c>
 8004cd4:	3130      	adds	r1, #48	@ 0x30
 8004cd6:	1e94      	subs	r4, r2, #2
 8004cd8:	f803 1c01 	strb.w	r1, [r3, #-1]
 8004cdc:	4623      	mov	r3, r4
 8004cde:	1c41      	adds	r1, r0, #1
 8004ce0:	42ab      	cmp	r3, r5
 8004ce2:	d30a      	bcc.n	8004cfa <__exponent+0x5e>
 8004ce4:	f10d 0309 	add.w	r3, sp, #9
 8004ce8:	1a9b      	subs	r3, r3, r2
 8004cea:	42ac      	cmp	r4, r5
 8004cec:	bf88      	it	hi
 8004cee:	2300      	movhi	r3, #0
 8004cf0:	3302      	adds	r3, #2
 8004cf2:	4403      	add	r3, r0
 8004cf4:	1a18      	subs	r0, r3, r0
 8004cf6:	b003      	add	sp, #12
 8004cf8:	bdf0      	pop	{r4, r5, r6, r7, pc}
 8004cfa:	f813 6b01 	ldrb.w	r6, [r3], #1
 8004cfe:	f801 6f01 	strb.w	r6, [r1, #1]!
 8004d02:	e7ed      	b.n	8004ce0 <__exponent+0x44>
 8004d04:	2330      	movs	r3, #48	@ 0x30
 8004d06:	3130      	adds	r1, #48	@ 0x30
 8004d08:	7083      	strb	r3, [r0, #2]
 8004d0a:	70c1      	strb	r1, [r0, #3]
 8004d0c:	1d03      	adds	r3, r0, #4
 8004d0e:	e7f1      	b.n	8004cf4 <__exponent+0x58>

08004d10 <_printf_float>:
 8004d10:	e92d 4ff0 	stmdb	sp!, {r4, r5, r6, r7, r8, r9, sl, fp, lr}
 8004d14:	b091      	sub	sp, #68	@ 0x44
 8004d16:	460c      	mov	r4, r1
 8004d18:	f8dd 8068 	ldr.w	r8, [sp, #104]	@ 0x68
 8004d1c:	4616      	mov	r6, r2
 8004d1e:	461f      	mov	r7, r3
 8004d20:	4605      	mov	r5, r0
 8004d22:	f000 fcf5 	bl	8005710 <_localeconv_r>
 8004d26:	6803      	ldr	r3, [r0, #0]
 8004d28:	4618      	mov	r0, r3
 8004d2a:	9308      	str	r3, [sp, #32]
 8004d2c:	f7fb fa10 	bl	8000150 <strlen>
 8004d30:	2300      	movs	r3, #0
 8004d32:	930e      	str	r3, [sp, #56]	@ 0x38
 8004d34:	f8d8 3000 	ldr.w	r3, [r8]
 8004d38:	9009      	str	r0, [sp, #36]	@ 0x24
 8004d3a:	3307      	adds	r3, #7
 8004d3c:	f023 0307 	bic.w	r3, r3, #7
 8004d40:	f103 0208 	add.w	r2, r3, #8
 8004d44:	f894 a018 	ldrb.w	sl, [r4, #24]
 8004d48:	f8d4 b000 	ldr.w	fp, [r4]
 8004d4c:	f8c8 2000 	str.w	r2, [r8]
 8004d50:	e9d3 8900 	ldrd	r8, r9, [r3]
 8004d54:	f029 4300 	bic.w	r3, r9, #2147483648	@ 0x80000000
 8004d58:	930b      	str	r3, [sp, #44]	@ 0x2c
 8004d5a:	f8cd 8028 	str.w	r8, [sp, #40]	@ 0x28
 8004d5e:	f04f 32ff 	mov.w	r2, #4294967295
 8004d62:	e9dd 010a 	ldrd	r0, r1, [sp, #40]	@ 0x28
 8004d66:	e9c4 8912 	strd	r8, r9, [r4, #72]	@ 0x48
 8004d6a:	4b9c      	ldr	r3, [pc, #624]	@ (8004fdc <_printf_float+0x2cc>)
 8004d6c:	f7fb fe4e 	bl	8000a0c <__aeabi_dcmpun>
 8004d70:	bb70      	cbnz	r0, 8004dd0 <_printf_float+0xc0>
 8004d72:	e9dd 010a 	ldrd	r0, r1, [sp, #40]	@ 0x28
 8004d76:	f04f 32ff 	mov.w	r2, #4294967295
 8004d7a:	4b98      	ldr	r3, [pc, #608]	@ (8004fdc <_printf_float+0x2cc>)
 8004d7c:	f7fb fe28 	bl	80009d0 <__aeabi_dcmple>
 8004d80:	bb30      	cbnz	r0, 8004dd0 <_printf_float+0xc0>
 8004d82:	2200      	movs	r2, #0
 8004d84:	2300      	movs	r3, #0
 8004d86:	4640      	mov	r0, r8
 8004d88:	4649      	mov	r1, r9
 8004d8a:	f7fb fe17 	bl	80009bc <__aeabi_dcmplt>
 8004d8e:	b110      	cbz	r0, 8004d96 <_printf_float+0x86>
 8004d90:	232d      	movs	r3, #45	@ 0x2d
 8004d92:	f884 3043 	strb.w	r3, [r4, #67]	@ 0x43
 8004d96:	4a92      	ldr	r2, [pc, #584]	@ (8004fe0 <_printf_float+0x2d0>)
 8004d98:	4b92      	ldr	r3, [pc, #584]	@ (8004fe4 <_printf_float+0x2d4>)
 8004d9a:	f1ba 0f47 	cmp.w	sl, #71	@ 0x47
 8004d9e:	bf8c      	ite	hi
 8004da0:	4690      	movhi	r8, r2
 8004da2:	4698      	movls	r8, r3
 8004da4:	2303      	movs	r3, #3
 8004da6:	f04f 0900 	mov.w	r9, #0
 8004daa:	6123      	str	r3, [r4, #16]
 8004dac:	f02b 0304 	bic.w	r3, fp, #4
 8004db0:	6023      	str	r3, [r4, #0]
 8004db2:	4633      	mov	r3, r6
 8004db4:	4621      	mov	r1, r4
 8004db6:	4628      	mov	r0, r5
 8004db8:	9700      	str	r7, [sp, #0]
 8004dba:	aa0f      	add	r2, sp, #60	@ 0x3c
 8004dbc:	f000 f9d4 	bl	8005168 <_printf_common>
 8004dc0:	3001      	adds	r0, #1
 8004dc2:	f040 8090 	bne.w	8004ee6 <_printf_float+0x1d6>
 8004dc6:	f04f 30ff 	mov.w	r0, #4294967295
 8004dca:	b011      	add	sp, #68	@ 0x44
 8004dcc:	e8bd 8ff0 	ldmia.w	sp!, {r4, r5, r6, r7, r8, r9, sl, fp, pc}
 8004dd0:	4642      	mov	r2, r8
 8004dd2:	464b      	mov	r3, r9
 8004dd4:	4640      	mov	r0, r8
 8004dd6:	4649      	mov	r1, r9
 8004dd8:	f7fb fe18 	bl	8000a0c <__aeabi_dcmpun>
 8004ddc:	b148      	cbz	r0, 8004df2 <_printf_float+0xe2>
 8004dde:	464b      	mov	r3, r9
 8004de0:	2b00      	cmp	r3, #0
 8004de2:	bfb8      	it	lt
 8004de4:	232d      	movlt	r3, #45	@ 0x2d
 8004de6:	4a80      	ldr	r2, [pc, #512]	@ (8004fe8 <_printf_float+0x2d8>)
 8004de8:	bfb8      	it	lt
 8004dea:	f884 3043 	strblt.w	r3, [r4, #67]	@ 0x43
 8004dee:	4b7f      	ldr	r3, [pc, #508]	@ (8004fec <_printf_float+0x2dc>)
 8004df0:	e7d3      	b.n	8004d9a <_printf_float+0x8a>
 8004df2:	6863      	ldr	r3, [r4, #4]
 8004df4:	f00a 01df 	and.w	r1, sl, #223	@ 0xdf
 8004df8:	1c5a      	adds	r2, r3, #1
 8004dfa:	d13f      	bne.n	8004e7c <_printf_float+0x16c>
 8004dfc:	2306      	movs	r3, #6
 8004dfe:	6063      	str	r3, [r4, #4]
 8004e00:	2200      	movs	r2, #0
 8004e02:	f44b 6380 	orr.w	r3, fp, #1024	@ 0x400
 8004e06:	6023      	str	r3, [r4, #0]
 8004e08:	9206      	str	r2, [sp, #24]
 8004e0a:	aa0e      	add	r2, sp, #56	@ 0x38
 8004e0c:	e9cd a204 	strd	sl, r2, [sp, #16]
 8004e10:	aa0d      	add	r2, sp, #52	@ 0x34
 8004e12:	9203      	str	r2, [sp, #12]
 8004e14:	f10d 0233 	add.w	r2, sp, #51	@ 0x33
 8004e18:	e9cd 3201 	strd	r3, r2, [sp, #4]
 8004e1c:	6863      	ldr	r3, [r4, #4]
 8004e1e:	4642      	mov	r2, r8
 8004e20:	9300      	str	r3, [sp, #0]
 8004e22:	4628      	mov	r0, r5
 8004e24:	464b      	mov	r3, r9
 8004e26:	910a      	str	r1, [sp, #40]	@ 0x28
 8004e28:	f7ff fed4 	bl	8004bd4 <__cvt>
 8004e2c:	990a      	ldr	r1, [sp, #40]	@ 0x28
 8004e2e:	4680      	mov	r8, r0
 8004e30:	2947      	cmp	r1, #71	@ 0x47
 8004e32:	990d      	ldr	r1, [sp, #52]	@ 0x34
 8004e34:	d128      	bne.n	8004e88 <_printf_float+0x178>
 8004e36:	1cc8      	adds	r0, r1, #3
 8004e38:	db02      	blt.n	8004e40 <_printf_float+0x130>
 8004e3a:	6863      	ldr	r3, [r4, #4]
 8004e3c:	4299      	cmp	r1, r3
 8004e3e:	dd40      	ble.n	8004ec2 <_printf_float+0x1b2>
 8004e40:	f1aa 0a02 	sub.w	sl, sl, #2
 8004e44:	fa5f fa8a 	uxtb.w	sl, sl
 8004e48:	4652      	mov	r2, sl
 8004e4a:	3901      	subs	r1, #1
 8004e4c:	f104 0050 	add.w	r0, r4, #80	@ 0x50
 8004e50:	910d      	str	r1, [sp, #52]	@ 0x34
 8004e52:	f7ff ff23 	bl	8004c9c <__exponent>
 8004e56:	9a0e      	ldr	r2, [sp, #56]	@ 0x38
 8004e58:	4681      	mov	r9, r0
 8004e5a:	1813      	adds	r3, r2, r0
 8004e5c:	2a01      	cmp	r2, #1
 8004e5e:	6123      	str	r3, [r4, #16]
 8004e60:	dc02      	bgt.n	8004e68 <_printf_float+0x158>
 8004e62:	6822      	ldr	r2, [r4, #0]
 8004e64:	07d2      	lsls	r2, r2, #31
 8004e66:	d501      	bpl.n	8004e6c <_printf_float+0x15c>
 8004e68:	3301      	adds	r3, #1
 8004e6a:	6123      	str	r3, [r4, #16]
 8004e6c:	f89d 3033 	ldrb.w	r3, [sp, #51]	@ 0x33
 8004e70:	2b00      	cmp	r3, #0
 8004e72:	d09e      	beq.n	8004db2 <_printf_float+0xa2>
 8004e74:	232d      	movs	r3, #45	@ 0x2d
 8004e76:	f884 3043 	strb.w	r3, [r4, #67]	@ 0x43
 8004e7a:	e79a      	b.n	8004db2 <_printf_float+0xa2>
 8004e7c:	2947      	cmp	r1, #71	@ 0x47
 8004e7e:	d1bf      	bne.n	8004e00 <_printf_float+0xf0>
 8004e80:	2b00      	cmp	r3, #0
 8004e82:	d1bd      	bne.n	8004e00 <_printf_float+0xf0>
 8004e84:	2301      	movs	r3, #1
 8004e86:	e7ba      	b.n	8004dfe <_printf_float+0xee>
 8004e88:	f1ba 0f65 	cmp.w	sl, #101	@ 0x65
 8004e8c:	d9dc      	bls.n	8004e48 <_printf_float+0x138>
 8004e8e:	f1ba 0f66 	cmp.w	sl, #102	@ 0x66
 8004e92:	d118      	bne.n	8004ec6 <_printf_float+0x1b6>
 8004e94:	2900      	cmp	r1, #0
 8004e96:	6863      	ldr	r3, [r4, #4]
 8004e98:	dd0b      	ble.n	8004eb2 <_printf_float+0x1a2>
 8004e9a:	6121      	str	r1, [r4, #16]
 8004e9c:	b913      	cbnz	r3, 8004ea4 <_printf_float+0x194>
 8004e9e:	6822      	ldr	r2, [r4, #0]
 8004ea0:	07d0      	lsls	r0, r2, #31
 8004ea2:	d502      	bpl.n	8004eaa <_printf_float+0x19a>
 8004ea4:	3301      	adds	r3, #1
 8004ea6:	440b      	add	r3, r1
 8004ea8:	6123      	str	r3, [r4, #16]
 8004eaa:	f04f 0900 	mov.w	r9, #0
 8004eae:	65a1      	str	r1, [r4, #88]	@ 0x58
 8004eb0:	e7dc      	b.n	8004e6c <_printf_float+0x15c>
 8004eb2:	b913      	cbnz	r3, 8004eba <_printf_float+0x1aa>
 8004eb4:	6822      	ldr	r2, [r4, #0]
 8004eb6:	07d2      	lsls	r2, r2, #31
 8004eb8:	d501      	bpl.n	8004ebe <_printf_float+0x1ae>
 8004eba:	3302      	adds	r3, #2
 8004ebc:	e7f4      	b.n	8004ea8 <_printf_float+0x198>
 8004ebe:	2301      	movs	r3, #1
 8004ec0:	e7f2      	b.n	8004ea8 <_printf_float+0x198>
 8004ec2:	f04f 0a67 	mov.w	sl, #103	@ 0x67
 8004ec6:	9b0e      	ldr	r3, [sp, #56]	@ 0x38
 8004ec8:	4299      	cmp	r1, r3
 8004eca:	db05      	blt.n	8004ed8 <_printf_float+0x1c8>
 8004ecc:	6823      	ldr	r3, [r4, #0]
 8004ece:	6121      	str	r1, [r4, #16]
 8004ed0:	07d8      	lsls	r0, r3, #31
 8004ed2:	d5ea      	bpl.n	8004eaa <_printf_float+0x19a>
 8004ed4:	1c4b      	adds	r3, r1, #1
 8004ed6:	e7e7      	b.n	8004ea8 <_printf_float+0x198>
 8004ed8:	2900      	cmp	r1, #0
 8004eda:	bfcc      	ite	gt
 8004edc:	2201      	movgt	r2, #1
 8004ede:	f1c1 0202 	rsble	r2, r1, #2
 8004ee2:	4413      	add	r3, r2
 8004ee4:	e7e0      	b.n	8004ea8 <_printf_float+0x198>
 8004ee6:	6823      	ldr	r3, [r4, #0]
 8004ee8:	055a      	lsls	r2, r3, #21
 8004eea:	d407      	bmi.n	8004efc <_printf_float+0x1ec>
 8004eec:	6923      	ldr	r3, [r4, #16]
 8004eee:	4642      	mov	r2, r8
 8004ef0:	4631      	mov	r1, r6
 8004ef2:	4628      	mov	r0, r5
 8004ef4:	47b8      	blx	r7
 8004ef6:	3001      	adds	r0, #1
 8004ef8:	d12b      	bne.n	8004f52 <_printf_float+0x242>
 8004efa:	e764      	b.n	8004dc6 <_printf_float+0xb6>
 8004efc:	f1ba 0f65 	cmp.w	sl, #101	@ 0x65
 8004f00:	f240 80dc 	bls.w	80050bc <_printf_float+0x3ac>
 8004f04:	e9d4 0112 	ldrd	r0, r1, [r4, #72]	@ 0x48
 8004f08:	2200      	movs	r2, #0
 8004f0a:	2300      	movs	r3, #0
 8004f0c:	f7fb fd4c 	bl	80009a8 <__aeabi_dcmpeq>
 8004f10:	2800      	cmp	r0, #0
 8004f12:	d033      	beq.n	8004f7c <_printf_float+0x26c>
 8004f14:	2301      	movs	r3, #1
 8004f16:	4631      	mov	r1, r6
 8004f18:	4628      	mov	r0, r5
 8004f1a:	4a35      	ldr	r2, [pc, #212]	@ (8004ff0 <_printf_float+0x2e0>)
 8004f1c:	47b8      	blx	r7
 8004f1e:	3001      	adds	r0, #1
 8004f20:	f43f af51 	beq.w	8004dc6 <_printf_float+0xb6>
 8004f24:	e9dd 380d 	ldrd	r3, r8, [sp, #52]	@ 0x34
 8004f28:	4543      	cmp	r3, r8
 8004f2a:	db02      	blt.n	8004f32 <_printf_float+0x222>
 8004f2c:	6823      	ldr	r3, [r4, #0]
 8004f2e:	07d8      	lsls	r0, r3, #31
 8004f30:	d50f      	bpl.n	8004f52 <_printf_float+0x242>
 8004f32:	e9dd 2308 	ldrd	r2, r3, [sp, #32]
 8004f36:	4631      	mov	r1, r6
 8004f38:	4628      	mov	r0, r5
 8004f3a:	47b8      	blx	r7
 8004f3c:	3001      	adds	r0, #1
 8004f3e:	f43f af42 	beq.w	8004dc6 <_printf_float+0xb6>
 8004f42:	f04f 0900 	mov.w	r9, #0
 8004f46:	f108 38ff 	add.w	r8, r8, #4294967295
 8004f4a:	f104 0a1a 	add.w	sl, r4, #26
 8004f4e:	45c8      	cmp	r8, r9
 8004f50:	dc09      	bgt.n	8004f66 <_printf_float+0x256>
 8004f52:	6823      	ldr	r3, [r4, #0]
 8004f54:	079b      	lsls	r3, r3, #30
 8004f56:	f100 8102 	bmi.w	800515e <_printf_float+0x44e>
 8004f5a:	68e0      	ldr	r0, [r4, #12]
 8004f5c:	9b0f      	ldr	r3, [sp, #60]	@ 0x3c
 8004f5e:	4298      	cmp	r0, r3
 8004f60:	bfb8      	it	lt
 8004f62:	4618      	movlt	r0, r3
 8004f64:	e731      	b.n	8004dca <_printf_float+0xba>
 8004f66:	2301      	movs	r3, #1
 8004f68:	4652      	mov	r2, sl
 8004f6a:	4631      	mov	r1, r6
 8004f6c:	4628      	mov	r0, r5
 8004f6e:	47b8      	blx	r7
 8004f70:	3001      	adds	r0, #1
 8004f72:	f43f af28 	beq.w	8004dc6 <_printf_float+0xb6>
 8004f76:	f109 0901 	add.w	r9, r9, #1
 8004f7a:	e7e8      	b.n	8004f4e <_printf_float+0x23e>
 8004f7c:	9b0d      	ldr	r3, [sp, #52]	@ 0x34
 8004f7e:	2b00      	cmp	r3, #0
 8004f80:	dc38      	bgt.n	8004ff4 <_printf_float+0x2e4>
 8004f82:	2301      	movs	r3, #1
 8004f84:	4631      	mov	r1, r6
 8004f86:	4628      	mov	r0, r5
 8004f88:	4a19      	ldr	r2, [pc, #100]	@ (8004ff0 <_printf_float+0x2e0>)
 8004f8a:	47b8      	blx	r7
 8004f8c:	3001      	adds	r0, #1
 8004f8e:	f43f af1a 	beq.w	8004dc6 <_printf_float+0xb6>
 8004f92:	e9dd 390d 	ldrd	r3, r9, [sp, #52]	@ 0x34
 8004f96:	ea59 0303 	orrs.w	r3, r9, r3
 8004f9a:	d102      	bne.n	8004fa2 <_printf_float+0x292>
 8004f9c:	6823      	ldr	r3, [r4, #0]
 8004f9e:	07d9      	lsls	r1, r3, #31
 8004fa0:	d5d7      	bpl.n	8004f52 <_printf_float+0x242>
 8004fa2:	e9dd 2308 	ldrd	r2, r3, [sp, #32]
 8004fa6:	4631      	mov	r1, r6
 8004fa8:	4628      	mov	r0, r5
 8004faa:	47b8      	blx	r7
 8004fac:	3001      	adds	r0, #1
 8004fae:	f43f af0a 	beq.w	8004dc6 <_printf_float+0xb6>
 8004fb2:	f04f 0a00 	mov.w	sl, #0
 8004fb6:	f104 0b1a 	add.w	fp, r4, #26
 8004fba:	9b0d      	ldr	r3, [sp, #52]	@ 0x34
 8004fbc:	425b      	negs	r3, r3
 8004fbe:	4553      	cmp	r3, sl
 8004fc0:	dc01      	bgt.n	8004fc6 <_printf_float+0x2b6>
 8004fc2:	464b      	mov	r3, r9
 8004fc4:	e793      	b.n	8004eee <_printf_float+0x1de>
 8004fc6:	2301      	movs	r3, #1
 8004fc8:	465a      	mov	r2, fp
 8004fca:	4631      	mov	r1, r6
 8004fcc:	4628      	mov	r0, r5
 8004fce:	47b8      	blx	r7
 8004fd0:	3001      	adds	r0, #1
 8004fd2:	f43f aef8 	beq.w	8004dc6 <_printf_float+0xb6>
 8004fd6:	f10a 0a01 	add.w	sl, sl, #1
 8004fda:	e7ee      	b.n	8004fba <_printf_float+0x2aa>
 8004fdc:	7fefffff 	.word	0x7fefffff
 8004fe0:	080079d6 	.word	0x080079d6
 8004fe4:	080079d2 	.word	0x080079d2
 8004fe8:	080079de 	.word	0x080079de
 8004fec:	080079da 	.word	0x080079da
 8004ff0:	080079e2 	.word	0x080079e2
 8004ff4:	6da3      	ldr	r3, [r4, #88]	@ 0x58
 8004ff6:	f8dd a038 	ldr.w	sl, [sp, #56]	@ 0x38
 8004ffa:	4553      	cmp	r3, sl
 8004ffc:	bfa8      	it	ge
 8004ffe:	4653      	movge	r3, sl
 8005000:	2b00      	cmp	r3, #0
 8005002:	4699      	mov	r9, r3
 8005004:	dc36      	bgt.n	8005074 <_printf_float+0x364>
 8005006:	f04f 0b00 	mov.w	fp, #0
 800500a:	ea29 79e9 	bic.w	r9, r9, r9, asr #31
 800500e:	f104 021a 	add.w	r2, r4, #26
 8005012:	6da3      	ldr	r3, [r4, #88]	@ 0x58
 8005014:	930a      	str	r3, [sp, #40]	@ 0x28
 8005016:	eba3 0309 	sub.w	r3, r3, r9
 800501a:	455b      	cmp	r3, fp
 800501c:	dc31      	bgt.n	8005082 <_printf_float+0x372>
 800501e:	9b0d      	ldr	r3, [sp, #52]	@ 0x34
 8005020:	459a      	cmp	sl, r3
 8005022:	dc3a      	bgt.n	800509a <_printf_float+0x38a>
 8005024:	6823      	ldr	r3, [r4, #0]
 8005026:	07da      	lsls	r2, r3, #31
 8005028:	d437      	bmi.n	800509a <_printf_float+0x38a>
 800502a:	9b0d      	ldr	r3, [sp, #52]	@ 0x34
 800502c:	ebaa 0903 	sub.w	r9, sl, r3
 8005030:	9b0a      	ldr	r3, [sp, #40]	@ 0x28
 8005032:	ebaa 0303 	sub.w	r3, sl, r3
 8005036:	4599      	cmp	r9, r3
 8005038:	bfa8      	it	ge
 800503a:	4699      	movge	r9, r3
 800503c:	f1b9 0f00 	cmp.w	r9, #0
 8005040:	dc33      	bgt.n	80050aa <_printf_float+0x39a>
 8005042:	f04f 0800 	mov.w	r8, #0
 8005046:	ea29 79e9 	bic.w	r9, r9, r9, asr #31
 800504a:	f104 0b1a 	add.w	fp, r4, #26
 800504e:	9b0d      	ldr	r3, [sp, #52]	@ 0x34
 8005050:	ebaa 0303 	sub.w	r3, sl, r3
 8005054:	eba3 0309 	sub.w	r3, r3, r9
 8005058:	4543      	cmp	r3, r8
 800505a:	f77f af7a 	ble.w	8004f52 <_printf_float+0x242>
 800505e:	2301      	movs	r3, #1
 8005060:	465a      	mov	r2, fp
 8005062:	4631      	mov	r1, r6
 8005064:	4628      	mov	r0, r5
 8005066:	47b8      	blx	r7
 8005068:	3001      	adds	r0, #1
 800506a:	f43f aeac 	beq.w	8004dc6 <_printf_float+0xb6>
 800506e:	f108 0801 	add.w	r8, r8, #1
 8005072:	e7ec      	b.n	800504e <_printf_float+0x33e>
 8005074:	4642      	mov	r2, r8
 8005076:	4631      	mov	r1, r6
 8005078:	4628      	mov	r0, r5
 800507a:	47b8      	blx	r7
 800507c:	3001      	adds	r0, #1
 800507e:	d1c2      	bne.n	8005006 <_printf_float+0x2f6>
 8005080:	e6a1      	b.n	8004dc6 <_printf_float+0xb6>
 8005082:	2301      	movs	r3, #1
 8005084:	4631      	mov	r1, r6
 8005086:	4628      	mov	r0, r5
 8005088:	920a      	str	r2, [sp, #40]	@ 0x28
 800508a:	47b8      	blx	r7
 800508c:	3001      	adds	r0, #1
 800508e:	f43f ae9a 	beq.w	8004dc6 <_printf_float+0xb6>
 8005092:	9a0a      	ldr	r2, [sp, #40]	@ 0x28
 8005094:	f10b 0b01 	add.w	fp, fp, #1
 8005098:	e7bb      	b.n	8005012 <_printf_float+0x302>
 800509a:	4631      	mov	r1, r6
 800509c:	e9dd 2308 	ldrd	r2, r3, [sp, #32]
 80050a0:	4628      	mov	r0, r5
 80050a2:	47b8      	blx	r7
 80050a4:	3001      	adds	r0, #1
 80050a6:	d1c0      	bne.n	800502a <_printf_float+0x31a>
 80050a8:	e68d      	b.n	8004dc6 <_printf_float+0xb6>
 80050aa:	9a0a      	ldr	r2, [sp, #40]	@ 0x28
 80050ac:	464b      	mov	r3, r9
 80050ae:	4631      	mov	r1, r6
 80050b0:	4628      	mov	r0, r5
 80050b2:	4442      	add	r2, r8
 80050b4:	47b8      	blx	r7
 80050b6:	3001      	adds	r0, #1
 80050b8:	d1c3      	bne.n	8005042 <_printf_float+0x332>
 80050ba:	e684      	b.n	8004dc6 <_printf_float+0xb6>
 80050bc:	f8dd a038 	ldr.w	sl, [sp, #56]	@ 0x38
 80050c0:	f1ba 0f01 	cmp.w	sl, #1
 80050c4:	dc01      	bgt.n	80050ca <_printf_float+0x3ba>
 80050c6:	07db      	lsls	r3, r3, #31
 80050c8:	d536      	bpl.n	8005138 <_printf_float+0x428>
 80050ca:	2301      	movs	r3, #1
 80050cc:	4642      	mov	r2, r8
 80050ce:	4631      	mov	r1, r6
 80050d0:	4628      	mov	r0, r5
 80050d2:	47b8      	blx	r7
 80050d4:	3001      	adds	r0, #1
 80050d6:	f43f ae76 	beq.w	8004dc6 <_printf_float+0xb6>
 80050da:	e9dd 2308 	ldrd	r2, r3, [sp, #32]
 80050de:	4631      	mov	r1, r6
 80050e0:	4628      	mov	r0, r5
 80050e2:	47b8      	blx	r7
 80050e4:	3001      	adds	r0, #1
 80050e6:	f43f ae6e 	beq.w	8004dc6 <_printf_float+0xb6>
 80050ea:	e9d4 0112 	ldrd	r0, r1, [r4, #72]	@ 0x48
 80050ee:	2200      	movs	r2, #0
 80050f0:	2300      	movs	r3, #0
 80050f2:	f10a 3aff 	add.w	sl, sl, #4294967295
 80050f6:	f7fb fc57 	bl	80009a8 <__aeabi_dcmpeq>
 80050fa:	b9c0      	cbnz	r0, 800512e <_printf_float+0x41e>
 80050fc:	4653      	mov	r3, sl
 80050fe:	f108 0201 	add.w	r2, r8, #1
 8005102:	4631      	mov	r1, r6
 8005104:	4628      	mov	r0, r5
 8005106:	47b8      	blx	r7
 8005108:	3001      	adds	r0, #1
 800510a:	d10c      	bne.n	8005126 <_printf_float+0x416>
 800510c:	e65b      	b.n	8004dc6 <_printf_float+0xb6>
 800510e:	2301      	movs	r3, #1
 8005110:	465a      	mov	r2, fp
 8005112:	4631      	mov	r1, r6
 8005114:	4628      	mov	r0, r5
 8005116:	47b8      	blx	r7
 8005118:	3001      	adds	r0, #1
 800511a:	f43f ae54 	beq.w	8004dc6 <_printf_float+0xb6>
 800511e:	f108 0801 	add.w	r8, r8, #1
 8005122:	45d0      	cmp	r8, sl
 8005124:	dbf3      	blt.n	800510e <_printf_float+0x3fe>
 8005126:	464b      	mov	r3, r9
 8005128:	f104 0250 	add.w	r2, r4, #80	@ 0x50
 800512c:	e6e0      	b.n	8004ef0 <_printf_float+0x1e0>
 800512e:	f04f 0800 	mov.w	r8, #0
 8005132:	f104 0b1a 	add.w	fp, r4, #26
 8005136:	e7f4      	b.n	8005122 <_printf_float+0x412>
 8005138:	2301      	movs	r3, #1
 800513a:	4642      	mov	r2, r8
 800513c:	e7e1      	b.n	8005102 <_printf_float+0x3f2>
 800513e:	2301      	movs	r3, #1
 8005140:	464a      	mov	r2, r9
 8005142:	4631      	mov	r1, r6
 8005144:	4628      	mov	r0, r5
 8005146:	47b8      	blx	r7
 8005148:	3001      	adds	r0, #1
 800514a:	f43f ae3c 	beq.w	8004dc6 <_printf_float+0xb6>
 800514e:	f108 0801 	add.w	r8, r8, #1
 8005152:	68e3      	ldr	r3, [r4, #12]
 8005154:	990f      	ldr	r1, [sp, #60]	@ 0x3c
 8005156:	1a5b      	subs	r3, r3, r1
 8005158:	4543      	cmp	r3, r8
 800515a:	dcf0      	bgt.n	800513e <_printf_float+0x42e>
 800515c:	e6fd      	b.n	8004f5a <_printf_float+0x24a>
 800515e:	f04f 0800 	mov.w	r8, #0
 8005162:	f104 0919 	add.w	r9, r4, #25
 8005166:	e7f4      	b.n	8005152 <_printf_float+0x442>

08005168 <_printf_common>:
 8005168:	e92d 47f0 	stmdb	sp!, {r4, r5, r6, r7, r8, r9, sl, lr}
 800516c:	4616      	mov	r6, r2
 800516e:	4698      	mov	r8, r3
 8005170:	688a      	ldr	r2, [r1, #8]
 8005172:	690b      	ldr	r3, [r1, #16]
 8005174:	4607      	mov	r7, r0
 8005176:	4293      	cmp	r3, r2
 8005178:	bfb8      	it	lt
 800517a:	4613      	movlt	r3, r2
 800517c:	6033      	str	r3, [r6, #0]
 800517e:	f891 2043 	ldrb.w	r2, [r1, #67]	@ 0x43
 8005182:	460c      	mov	r4, r1
 8005184:	f8dd 9020 	ldr.w	r9, [sp, #32]
 8005188:	b10a      	cbz	r2, 800518e <_printf_common+0x26>
 800518a:	3301      	adds	r3, #1
 800518c:	6033      	str	r3, [r6, #0]
 800518e:	6823      	ldr	r3, [r4, #0]
 8005190:	0699      	lsls	r1, r3, #26
 8005192:	bf42      	ittt	mi
 8005194:	6833      	ldrmi	r3, [r6, #0]
 8005196:	3302      	addmi	r3, #2
 8005198:	6033      	strmi	r3, [r6, #0]
 800519a:	6825      	ldr	r5, [r4, #0]
 800519c:	f015 0506 	ands.w	r5, r5, #6
 80051a0:	d106      	bne.n	80051b0 <_printf_common+0x48>
 80051a2:	f104 0a19 	add.w	sl, r4, #25
 80051a6:	68e3      	ldr	r3, [r4, #12]
 80051a8:	6832      	ldr	r2, [r6, #0]
 80051aa:	1a9b      	subs	r3, r3, r2
 80051ac:	42ab      	cmp	r3, r5
 80051ae:	dc2b      	bgt.n	8005208 <_printf_common+0xa0>
 80051b0:	f894 3043 	ldrb.w	r3, [r4, #67]	@ 0x43
 80051b4:	6822      	ldr	r2, [r4, #0]
 80051b6:	3b00      	subs	r3, #0
 80051b8:	bf18      	it	ne
 80051ba:	2301      	movne	r3, #1
 80051bc:	0692      	lsls	r2, r2, #26
 80051be:	d430      	bmi.n	8005222 <_printf_common+0xba>
 80051c0:	4641      	mov	r1, r8
 80051c2:	4638      	mov	r0, r7
 80051c4:	f104 0243 	add.w	r2, r4, #67	@ 0x43
 80051c8:	47c8      	blx	r9
 80051ca:	3001      	adds	r0, #1
 80051cc:	d023      	beq.n	8005216 <_printf_common+0xae>
 80051ce:	6823      	ldr	r3, [r4, #0]
 80051d0:	6922      	ldr	r2, [r4, #16]
 80051d2:	f003 0306 	and.w	r3, r3, #6
 80051d6:	2b04      	cmp	r3, #4
 80051d8:	bf14      	ite	ne
 80051da:	2500      	movne	r5, #0
 80051dc:	6833      	ldreq	r3, [r6, #0]
 80051de:	f04f 0600 	mov.w	r6, #0
 80051e2:	bf08      	it	eq
 80051e4:	68e5      	ldreq	r5, [r4, #12]
 80051e6:	f104 041a 	add.w	r4, r4, #26
 80051ea:	bf08      	it	eq
 80051ec:	1aed      	subeq	r5, r5, r3
 80051ee:	f854 3c12 	ldr.w	r3, [r4, #-18]
 80051f2:	bf08      	it	eq
 80051f4:	ea25 75e5 	biceq.w	r5, r5, r5, asr #31
 80051f8:	4293      	cmp	r3, r2
 80051fa:	bfc4      	itt	gt
 80051fc:	1a9b      	subgt	r3, r3, r2
 80051fe:	18ed      	addgt	r5, r5, r3
 8005200:	42b5      	cmp	r5, r6
 8005202:	d11a      	bne.n	800523a <_printf_common+0xd2>
 8005204:	2000      	movs	r0, #0
 8005206:	e008      	b.n	800521a <_printf_common+0xb2>
 8005208:	2301      	movs	r3, #1
 800520a:	4652      	mov	r2, sl
 800520c:	4641      	mov	r1, r8
 800520e:	4638      	mov	r0, r7
 8005210:	47c8      	blx	r9
 8005212:	3001      	adds	r0, #1
 8005214:	d103      	bne.n	800521e <_printf_common+0xb6>
 8005216:	f04f 30ff 	mov.w	r0, #4294967295
 800521a:	e8bd 87f0 	ldmia.w	sp!, {r4, r5, r6, r7, r8, r9, sl, pc}
 800521e:	3501      	adds	r5, #1
 8005220:	e7c1      	b.n	80051a6 <_printf_common+0x3e>
 8005222:	2030      	movs	r0, #48	@ 0x30
 8005224:	18e1      	adds	r1, r4, r3
 8005226:	f881 0043 	strb.w	r0, [r1, #67]	@ 0x43
 800522a:	1c5a      	adds	r2, r3, #1
 800522c:	f894 1045 	ldrb.w	r1, [r4, #69]	@ 0x45
 8005230:	4422      	add	r2, r4
 8005232:	3302      	adds	r3, #2
 8005234:	f882 1043 	strb.w	r1, [r2, #67]	@ 0x43
 8005238:	e7c2      	b.n	80051c0 <_printf_common+0x58>
 800523a:	2301      	movs	r3, #1
 800523c:	4622      	mov	r2, r4
 800523e:	4641      	mov	r1, r8
 8005240:	4638      	mov	r0, r7
 8005242:	47c8      	blx	r9
 8005244:	3001      	adds	r0, #1
 8005246:	d0e6      	beq.n	8005216 <_printf_common+0xae>
 8005248:	3601      	adds	r6, #1
 800524a:	e7d9      	b.n	8005200 <_printf_common+0x98>

0800524c <_printf_i>:
 800524c:	e92d 47ff 	stmdb	sp!, {r0, r1, r2, r3, r4, r5, r6, r7, r8, r9, sl, lr}
 8005250:	7e0f      	ldrb	r7, [r1, #24]
 8005252:	4691      	mov	r9, r2
 8005254:	2f78      	cmp	r7, #120	@ 0x78
 8005256:	4680      	mov	r8, r0
 8005258:	460c      	mov	r4, r1
 800525a:	469a      	mov	sl, r3
 800525c:	9e0c      	ldr	r6, [sp, #48]	@ 0x30
 800525e:	f101 0243 	add.w	r2, r1, #67	@ 0x43
 8005262:	d807      	bhi.n	8005274 <_printf_i+0x28>
 8005264:	2f62      	cmp	r7, #98	@ 0x62
 8005266:	d80a      	bhi.n	800527e <_printf_i+0x32>
 8005268:	2f00      	cmp	r7, #0
 800526a:	f000 80d1 	beq.w	8005410 <_printf_i+0x1c4>
 800526e:	2f58      	cmp	r7, #88	@ 0x58
 8005270:	f000 80b8 	beq.w	80053e4 <_printf_i+0x198>
 8005274:	f104 0642 	add.w	r6, r4, #66	@ 0x42
 8005278:	f884 7042 	strb.w	r7, [r4, #66]	@ 0x42
 800527c:	e03a      	b.n	80052f4 <_printf_i+0xa8>
 800527e:	f1a7 0363 	sub.w	r3, r7, #99	@ 0x63
 8005282:	2b15      	cmp	r3, #21
 8005284:	d8f6      	bhi.n	8005274 <_printf_i+0x28>
 8005286:	a101      	add	r1, pc, #4	@ (adr r1, 800528c <_printf_i+0x40>)
 8005288:	f851 f023 	ldr.w	pc, [r1, r3, lsl #2]
 800528c:	080052e5 	.word	0x080052e5
 8005290:	080052f9 	.word	0x080052f9
 8005294:	08005275 	.word	0x08005275
 8005298:	08005275 	.word	0x08005275
 800529c:	08005275 	.word	0x08005275
 80052a0:	08005275 	.word	0x08005275
 80052a4:	080052f9 	.word	0x080052f9
 80052a8:	08005275 	.word	0x08005275
 80052ac:	08005275 	.word	0x08005275
 80052b0:	08005275 	.word	0x08005275
 80052b4:	08005275 	.word	0x08005275
 80052b8:	080053f7 	.word	0x080053f7
 80052bc:	08005323 	.word	0x08005323
 80052c0:	080053b1 	.word	0x080053b1
 80052c4:	08005275 	.word	0x08005275
 80052c8:	08005275 	.word	0x08005275
 80052cc:	08005419 	.word	0x08005419
 80052d0:	08005275 	.word	0x08005275
 80052d4:	08005323 	.word	0x08005323
 80052d8:	08005275 	.word	0x08005275
 80052dc:	08005275 	.word	0x08005275
 80052e0:	080053b9 	.word	0x080053b9
 80052e4:	6833      	ldr	r3, [r6, #0]
 80052e6:	1d1a      	adds	r2, r3, #4
 80052e8:	681b      	ldr	r3, [r3, #0]
 80052ea:	6032      	str	r2, [r6, #0]
 80052ec:	f104 0642 	add.w	r6, r4, #66	@ 0x42
 80052f0:	f884 3042 	strb.w	r3, [r4, #66]	@ 0x42
 80052f4:	2301      	movs	r3, #1
 80052f6:	e09c      	b.n	8005432 <_printf_i+0x1e6>
 80052f8:	6833      	ldr	r3, [r6, #0]
 80052fa:	6820      	ldr	r0, [r4, #0]
 80052fc:	1d19      	adds	r1, r3, #4
 80052fe:	6031      	str	r1, [r6, #0]
 8005300:	0606      	lsls	r6, r0, #24
 8005302:	d501      	bpl.n	8005308 <_printf_i+0xbc>
 8005304:	681d      	ldr	r5, [r3, #0]
 8005306:	e003      	b.n	8005310 <_printf_i+0xc4>
 8005308:	0645      	lsls	r5, r0, #25
 800530a:	d5fb      	bpl.n	8005304 <_printf_i+0xb8>
 800530c:	f9b3 5000 	ldrsh.w	r5, [r3]
 8005310:	2d00      	cmp	r5, #0
 8005312:	da03      	bge.n	800531c <_printf_i+0xd0>
 8005314:	232d      	movs	r3, #45	@ 0x2d
 8005316:	426d      	negs	r5, r5
 8005318:	f884 3043 	strb.w	r3, [r4, #67]	@ 0x43
 800531c:	230a      	movs	r3, #10
 800531e:	4858      	ldr	r0, [pc, #352]	@ (8005480 <_printf_i+0x234>)
 8005320:	e011      	b.n	8005346 <_printf_i+0xfa>
 8005322:	6821      	ldr	r1, [r4, #0]
 8005324:	6833      	ldr	r3, [r6, #0]
 8005326:	0608      	lsls	r0, r1, #24
 8005328:	f853 5b04 	ldr.w	r5, [r3], #4
 800532c:	d402      	bmi.n	8005334 <_printf_i+0xe8>
 800532e:	0649      	lsls	r1, r1, #25
 8005330:	bf48      	it	mi
 8005332:	b2ad      	uxthmi	r5, r5
 8005334:	2f6f      	cmp	r7, #111	@ 0x6f
 8005336:	6033      	str	r3, [r6, #0]
 8005338:	bf14      	ite	ne
 800533a:	230a      	movne	r3, #10
 800533c:	2308      	moveq	r3, #8
 800533e:	4850      	ldr	r0, [pc, #320]	@ (8005480 <_printf_i+0x234>)
 8005340:	2100      	movs	r1, #0
 8005342:	f884 1043 	strb.w	r1, [r4, #67]	@ 0x43
 8005346:	6866      	ldr	r6, [r4, #4]
 8005348:	2e00      	cmp	r6, #0
 800534a:	60a6      	str	r6, [r4, #8]
 800534c:	db05      	blt.n	800535a <_printf_i+0x10e>
 800534e:	6821      	ldr	r1, [r4, #0]
 8005350:	432e      	orrs	r6, r5
 8005352:	f021 0104 	bic.w	r1, r1, #4
 8005356:	6021      	str	r1, [r4, #0]
 8005358:	d04b      	beq.n	80053f2 <_printf_i+0x1a6>
 800535a:	4616      	mov	r6, r2
 800535c:	fbb5 f1f3 	udiv	r1, r5, r3
 8005360:	fb03 5711 	mls	r7, r3, r1, r5
 8005364:	5dc7      	ldrb	r7, [r0, r7]
 8005366:	f806 7d01 	strb.w	r7, [r6, #-1]!
 800536a:	462f      	mov	r7, r5
 800536c:	42bb      	cmp	r3, r7
 800536e:	460d      	mov	r5, r1
 8005370:	d9f4      	bls.n	800535c <_printf_i+0x110>
 8005372:	2b08      	cmp	r3, #8
 8005374:	d10b      	bne.n	800538e <_printf_i+0x142>
 8005376:	6823      	ldr	r3, [r4, #0]
 8005378:	07df      	lsls	r7, r3, #31
 800537a:	d508      	bpl.n	800538e <_printf_i+0x142>
 800537c:	6923      	ldr	r3, [r4, #16]
 800537e:	6861      	ldr	r1, [r4, #4]
 8005380:	4299      	cmp	r1, r3
 8005382:	bfde      	ittt	le
 8005384:	2330      	movle	r3, #48	@ 0x30
 8005386:	f806 3c01 	strble.w	r3, [r6, #-1]
 800538a:	f106 36ff 	addle.w	r6, r6, #4294967295
 800538e:	1b92      	subs	r2, r2, r6
 8005390:	6122      	str	r2, [r4, #16]
 8005392:	464b      	mov	r3, r9
 8005394:	4621      	mov	r1, r4
 8005396:	4640      	mov	r0, r8
 8005398:	f8cd a000 	str.w	sl, [sp]
 800539c:	aa03      	add	r2, sp, #12
 800539e:	f7ff fee3 	bl	8005168 <_printf_common>
 80053a2:	3001      	adds	r0, #1
 80053a4:	d14a      	bne.n	800543c <_printf_i+0x1f0>
 80053a6:	f04f 30ff 	mov.w	r0, #4294967295
 80053aa:	b004      	add	sp, #16
 80053ac:	e8bd 87f0 	ldmia.w	sp!, {r4, r5, r6, r7, r8, r9, sl, pc}
 80053b0:	6823      	ldr	r3, [r4, #0]
 80053b2:	f043 0320 	orr.w	r3, r3, #32
 80053b6:	6023      	str	r3, [r4, #0]
 80053b8:	2778      	movs	r7, #120	@ 0x78
 80053ba:	4832      	ldr	r0, [pc, #200]	@ (8005484 <_printf_i+0x238>)
 80053bc:	f884 7045 	strb.w	r7, [r4, #69]	@ 0x45
 80053c0:	6823      	ldr	r3, [r4, #0]
 80053c2:	6831      	ldr	r1, [r6, #0]
 80053c4:	061f      	lsls	r7, r3, #24
 80053c6:	f851 5b04 	ldr.w	r5, [r1], #4
 80053ca:	d402      	bmi.n	80053d2 <_printf_i+0x186>
 80053cc:	065f      	lsls	r7, r3, #25
 80053ce:	bf48      	it	mi
 80053d0:	b2ad      	uxthmi	r5, r5
 80053d2:	6031      	str	r1, [r6, #0]
 80053d4:	07d9      	lsls	r1, r3, #31
 80053d6:	bf44      	itt	mi
 80053d8:	f043 0320 	orrmi.w	r3, r3, #32
 80053dc:	6023      	strmi	r3, [r4, #0]
 80053de:	b11d      	cbz	r5, 80053e8 <_printf_i+0x19c>
 80053e0:	2310      	movs	r3, #16
 80053e2:	e7ad      	b.n	8005340 <_printf_i+0xf4>
 80053e4:	4826      	ldr	r0, [pc, #152]	@ (8005480 <_printf_i+0x234>)
 80053e6:	e7e9      	b.n	80053bc <_printf_i+0x170>
 80053e8:	6823      	ldr	r3, [r4, #0]
 80053ea:	f023 0320 	bic.w	r3, r3, #32
 80053ee:	6023      	str	r3, [r4, #0]
 80053f0:	e7f6      	b.n	80053e0 <_printf_i+0x194>
 80053f2:	4616      	mov	r6, r2
 80053f4:	e7bd      	b.n	8005372 <_printf_i+0x126>
 80053f6:	6833      	ldr	r3, [r6, #0]
 80053f8:	6825      	ldr	r5, [r4, #0]
 80053fa:	1d18      	adds	r0, r3, #4
 80053fc:	6961      	ldr	r1, [r4, #20]
 80053fe:	6030      	str	r0, [r6, #0]
 8005400:	062e      	lsls	r6, r5, #24
 8005402:	681b      	ldr	r3, [r3, #0]
 8005404:	d501      	bpl.n	800540a <_printf_i+0x1be>
 8005406:	6019      	str	r1, [r3, #0]
 8005408:	e002      	b.n	8005410 <_printf_i+0x1c4>
 800540a:	0668      	lsls	r0, r5, #25
 800540c:	d5fb      	bpl.n	8005406 <_printf_i+0x1ba>
 800540e:	8019      	strh	r1, [r3, #0]
 8005410:	2300      	movs	r3, #0
 8005412:	4616      	mov	r6, r2
 8005414:	6123      	str	r3, [r4, #16]
 8005416:	e7bc      	b.n	8005392 <_printf_i+0x146>
 8005418:	6833      	ldr	r3, [r6, #0]
 800541a:	2100      	movs	r1, #0
 800541c:	1d1a      	adds	r2, r3, #4
 800541e:	6032      	str	r2, [r6, #0]
 8005420:	681e      	ldr	r6, [r3, #0]
 8005422:	6862      	ldr	r2, [r4, #4]
 8005424:	4630      	mov	r0, r6
 8005426:	f000 f9ea 	bl	80057fe <memchr>
 800542a:	b108      	cbz	r0, 8005430 <_printf_i+0x1e4>
 800542c:	1b80      	subs	r0, r0, r6
 800542e:	6060      	str	r0, [r4, #4]
 8005430:	6863      	ldr	r3, [r4, #4]
 8005432:	6123      	str	r3, [r4, #16]
 8005434:	2300      	movs	r3, #0
 8005436:	f884 3043 	strb.w	r3, [r4, #67]	@ 0x43
 800543a:	e7aa      	b.n	8005392 <_printf_i+0x146>
 800543c:	4632      	mov	r2, r6
 800543e:	4649      	mov	r1, r9
 8005440:	4640      	mov	r0, r8
 8005442:	6923      	ldr	r3, [r4, #16]
 8005444:	47d0      	blx	sl
 8005446:	3001      	adds	r0, #1
 8005448:	d0ad      	beq.n	80053a6 <_printf_i+0x15a>
 800544a:	6823      	ldr	r3, [r4, #0]
 800544c:	079b      	lsls	r3, r3, #30
 800544e:	d413      	bmi.n	8005478 <_printf_i+0x22c>
 8005450:	68e0      	ldr	r0, [r4, #12]
 8005452:	9b03      	ldr	r3, [sp, #12]
 8005454:	4298      	cmp	r0, r3
 8005456:	bfb8      	it	lt
 8005458:	4618      	movlt	r0, r3
 800545a:	e7a6      	b.n	80053aa <_printf_i+0x15e>
 800545c:	2301      	movs	r3, #1
 800545e:	4632      	mov	r2, r6
 8005460:	4649      	mov	r1, r9
 8005462:	4640      	mov	r0, r8
 8005464:	47d0      	blx	sl
 8005466:	3001      	adds	r0, #1
 8005468:	d09d      	beq.n	80053a6 <_printf_i+0x15a>
 800546a:	3501      	adds	r5, #1
 800546c:	68e3      	ldr	r3, [r4, #12]
 800546e:	9903      	ldr	r1, [sp, #12]
 8005470:	1a5b      	subs	r3, r3, r1
 8005472:	42ab      	cmp	r3, r5
 8005474:	dcf2      	bgt.n	800545c <_printf_i+0x210>
 8005476:	e7eb      	b.n	8005450 <_printf_i+0x204>
 8005478:	2500      	movs	r5, #0
 800547a:	f104 0619 	add.w	r6, r4, #25
 800547e:	e7f5      	b.n	800546c <_printf_i+0x220>
 8005480:	080079e4 	.word	0x080079e4
 8005484:	080079f5 	.word	0x080079f5

08005488 <std>:
 8005488:	2300      	movs	r3, #0
 800548a:	b510      	push	{r4, lr}
 800548c:	4604      	mov	r4, r0
 800548e:	e9c0 3300 	strd	r3, r3, [r0]
 8005492:	e9c0 3304 	strd	r3, r3, [r0, #16]
 8005496:	6083      	str	r3, [r0, #8]
 8005498:	8181      	strh	r1, [r0, #12]
 800549a:	6643      	str	r3, [r0, #100]	@ 0x64
 800549c:	81c2      	strh	r2, [r0, #14]
 800549e:	6183      	str	r3, [r0, #24]
 80054a0:	4619      	mov	r1, r3
 80054a2:	2208      	movs	r2, #8
 80054a4:	305c      	adds	r0, #92	@ 0x5c
 80054a6:	f000 f92a 	bl	80056fe <memset>
 80054aa:	4b0d      	ldr	r3, [pc, #52]	@ (80054e0 <std+0x58>)
 80054ac:	6224      	str	r4, [r4, #32]
 80054ae:	6263      	str	r3, [r4, #36]	@ 0x24
 80054b0:	4b0c      	ldr	r3, [pc, #48]	@ (80054e4 <std+0x5c>)
 80054b2:	62a3      	str	r3, [r4, #40]	@ 0x28
 80054b4:	4b0c      	ldr	r3, [pc, #48]	@ (80054e8 <std+0x60>)
 80054b6:	62e3      	str	r3, [r4, #44]	@ 0x2c
 80054b8:	4b0c      	ldr	r3, [pc, #48]	@ (80054ec <std+0x64>)
 80054ba:	6323      	str	r3, [r4, #48]	@ 0x30
 80054bc:	4b0c      	ldr	r3, [pc, #48]	@ (80054f0 <std+0x68>)
 80054be:	429c      	cmp	r4, r3
 80054c0:	d006      	beq.n	80054d0 <std+0x48>
 80054c2:	f103 0268 	add.w	r2, r3, #104	@ 0x68
 80054c6:	4294      	cmp	r4, r2
 80054c8:	d002      	beq.n	80054d0 <std+0x48>
 80054ca:	33d0      	adds	r3, #208	@ 0xd0
 80054cc:	429c      	cmp	r4, r3
 80054ce:	d105      	bne.n	80054dc <std+0x54>
 80054d0:	f104 0058 	add.w	r0, r4, #88	@ 0x58
 80054d4:	e8bd 4010 	ldmia.w	sp!, {r4, lr}
 80054d8:	f000 b98e 	b.w	80057f8 <__retarget_lock_init_recursive>
 80054dc:	bd10      	pop	{r4, pc}
 80054de:	bf00      	nop
 80054e0:	08005679 	.word	0x08005679
 80054e4:	0800569b 	.word	0x0800569b
 80054e8:	080056d3 	.word	0x080056d3
 80054ec:	080056f7 	.word	0x080056f7
 80054f0:	20000374 	.word	0x20000374

080054f4 <stdio_exit_handler>:
 80054f4:	4a02      	ldr	r2, [pc, #8]	@ (8005500 <stdio_exit_handler+0xc>)
 80054f6:	4903      	ldr	r1, [pc, #12]	@ (8005504 <stdio_exit_handler+0x10>)
 80054f8:	4803      	ldr	r0, [pc, #12]	@ (8005508 <stdio_exit_handler+0x14>)
 80054fa:	f000 b869 	b.w	80055d0 <_fwalk_sglue>
 80054fe:	bf00      	nop
 8005500:	2000000c 	.word	0x2000000c
 8005504:	08007179 	.word	0x08007179
 8005508:	2000001c 	.word	0x2000001c

0800550c <cleanup_stdio>:
 800550c:	6841      	ldr	r1, [r0, #4]
 800550e:	4b0c      	ldr	r3, [pc, #48]	@ (8005540 <cleanup_stdio+0x34>)
 8005510:	b510      	push	{r4, lr}
 8005512:	4299      	cmp	r1, r3
 8005514:	4604      	mov	r4, r0
 8005516:	d001      	beq.n	800551c <cleanup_stdio+0x10>
 8005518:	f001 fe2e 	bl	8007178 <_fflush_r>
 800551c:	68a1      	ldr	r1, [r4, #8]
 800551e:	4b09      	ldr	r3, [pc, #36]	@ (8005544 <cleanup_stdio+0x38>)
 8005520:	4299      	cmp	r1, r3
 8005522:	d002      	beq.n	800552a <cleanup_stdio+0x1e>
 8005524:	4620      	mov	r0, r4
 8005526:	f001 fe27 	bl	8007178 <_fflush_r>
 800552a:	68e1      	ldr	r1, [r4, #12]
 800552c:	4b06      	ldr	r3, [pc, #24]	@ (8005548 <cleanup_stdio+0x3c>)
 800552e:	4299      	cmp	r1, r3
 8005530:	d004      	beq.n	800553c <cleanup_stdio+0x30>
 8005532:	4620      	mov	r0, r4
 8005534:	e8bd 4010 	ldmia.w	sp!, {r4, lr}
 8005538:	f001 be1e 	b.w	8007178 <_fflush_r>
 800553c:	bd10      	pop	{r4, pc}
 800553e:	bf00      	nop
 8005540:	20000374 	.word	0x20000374
 8005544:	200003dc 	.word	0x200003dc
 8005548:	20000444 	.word	0x20000444

0800554c <global_stdio_init.part.0>:
 800554c:	b510      	push	{r4, lr}
 800554e:	4b0b      	ldr	r3, [pc, #44]	@ (800557c <global_stdio_init.part.0+0x30>)
 8005550:	4c0b      	ldr	r4, [pc, #44]	@ (8005580 <global_stdio_init.part.0+0x34>)
 8005552:	4a0c      	ldr	r2, [pc, #48]	@ (8005584 <global_stdio_init.part.0+0x38>)
 8005554:	4620      	mov	r0, r4
 8005556:	601a      	str	r2, [r3, #0]
 8005558:	2104      	movs	r1, #4
 800555a:	2200      	movs	r2, #0
 800555c:	f7ff ff94 	bl	8005488 <std>
 8005560:	f104 0068 	add.w	r0, r4, #104	@ 0x68
 8005564:	2201      	movs	r2, #1
 8005566:	2109      	movs	r1, #9
 8005568:	f7ff ff8e 	bl	8005488 <std>
 800556c:	f104 00d0 	add.w	r0, r4, #208	@ 0xd0
 8005570:	2202      	movs	r2, #2
 8005572:	e8bd 4010 	ldmia.w	sp!, {r4, lr}
 8005576:	2112      	movs	r1, #18
 8005578:	f7ff bf86 	b.w	8005488 <std>
 800557c:	200004ac 	.word	0x200004ac
 8005580:	20000374 	.word	0x20000374
 8005584:	080054f5 	.word	0x080054f5

08005588 <__sfp_lock_acquire>:
 8005588:	4801      	ldr	r0, [pc, #4]	@ (8005590 <__sfp_lock_acquire+0x8>)
 800558a:	f000 b936 	b.w	80057fa <__retarget_lock_acquire_recursive>
 800558e:	bf00      	nop
 8005590:	200004b5 	.word	0x200004b5

08005594 <__sfp_lock_release>:
 8005594:	4801      	ldr	r0, [pc, #4]	@ (800559c <__sfp_lock_release+0x8>)
 8005596:	f000 b931 	b.w	80057fc <__retarget_lock_release_recursive>
 800559a:	bf00      	nop
 800559c:	200004b5 	.word	0x200004b5

080055a0 <__sinit>:
 80055a0:	b510      	push	{r4, lr}
 80055a2:	4604      	mov	r4, r0
 80055a4:	f7ff fff0 	bl	8005588 <__sfp_lock_acquire>
 80055a8:	6a23      	ldr	r3, [r4, #32]
 80055aa:	b11b      	cbz	r3, 80055b4 <__sinit+0x14>
 80055ac:	e8bd 4010 	ldmia.w	sp!, {r4, lr}
 80055b0:	f7ff bff0 	b.w	8005594 <__sfp_lock_release>
 80055b4:	4b04      	ldr	r3, [pc, #16]	@ (80055c8 <__sinit+0x28>)
 80055b6:	6223      	str	r3, [r4, #32]
 80055b8:	4b04      	ldr	r3, [pc, #16]	@ (80055cc <__sinit+0x2c>)
 80055ba:	681b      	ldr	r3, [r3, #0]
 80055bc:	2b00      	cmp	r3, #0
 80055be:	d1f5      	bne.n	80055ac <__sinit+0xc>
 80055c0:	f7ff ffc4 	bl	800554c <global_stdio_init.part.0>
 80055c4:	e7f2      	b.n	80055ac <__sinit+0xc>
 80055c6:	bf00      	nop
 80055c8:	0800550d 	.word	0x0800550d
 80055cc:	200004ac 	.word	0x200004ac

080055d0 <_fwalk_sglue>:
 80055d0:	e92d 43f8 	stmdb	sp!, {r3, r4, r5, r6, r7, r8, r9, lr}
 80055d4:	4607      	mov	r7, r0
 80055d6:	4688      	mov	r8, r1
 80055d8:	4614      	mov	r4, r2
 80055da:	2600      	movs	r6, #0
 80055dc:	e9d4 9501 	ldrd	r9, r5, [r4, #4]
 80055e0:	f1b9 0901 	subs.w	r9, r9, #1
 80055e4:	d505      	bpl.n	80055f2 <_fwalk_sglue+0x22>
 80055e6:	6824      	ldr	r4, [r4, #0]
 80055e8:	2c00      	cmp	r4, #0
 80055ea:	d1f7      	bne.n	80055dc <_fwalk_sglue+0xc>
 80055ec:	4630      	mov	r0, r6
 80055ee:	e8bd 83f8 	ldmia.w	sp!, {r3, r4, r5, r6, r7, r8, r9, pc}
 80055f2:	89ab      	ldrh	r3, [r5, #12]
 80055f4:	2b01      	cmp	r3, #1
 80055f6:	d907      	bls.n	8005608 <_fwalk_sglue+0x38>
 80055f8:	f9b5 300e 	ldrsh.w	r3, [r5, #14]
 80055fc:	3301      	adds	r3, #1
 80055fe:	d003      	beq.n	8005608 <_fwalk_sglue+0x38>
 8005600:	4629      	mov	r1, r5
 8005602:	4638      	mov	r0, r7
 8005604:	47c0      	blx	r8
 8005606:	4306      	orrs	r6, r0
 8005608:	3568      	adds	r5, #104	@ 0x68
 800560a:	e7e9      	b.n	80055e0 <_fwalk_sglue+0x10>

0800560c <sniprintf>:
 800560c:	b40c      	push	{r2, r3}
 800560e:	b530      	push	{r4, r5, lr}
 8005610:	4b18      	ldr	r3, [pc, #96]	@ (8005674 <sniprintf+0x68>)
 8005612:	1e0c      	subs	r4, r1, #0
 8005614:	681d      	ldr	r5, [r3, #0]
 8005616:	b09d      	sub	sp, #116	@ 0x74
 8005618:	da08      	bge.n	800562c <sniprintf+0x20>
 800561a:	238b      	movs	r3, #139	@ 0x8b
 800561c:	f04f 30ff 	mov.w	r0, #4294967295
 8005620:	602b      	str	r3, [r5, #0]
 8005622:	b01d      	add	sp, #116	@ 0x74
 8005624:	e8bd 4030 	ldmia.w	sp!, {r4, r5, lr}
 8005628:	b002      	add	sp, #8
 800562a:	4770      	bx	lr
 800562c:	f44f 7302 	mov.w	r3, #520	@ 0x208
 8005630:	f8ad 3014 	strh.w	r3, [sp, #20]
 8005634:	f04f 0300 	mov.w	r3, #0
 8005638:	931b      	str	r3, [sp, #108]	@ 0x6c
 800563a:	bf0c      	ite	eq
 800563c:	4623      	moveq	r3, r4
 800563e:	f104 33ff 	addne.w	r3, r4, #4294967295
 8005642:	9304      	str	r3, [sp, #16]
 8005644:	9307      	str	r3, [sp, #28]
 8005646:	f64f 73ff 	movw	r3, #65535	@ 0xffff
 800564a:	9002      	str	r0, [sp, #8]
 800564c:	9006      	str	r0, [sp, #24]
 800564e:	f8ad 3016 	strh.w	r3, [sp, #22]
 8005652:	4628      	mov	r0, r5
 8005654:	ab21      	add	r3, sp, #132	@ 0x84
 8005656:	9a20      	ldr	r2, [sp, #128]	@ 0x80
 8005658:	a902      	add	r1, sp, #8
 800565a:	9301      	str	r3, [sp, #4]
 800565c:	f001 fc10 	bl	8006e80 <_svfiprintf_r>
 8005660:	1c43      	adds	r3, r0, #1
 8005662:	bfbc      	itt	lt
 8005664:	238b      	movlt	r3, #139	@ 0x8b
 8005666:	602b      	strlt	r3, [r5, #0]
 8005668:	2c00      	cmp	r4, #0
 800566a:	d0da      	beq.n	8005622 <sniprintf+0x16>
 800566c:	2200      	movs	r2, #0
 800566e:	9b02      	ldr	r3, [sp, #8]
 8005670:	701a      	strb	r2, [r3, #0]
 8005672:	e7d6      	b.n	8005622 <sniprintf+0x16>
 8005674:	20000018 	.word	0x20000018

08005678 <__sread>:
 8005678:	b510      	push	{r4, lr}
 800567a:	460c      	mov	r4, r1
 800567c:	f9b1 100e 	ldrsh.w	r1, [r1, #14]
 8005680:	f000 f86c 	bl	800575c <_read_r>
 8005684:	2800      	cmp	r0, #0
 8005686:	bfab      	itete	ge
 8005688:	6d63      	ldrge	r3, [r4, #84]	@ 0x54
 800568a:	89a3      	ldrhlt	r3, [r4, #12]
 800568c:	181b      	addge	r3, r3, r0
 800568e:	f423 5380 	biclt.w	r3, r3, #4096	@ 0x1000
 8005692:	bfac      	ite	ge
 8005694:	6563      	strge	r3, [r4, #84]	@ 0x54
 8005696:	81a3      	strhlt	r3, [r4, #12]
 8005698:	bd10      	pop	{r4, pc}

0800569a <__swrite>:
 800569a:	e92d 41f0 	stmdb	sp!, {r4, r5, r6, r7, r8, lr}
 800569e:	461f      	mov	r7, r3
 80056a0:	898b      	ldrh	r3, [r1, #12]
 80056a2:	4605      	mov	r5, r0
 80056a4:	05db      	lsls	r3, r3, #23
 80056a6:	460c      	mov	r4, r1
 80056a8:	4616      	mov	r6, r2
 80056aa:	d505      	bpl.n	80056b8 <__swrite+0x1e>
 80056ac:	2302      	movs	r3, #2
 80056ae:	2200      	movs	r2, #0
 80056b0:	f9b1 100e 	ldrsh.w	r1, [r1, #14]
 80056b4:	f000 f840 	bl	8005738 <_lseek_r>
 80056b8:	89a3      	ldrh	r3, [r4, #12]
 80056ba:	4632      	mov	r2, r6
 80056bc:	f423 5380 	bic.w	r3, r3, #4096	@ 0x1000
 80056c0:	81a3      	strh	r3, [r4, #12]
 80056c2:	4628      	mov	r0, r5
 80056c4:	463b      	mov	r3, r7
 80056c6:	f9b4 100e 	ldrsh.w	r1, [r4, #14]
 80056ca:	e8bd 41f0 	ldmia.w	sp!, {r4, r5, r6, r7, r8, lr}
 80056ce:	f000 b857 	b.w	8005780 <_write_r>

080056d2 <__sseek>:
 80056d2:	b510      	push	{r4, lr}
 80056d4:	460c      	mov	r4, r1
 80056d6:	f9b1 100e 	ldrsh.w	r1, [r1, #14]
 80056da:	f000 f82d 	bl	8005738 <_lseek_r>
 80056de:	1c43      	adds	r3, r0, #1
 80056e0:	89a3      	ldrh	r3, [r4, #12]
 80056e2:	bf15      	itete	ne
 80056e4:	6560      	strne	r0, [r4, #84]	@ 0x54
 80056e6:	f423 5380 	biceq.w	r3, r3, #4096	@ 0x1000
 80056ea:	f443 5380 	orrne.w	r3, r3, #4096	@ 0x1000
 80056ee:	81a3      	strheq	r3, [r4, #12]
 80056f0:	bf18      	it	ne
 80056f2:	81a3      	strhne	r3, [r4, #12]
 80056f4:	bd10      	pop	{r4, pc}

080056f6 <__sclose>:
 80056f6:	f9b1 100e 	ldrsh.w	r1, [r1, #14]
 80056fa:	f000 b80d 	b.w	8005718 <_close_r>

080056fe <memset>:
 80056fe:	4603      	mov	r3, r0
 8005700:	4402      	add	r2, r0
 8005702:	4293      	cmp	r3, r2
 8005704:	d100      	bne.n	8005708 <memset+0xa>
 8005706:	4770      	bx	lr
 8005708:	f803 1b01 	strb.w	r1, [r3], #1
 800570c:	e7f9      	b.n	8005702 <memset+0x4>
	...

08005710 <_localeconv_r>:
 8005710:	4800      	ldr	r0, [pc, #0]	@ (8005714 <_localeconv_r+0x4>)
 8005712:	4770      	bx	lr
 8005714:	20000158 	.word	0x20000158

08005718 <_close_r>:
 8005718:	b538      	push	{r3, r4, r5, lr}
 800571a:	2300      	movs	r3, #0
 800571c:	4d05      	ldr	r5, [pc, #20]	@ (8005734 <_close_r+0x1c>)
 800571e:	4604      	mov	r4, r0
 8005720:	4608      	mov	r0, r1
 8005722:	602b      	str	r3, [r5, #0]
 8005724:	f7fc fbdf 	bl	8001ee6 <_close>
 8005728:	1c43      	adds	r3, r0, #1
 800572a:	d102      	bne.n	8005732 <_close_r+0x1a>
 800572c:	682b      	ldr	r3, [r5, #0]
 800572e:	b103      	cbz	r3, 8005732 <_close_r+0x1a>
 8005730:	6023      	str	r3, [r4, #0]
 8005732:	bd38      	pop	{r3, r4, r5, pc}
 8005734:	200004b0 	.word	0x200004b0

08005738 <_lseek_r>:
 8005738:	b538      	push	{r3, r4, r5, lr}
 800573a:	4604      	mov	r4, r0
 800573c:	4608      	mov	r0, r1
 800573e:	4611      	mov	r1, r2
 8005740:	2200      	movs	r2, #0
 8005742:	4d05      	ldr	r5, [pc, #20]	@ (8005758 <_lseek_r+0x20>)
 8005744:	602a      	str	r2, [r5, #0]
 8005746:	461a      	mov	r2, r3
 8005748:	f7fc fbf1 	bl	8001f2e <_lseek>
 800574c:	1c43      	adds	r3, r0, #1
 800574e:	d102      	bne.n	8005756 <_lseek_r+0x1e>
 8005750:	682b      	ldr	r3, [r5, #0]
 8005752:	b103      	cbz	r3, 8005756 <_lseek_r+0x1e>
 8005754:	6023      	str	r3, [r4, #0]
 8005756:	bd38      	pop	{r3, r4, r5, pc}
 8005758:	200004b0 	.word	0x200004b0

0800575c <_read_r>:
 800575c:	b538      	push	{r3, r4, r5, lr}
 800575e:	4604      	mov	r4, r0
 8005760:	4608      	mov	r0, r1
 8005762:	4611      	mov	r1, r2
 8005764:	2200      	movs	r2, #0
 8005766:	4d05      	ldr	r5, [pc, #20]	@ (800577c <_read_r+0x20>)
 8005768:	602a      	str	r2, [r5, #0]
 800576a:	461a      	mov	r2, r3
 800576c:	f7fc fb82 	bl	8001e74 <_read>
 8005770:	1c43      	adds	r3, r0, #1
 8005772:	d102      	bne.n	800577a <_read_r+0x1e>
 8005774:	682b      	ldr	r3, [r5, #0]
 8005776:	b103      	cbz	r3, 800577a <_read_r+0x1e>
 8005778:	6023      	str	r3, [r4, #0]
 800577a:	bd38      	pop	{r3, r4, r5, pc}
 800577c:	200004b0 	.word	0x200004b0

08005780 <_write_r>:
 8005780:	b538      	push	{r3, r4, r5, lr}
 8005782:	4604      	mov	r4, r0
 8005784:	4608      	mov	r0, r1
 8005786:	4611      	mov	r1, r2
 8005788:	2200      	movs	r2, #0
 800578a:	4d05      	ldr	r5, [pc, #20]	@ (80057a0 <_write_r+0x20>)
 800578c:	602a      	str	r2, [r5, #0]
 800578e:	461a      	mov	r2, r3
 8005790:	f7fc fb8d 	bl	8001eae <_write>
 8005794:	1c43      	adds	r3, r0, #1
 8005796:	d102      	bne.n	800579e <_write_r+0x1e>
 8005798:	682b      	ldr	r3, [r5, #0]
 800579a:	b103      	cbz	r3, 800579e <_write_r+0x1e>
 800579c:	6023      	str	r3, [r4, #0]
 800579e:	bd38      	pop	{r3, r4, r5, pc}
 80057a0:	200004b0 	.word	0x200004b0

080057a4 <__errno>:
 80057a4:	4b01      	ldr	r3, [pc, #4]	@ (80057ac <__errno+0x8>)
 80057a6:	6818      	ldr	r0, [r3, #0]
 80057a8:	4770      	bx	lr
 80057aa:	bf00      	nop
 80057ac:	20000018 	.word	0x20000018

080057b0 <__libc_init_array>:
 80057b0:	b570      	push	{r4, r5, r6, lr}
 80057b2:	2600      	movs	r6, #0
 80057b4:	4d0c      	ldr	r5, [pc, #48]	@ (80057e8 <__libc_init_array+0x38>)
 80057b6:	4c0d      	ldr	r4, [pc, #52]	@ (80057ec <__libc_init_array+0x3c>)
 80057b8:	1b64      	subs	r4, r4, r5
 80057ba:	10a4      	asrs	r4, r4, #2
 80057bc:	42a6      	cmp	r6, r4
 80057be:	d109      	bne.n	80057d4 <__libc_init_array+0x24>
 80057c0:	f002 f876 	bl	80078b0 <_init>
 80057c4:	2600      	movs	r6, #0
 80057c6:	4d0a      	ldr	r5, [pc, #40]	@ (80057f0 <__libc_init_array+0x40>)
 80057c8:	4c0a      	ldr	r4, [pc, #40]	@ (80057f4 <__libc_init_array+0x44>)
 80057ca:	1b64      	subs	r4, r4, r5
 80057cc:	10a4      	asrs	r4, r4, #2
 80057ce:	42a6      	cmp	r6, r4
 80057d0:	d105      	bne.n	80057de <__libc_init_array+0x2e>
 80057d2:	bd70      	pop	{r4, r5, r6, pc}
 80057d4:	f855 3b04 	ldr.w	r3, [r5], #4
 80057d8:	4798      	blx	r3
 80057da:	3601      	adds	r6, #1
 80057dc:	e7ee      	b.n	80057bc <__libc_init_array+0xc>
 80057de:	f855 3b04 	ldr.w	r3, [r5], #4
 80057e2:	4798      	blx	r3
 80057e4:	3601      	adds	r6, #1
 80057e6:	e7f2      	b.n	80057ce <__libc_init_array+0x1e>
 80057e8:	08007d4c 	.word	0x08007d4c
 80057ec:	08007d4c 	.word	0x08007d4c
 80057f0:	08007d4c 	.word	0x08007d4c
 80057f4:	08007d50 	.word	0x08007d50

080057f8 <__retarget_lock_init_recursive>:
 80057f8:	4770      	bx	lr

080057fa <__retarget_lock_acquire_recursive>:
 80057fa:	4770      	bx	lr

080057fc <__retarget_lock_release_recursive>:
 80057fc:	4770      	bx	lr

080057fe <memchr>:
 80057fe:	4603      	mov	r3, r0
 8005800:	b510      	push	{r4, lr}
 8005802:	b2c9      	uxtb	r1, r1
 8005804:	4402      	add	r2, r0
 8005806:	4293      	cmp	r3, r2
 8005808:	4618      	mov	r0, r3
 800580a:	d101      	bne.n	8005810 <memchr+0x12>
 800580c:	2000      	movs	r0, #0
 800580e:	e003      	b.n	8005818 <memchr+0x1a>
 8005810:	7804      	ldrb	r4, [r0, #0]
 8005812:	3301      	adds	r3, #1
 8005814:	428c      	cmp	r4, r1
 8005816:	d1f6      	bne.n	8005806 <memchr+0x8>
 8005818:	bd10      	pop	{r4, pc}

0800581a <quorem>:
 800581a:	e92d 4ff7 	stmdb	sp!, {r0, r1, r2, r4, r5, r6, r7, r8, r9, sl, fp, lr}
 800581e:	6903      	ldr	r3, [r0, #16]
 8005820:	690c      	ldr	r4, [r1, #16]
 8005822:	4607      	mov	r7, r0
 8005824:	42a3      	cmp	r3, r4
 8005826:	db7e      	blt.n	8005926 <quorem+0x10c>
 8005828:	3c01      	subs	r4, #1
 800582a:	00a3      	lsls	r3, r4, #2
 800582c:	f100 0514 	add.w	r5, r0, #20
 8005830:	f101 0814 	add.w	r8, r1, #20
 8005834:	9300      	str	r3, [sp, #0]
 8005836:	eb05 0384 	add.w	r3, r5, r4, lsl #2
 800583a:	9301      	str	r3, [sp, #4]
 800583c:	f858 3024 	ldr.w	r3, [r8, r4, lsl #2]
 8005840:	f855 2024 	ldr.w	r2, [r5, r4, lsl #2]
 8005844:	3301      	adds	r3, #1
 8005846:	429a      	cmp	r2, r3
 8005848:	fbb2 f6f3 	udiv	r6, r2, r3
 800584c:	eb08 0984 	add.w	r9, r8, r4, lsl #2
 8005850:	d32e      	bcc.n	80058b0 <quorem+0x96>
 8005852:	f04f 0a00 	mov.w	sl, #0
 8005856:	46c4      	mov	ip, r8
 8005858:	46ae      	mov	lr, r5
 800585a:	46d3      	mov	fp, sl
 800585c:	f85c 3b04 	ldr.w	r3, [ip], #4
 8005860:	b298      	uxth	r0, r3
 8005862:	fb06 a000 	mla	r0, r6, r0, sl
 8005866:	0c1b      	lsrs	r3, r3, #16
 8005868:	0c02      	lsrs	r2, r0, #16
 800586a:	fb06 2303 	mla	r3, r6, r3, r2
 800586e:	f8de 2000 	ldr.w	r2, [lr]
 8005872:	b280      	uxth	r0, r0
 8005874:	b292      	uxth	r2, r2
 8005876:	1a12      	subs	r2, r2, r0
 8005878:	445a      	add	r2, fp
 800587a:	f8de 0000 	ldr.w	r0, [lr]
 800587e:	ea4f 4a13 	mov.w	sl, r3, lsr #16
 8005882:	b29b      	uxth	r3, r3
 8005884:	ebc3 4322 	rsb	r3, r3, r2, asr #16
 8005888:	eb03 4310 	add.w	r3, r3, r0, lsr #16
 800588c:	b292      	uxth	r2, r2
 800588e:	ea42 4203 	orr.w	r2, r2, r3, lsl #16
 8005892:	45e1      	cmp	r9, ip
 8005894:	ea4f 4b23 	mov.w	fp, r3, asr #16
 8005898:	f84e 2b04 	str.w	r2, [lr], #4
 800589c:	d2de      	bcs.n	800585c <quorem+0x42>
 800589e:	9b00      	ldr	r3, [sp, #0]
 80058a0:	58eb      	ldr	r3, [r5, r3]
 80058a2:	b92b      	cbnz	r3, 80058b0 <quorem+0x96>
 80058a4:	9b01      	ldr	r3, [sp, #4]
 80058a6:	3b04      	subs	r3, #4
 80058a8:	429d      	cmp	r5, r3
 80058aa:	461a      	mov	r2, r3
 80058ac:	d32f      	bcc.n	800590e <quorem+0xf4>
 80058ae:	613c      	str	r4, [r7, #16]
 80058b0:	4638      	mov	r0, r7
 80058b2:	f001 f981 	bl	8006bb8 <__mcmp>
 80058b6:	2800      	cmp	r0, #0
 80058b8:	db25      	blt.n	8005906 <quorem+0xec>
 80058ba:	4629      	mov	r1, r5
 80058bc:	2000      	movs	r0, #0
 80058be:	f858 2b04 	ldr.w	r2, [r8], #4
 80058c2:	f8d1 c000 	ldr.w	ip, [r1]
 80058c6:	fa1f fe82 	uxth.w	lr, r2
 80058ca:	fa1f f38c 	uxth.w	r3, ip
 80058ce:	eba3 030e 	sub.w	r3, r3, lr
 80058d2:	4403      	add	r3, r0
 80058d4:	0c12      	lsrs	r2, r2, #16
 80058d6:	ebc2 4223 	rsb	r2, r2, r3, asr #16
 80058da:	eb02 421c 	add.w	r2, r2, ip, lsr #16
 80058de:	b29b      	uxth	r3, r3
 80058e0:	ea43 4302 	orr.w	r3, r3, r2, lsl #16
 80058e4:	45c1      	cmp	r9, r8
 80058e6:	ea4f 4022 	mov.w	r0, r2, asr #16
 80058ea:	f841 3b04 	str.w	r3, [r1], #4
 80058ee:	d2e6      	bcs.n	80058be <quorem+0xa4>
 80058f0:	f855 2024 	ldr.w	r2, [r5, r4, lsl #2]
 80058f4:	eb05 0384 	add.w	r3, r5, r4, lsl #2
 80058f8:	b922      	cbnz	r2, 8005904 <quorem+0xea>
 80058fa:	3b04      	subs	r3, #4
 80058fc:	429d      	cmp	r5, r3
 80058fe:	461a      	mov	r2, r3
 8005900:	d30b      	bcc.n	800591a <quorem+0x100>
 8005902:	613c      	str	r4, [r7, #16]
 8005904:	3601      	adds	r6, #1
 8005906:	4630      	mov	r0, r6
 8005908:	b003      	add	sp, #12
 800590a:	e8bd 8ff0 	ldmia.w	sp!, {r4, r5, r6, r7, r8, r9, sl, fp, pc}
 800590e:	6812      	ldr	r2, [r2, #0]
 8005910:	3b04      	subs	r3, #4
 8005912:	2a00      	cmp	r2, #0
 8005914:	d1cb      	bne.n	80058ae <quorem+0x94>
 8005916:	3c01      	subs	r4, #1
 8005918:	e7c6      	b.n	80058a8 <quorem+0x8e>
 800591a:	6812      	ldr	r2, [r2, #0]
 800591c:	3b04      	subs	r3, #4
 800591e:	2a00      	cmp	r2, #0
 8005920:	d1ef      	bne.n	8005902 <quorem+0xe8>
 8005922:	3c01      	subs	r4, #1
 8005924:	e7ea      	b.n	80058fc <quorem+0xe2>
 8005926:	2000      	movs	r0, #0
 8005928:	e7ee      	b.n	8005908 <quorem+0xee>
 800592a:	0000      	movs	r0, r0
 800592c:	0000      	movs	r0, r0
	...

08005930 <_dtoa_r>:
 8005930:	e92d 4ff0 	stmdb	sp!, {r4, r5, r6, r7, r8, r9, sl, fp, lr}
 8005934:	4614      	mov	r4, r2
 8005936:	461d      	mov	r5, r3
 8005938:	69c7      	ldr	r7, [r0, #28]
 800593a:	b097      	sub	sp, #92	@ 0x5c
 800593c:	4681      	mov	r9, r0
 800593e:	e9cd 4506 	strd	r4, r5, [sp, #24]
 8005942:	9e23      	ldr	r6, [sp, #140]	@ 0x8c
 8005944:	b97f      	cbnz	r7, 8005966 <_dtoa_r+0x36>
 8005946:	2010      	movs	r0, #16
 8005948:	f000 fe0e 	bl	8006568 <malloc>
 800594c:	4602      	mov	r2, r0
 800594e:	f8c9 001c 	str.w	r0, [r9, #28]
 8005952:	b920      	cbnz	r0, 800595e <_dtoa_r+0x2e>
 8005954:	21ef      	movs	r1, #239	@ 0xef
 8005956:	4bac      	ldr	r3, [pc, #688]	@ (8005c08 <_dtoa_r+0x2d8>)
 8005958:	48ac      	ldr	r0, [pc, #688]	@ (8005c0c <_dtoa_r+0x2dc>)
 800595a:	f001 fc6d 	bl	8007238 <__assert_func>
 800595e:	e9c0 7701 	strd	r7, r7, [r0, #4]
 8005962:	6007      	str	r7, [r0, #0]
 8005964:	60c7      	str	r7, [r0, #12]
 8005966:	f8d9 301c 	ldr.w	r3, [r9, #28]
 800596a:	6819      	ldr	r1, [r3, #0]
 800596c:	b159      	cbz	r1, 8005986 <_dtoa_r+0x56>
 800596e:	685a      	ldr	r2, [r3, #4]
 8005970:	2301      	movs	r3, #1
 8005972:	4093      	lsls	r3, r2
 8005974:	604a      	str	r2, [r1, #4]
 8005976:	608b      	str	r3, [r1, #8]
 8005978:	4648      	mov	r0, r9
 800597a:	f000 feeb 	bl	8006754 <_Bfree>
 800597e:	2200      	movs	r2, #0
 8005980:	f8d9 301c 	ldr.w	r3, [r9, #28]
 8005984:	601a      	str	r2, [r3, #0]
 8005986:	1e2b      	subs	r3, r5, #0
 8005988:	bfaf      	iteee	ge
 800598a:	2300      	movge	r3, #0
 800598c:	2201      	movlt	r2, #1
 800598e:	f023 4300 	biclt.w	r3, r3, #2147483648	@ 0x80000000
 8005992:	9307      	strlt	r3, [sp, #28]
 8005994:	bfa8      	it	ge
 8005996:	6033      	strge	r3, [r6, #0]
 8005998:	f8dd 801c 	ldr.w	r8, [sp, #28]
 800599c:	4b9c      	ldr	r3, [pc, #624]	@ (8005c10 <_dtoa_r+0x2e0>)
 800599e:	bfb8      	it	lt
 80059a0:	6032      	strlt	r2, [r6, #0]
 80059a2:	ea33 0308 	bics.w	r3, r3, r8
 80059a6:	d112      	bne.n	80059ce <_dtoa_r+0x9e>
 80059a8:	f242 730f 	movw	r3, #9999	@ 0x270f
 80059ac:	9a22      	ldr	r2, [sp, #136]	@ 0x88
 80059ae:	6013      	str	r3, [r2, #0]
 80059b0:	f3c8 0313 	ubfx	r3, r8, #0, #20
 80059b4:	4323      	orrs	r3, r4
 80059b6:	f000 855e 	beq.w	8006476 <_dtoa_r+0xb46>
 80059ba:	9b24      	ldr	r3, [sp, #144]	@ 0x90
 80059bc:	f8df a254 	ldr.w	sl, [pc, #596]	@ 8005c14 <_dtoa_r+0x2e4>
 80059c0:	2b00      	cmp	r3, #0
 80059c2:	f000 8560 	beq.w	8006486 <_dtoa_r+0xb56>
 80059c6:	f10a 0303 	add.w	r3, sl, #3
 80059ca:	f000 bd5a 	b.w	8006482 <_dtoa_r+0xb52>
 80059ce:	e9dd 2306 	ldrd	r2, r3, [sp, #24]
 80059d2:	e9cd 230c 	strd	r2, r3, [sp, #48]	@ 0x30
 80059d6:	e9dd 010c 	ldrd	r0, r1, [sp, #48]	@ 0x30
 80059da:	2200      	movs	r2, #0
 80059dc:	2300      	movs	r3, #0
 80059de:	f7fa ffe3 	bl	80009a8 <__aeabi_dcmpeq>
 80059e2:	4607      	mov	r7, r0
 80059e4:	b158      	cbz	r0, 80059fe <_dtoa_r+0xce>
 80059e6:	2301      	movs	r3, #1
 80059e8:	9a22      	ldr	r2, [sp, #136]	@ 0x88
 80059ea:	6013      	str	r3, [r2, #0]
 80059ec:	9b24      	ldr	r3, [sp, #144]	@ 0x90
 80059ee:	b113      	cbz	r3, 80059f6 <_dtoa_r+0xc6>
 80059f0:	4b89      	ldr	r3, [pc, #548]	@ (8005c18 <_dtoa_r+0x2e8>)
 80059f2:	9a24      	ldr	r2, [sp, #144]	@ 0x90
 80059f4:	6013      	str	r3, [r2, #0]
 80059f6:	f8df a224 	ldr.w	sl, [pc, #548]	@ 8005c1c <_dtoa_r+0x2ec>
 80059fa:	f000 bd44 	b.w	8006486 <_dtoa_r+0xb56>
 80059fe:	ab14      	add	r3, sp, #80	@ 0x50
 8005a00:	9301      	str	r3, [sp, #4]
 8005a02:	ab15      	add	r3, sp, #84	@ 0x54
 8005a04:	9300      	str	r3, [sp, #0]
 8005a06:	4648      	mov	r0, r9
 8005a08:	e9dd 230c 	ldrd	r2, r3, [sp, #48]	@ 0x30
 8005a0c:	f001 f984 	bl	8006d18 <__d2b>
 8005a10:	f3c8 560a 	ubfx	r6, r8, #20, #11
 8005a14:	9003      	str	r0, [sp, #12]
 8005a16:	2e00      	cmp	r6, #0
 8005a18:	d078      	beq.n	8005b0c <_dtoa_r+0x1dc>
 8005a1a:	e9dd 010c 	ldrd	r0, r1, [sp, #48]	@ 0x30
 8005a1e:	9b0d      	ldr	r3, [sp, #52]	@ 0x34
 8005a20:	f2a6 36ff 	subw	r6, r6, #1023	@ 0x3ff
 8005a24:	f3c3 0313 	ubfx	r3, r3, #0, #20
 8005a28:	f043 537f 	orr.w	r3, r3, #1069547520	@ 0x3fc00000
 8005a2c:	f443 1340 	orr.w	r3, r3, #3145728	@ 0x300000
 8005a30:	9712      	str	r7, [sp, #72]	@ 0x48
 8005a32:	4619      	mov	r1, r3
 8005a34:	2200      	movs	r2, #0
 8005a36:	4b7a      	ldr	r3, [pc, #488]	@ (8005c20 <_dtoa_r+0x2f0>)
 8005a38:	f7fa fb96 	bl	8000168 <__aeabi_dsub>
 8005a3c:	a36c      	add	r3, pc, #432	@ (adr r3, 8005bf0 <_dtoa_r+0x2c0>)
 8005a3e:	e9d3 2300 	ldrd	r2, r3, [r3]
 8005a42:	f7fa fd49 	bl	80004d8 <__aeabi_dmul>
 8005a46:	a36c      	add	r3, pc, #432	@ (adr r3, 8005bf8 <_dtoa_r+0x2c8>)
 8005a48:	e9d3 2300 	ldrd	r2, r3, [r3]
 8005a4c:	f7fa fb8e 	bl	800016c <__adddf3>
 8005a50:	4604      	mov	r4, r0
 8005a52:	4630      	mov	r0, r6
 8005a54:	460d      	mov	r5, r1
 8005a56:	f7fa fcd5 	bl	8000404 <__aeabi_i2d>
 8005a5a:	a369      	add	r3, pc, #420	@ (adr r3, 8005c00 <_dtoa_r+0x2d0>)
 8005a5c:	e9d3 2300 	ldrd	r2, r3, [r3]
 8005a60:	f7fa fd3a 	bl	80004d8 <__aeabi_dmul>
 8005a64:	4602      	mov	r2, r0
 8005a66:	460b      	mov	r3, r1
 8005a68:	4620      	mov	r0, r4
 8005a6a:	4629      	mov	r1, r5
 8005a6c:	f7fa fb7e 	bl	800016c <__adddf3>
 8005a70:	4604      	mov	r4, r0
 8005a72:	460d      	mov	r5, r1
 8005a74:	f7fa ffe0 	bl	8000a38 <__aeabi_d2iz>
 8005a78:	2200      	movs	r2, #0
 8005a7a:	4607      	mov	r7, r0
 8005a7c:	2300      	movs	r3, #0
 8005a7e:	4620      	mov	r0, r4
 8005a80:	4629      	mov	r1, r5
 8005a82:	f7fa ff9b 	bl	80009bc <__aeabi_dcmplt>
 8005a86:	b140      	cbz	r0, 8005a9a <_dtoa_r+0x16a>
 8005a88:	4638      	mov	r0, r7
 8005a8a:	f7fa fcbb 	bl	8000404 <__aeabi_i2d>
 8005a8e:	4622      	mov	r2, r4
 8005a90:	462b      	mov	r3, r5
 8005a92:	f7fa ff89 	bl	80009a8 <__aeabi_dcmpeq>
 8005a96:	b900      	cbnz	r0, 8005a9a <_dtoa_r+0x16a>
 8005a98:	3f01      	subs	r7, #1
 8005a9a:	2f16      	cmp	r7, #22
 8005a9c:	d854      	bhi.n	8005b48 <_dtoa_r+0x218>
 8005a9e:	e9dd 010c 	ldrd	r0, r1, [sp, #48]	@ 0x30
 8005aa2:	4b60      	ldr	r3, [pc, #384]	@ (8005c24 <_dtoa_r+0x2f4>)
 8005aa4:	eb03 03c7 	add.w	r3, r3, r7, lsl #3
 8005aa8:	e9d3 2300 	ldrd	r2, r3, [r3]
 8005aac:	f7fa ff86 	bl	80009bc <__aeabi_dcmplt>
 8005ab0:	2800      	cmp	r0, #0
 8005ab2:	d04b      	beq.n	8005b4c <_dtoa_r+0x21c>
 8005ab4:	2300      	movs	r3, #0
 8005ab6:	3f01      	subs	r7, #1
 8005ab8:	930f      	str	r3, [sp, #60]	@ 0x3c
 8005aba:	9b14      	ldr	r3, [sp, #80]	@ 0x50
 8005abc:	1b9b      	subs	r3, r3, r6
 8005abe:	1e5a      	subs	r2, r3, #1
 8005ac0:	bf49      	itett	mi
 8005ac2:	f1c3 0301 	rsbmi	r3, r3, #1
 8005ac6:	2300      	movpl	r3, #0
 8005ac8:	9304      	strmi	r3, [sp, #16]
 8005aca:	2300      	movmi	r3, #0
 8005acc:	9209      	str	r2, [sp, #36]	@ 0x24
 8005ace:	bf54      	ite	pl
 8005ad0:	9304      	strpl	r3, [sp, #16]
 8005ad2:	9309      	strmi	r3, [sp, #36]	@ 0x24
 8005ad4:	2f00      	cmp	r7, #0
 8005ad6:	db3b      	blt.n	8005b50 <_dtoa_r+0x220>
 8005ad8:	9b09      	ldr	r3, [sp, #36]	@ 0x24
 8005ada:	970e      	str	r7, [sp, #56]	@ 0x38
 8005adc:	443b      	add	r3, r7
 8005ade:	9309      	str	r3, [sp, #36]	@ 0x24
 8005ae0:	2300      	movs	r3, #0
 8005ae2:	930a      	str	r3, [sp, #40]	@ 0x28
 8005ae4:	9b20      	ldr	r3, [sp, #128]	@ 0x80
 8005ae6:	2b09      	cmp	r3, #9
 8005ae8:	d865      	bhi.n	8005bb6 <_dtoa_r+0x286>
 8005aea:	2b05      	cmp	r3, #5
 8005aec:	bfc4      	itt	gt
 8005aee:	3b04      	subgt	r3, #4
 8005af0:	9320      	strgt	r3, [sp, #128]	@ 0x80
 8005af2:	9b20      	ldr	r3, [sp, #128]	@ 0x80
 8005af4:	bfc8      	it	gt
 8005af6:	2400      	movgt	r4, #0
 8005af8:	f1a3 0302 	sub.w	r3, r3, #2
 8005afc:	bfd8      	it	le
 8005afe:	2401      	movle	r4, #1
 8005b00:	2b03      	cmp	r3, #3
 8005b02:	d864      	bhi.n	8005bce <_dtoa_r+0x29e>
 8005b04:	e8df f003 	tbb	[pc, r3]
 8005b08:	2c385553 	.word	0x2c385553
 8005b0c:	e9dd 6314 	ldrd	r6, r3, [sp, #80]	@ 0x50
 8005b10:	441e      	add	r6, r3
 8005b12:	f206 4332 	addw	r3, r6, #1074	@ 0x432
 8005b16:	2b20      	cmp	r3, #32
 8005b18:	bfc1      	itttt	gt
 8005b1a:	f1c3 0340 	rsbgt	r3, r3, #64	@ 0x40
 8005b1e:	fa08 f803 	lslgt.w	r8, r8, r3
 8005b22:	f206 4312 	addwgt	r3, r6, #1042	@ 0x412
 8005b26:	fa24 f303 	lsrgt.w	r3, r4, r3
 8005b2a:	bfd6      	itet	le
 8005b2c:	f1c3 0320 	rsble	r3, r3, #32
 8005b30:	ea48 0003 	orrgt.w	r0, r8, r3
 8005b34:	fa04 f003 	lslle.w	r0, r4, r3
 8005b38:	f7fa fc54 	bl	80003e4 <__aeabi_ui2d>
 8005b3c:	2201      	movs	r2, #1
 8005b3e:	f1a1 73f8 	sub.w	r3, r1, #32505856	@ 0x1f00000
 8005b42:	3e01      	subs	r6, #1
 8005b44:	9212      	str	r2, [sp, #72]	@ 0x48
 8005b46:	e774      	b.n	8005a32 <_dtoa_r+0x102>
 8005b48:	2301      	movs	r3, #1
 8005b4a:	e7b5      	b.n	8005ab8 <_dtoa_r+0x188>
 8005b4c:	900f      	str	r0, [sp, #60]	@ 0x3c
 8005b4e:	e7b4      	b.n	8005aba <_dtoa_r+0x18a>
 8005b50:	9b04      	ldr	r3, [sp, #16]
 8005b52:	1bdb      	subs	r3, r3, r7
 8005b54:	9304      	str	r3, [sp, #16]
 8005b56:	427b      	negs	r3, r7
 8005b58:	930a      	str	r3, [sp, #40]	@ 0x28
 8005b5a:	2300      	movs	r3, #0
 8005b5c:	930e      	str	r3, [sp, #56]	@ 0x38
 8005b5e:	e7c1      	b.n	8005ae4 <_dtoa_r+0x1b4>
 8005b60:	2301      	movs	r3, #1
 8005b62:	930b      	str	r3, [sp, #44]	@ 0x2c
 8005b64:	9b21      	ldr	r3, [sp, #132]	@ 0x84
 8005b66:	eb07 0b03 	add.w	fp, r7, r3
 8005b6a:	f10b 0301 	add.w	r3, fp, #1
 8005b6e:	2b01      	cmp	r3, #1
 8005b70:	9308      	str	r3, [sp, #32]
 8005b72:	bfb8      	it	lt
 8005b74:	2301      	movlt	r3, #1
 8005b76:	e006      	b.n	8005b86 <_dtoa_r+0x256>
 8005b78:	2301      	movs	r3, #1
 8005b7a:	930b      	str	r3, [sp, #44]	@ 0x2c
 8005b7c:	9b21      	ldr	r3, [sp, #132]	@ 0x84
 8005b7e:	2b00      	cmp	r3, #0
 8005b80:	dd28      	ble.n	8005bd4 <_dtoa_r+0x2a4>
 8005b82:	469b      	mov	fp, r3
 8005b84:	9308      	str	r3, [sp, #32]
 8005b86:	2100      	movs	r1, #0
 8005b88:	2204      	movs	r2, #4
 8005b8a:	f8d9 001c 	ldr.w	r0, [r9, #28]
 8005b8e:	f102 0514 	add.w	r5, r2, #20
 8005b92:	429d      	cmp	r5, r3
 8005b94:	d926      	bls.n	8005be4 <_dtoa_r+0x2b4>
 8005b96:	6041      	str	r1, [r0, #4]
 8005b98:	4648      	mov	r0, r9
 8005b9a:	f000 fd9b 	bl	80066d4 <_Balloc>
 8005b9e:	4682      	mov	sl, r0
 8005ba0:	2800      	cmp	r0, #0
 8005ba2:	d143      	bne.n	8005c2c <_dtoa_r+0x2fc>
 8005ba4:	4602      	mov	r2, r0
 8005ba6:	f240 11af 	movw	r1, #431	@ 0x1af
 8005baa:	4b1f      	ldr	r3, [pc, #124]	@ (8005c28 <_dtoa_r+0x2f8>)
 8005bac:	e6d4      	b.n	8005958 <_dtoa_r+0x28>
 8005bae:	2300      	movs	r3, #0
 8005bb0:	e7e3      	b.n	8005b7a <_dtoa_r+0x24a>
 8005bb2:	2300      	movs	r3, #0
 8005bb4:	e7d5      	b.n	8005b62 <_dtoa_r+0x232>
 8005bb6:	2401      	movs	r4, #1
 8005bb8:	2300      	movs	r3, #0
 8005bba:	940b      	str	r4, [sp, #44]	@ 0x2c
 8005bbc:	9320      	str	r3, [sp, #128]	@ 0x80
 8005bbe:	f04f 3bff 	mov.w	fp, #4294967295
 8005bc2:	2200      	movs	r2, #0
 8005bc4:	2312      	movs	r3, #18
 8005bc6:	f8cd b020 	str.w	fp, [sp, #32]
 8005bca:	9221      	str	r2, [sp, #132]	@ 0x84
 8005bcc:	e7db      	b.n	8005b86 <_dtoa_r+0x256>
 8005bce:	2301      	movs	r3, #1
 8005bd0:	930b      	str	r3, [sp, #44]	@ 0x2c
 8005bd2:	e7f4      	b.n	8005bbe <_dtoa_r+0x28e>
 8005bd4:	f04f 0b01 	mov.w	fp, #1
 8005bd8:	465b      	mov	r3, fp
 8005bda:	f8cd b020 	str.w	fp, [sp, #32]
 8005bde:	f8cd b084 	str.w	fp, [sp, #132]	@ 0x84
 8005be2:	e7d0      	b.n	8005b86 <_dtoa_r+0x256>
 8005be4:	3101      	adds	r1, #1
 8005be6:	0052      	lsls	r2, r2, #1
 8005be8:	e7d1      	b.n	8005b8e <_dtoa_r+0x25e>
 8005bea:	bf00      	nop
 8005bec:	f3af 8000 	nop.w
 8005bf0:	636f4361 	.word	0x636f4361
 8005bf4:	3fd287a7 	.word	0x3fd287a7
 8005bf8:	8b60c8b3 	.word	0x8b60c8b3
 8005bfc:	3fc68a28 	.word	0x3fc68a28
 8005c00:	509f79fb 	.word	0x509f79fb
 8005c04:	3fd34413 	.word	0x3fd34413
 8005c08:	08007a13 	.word	0x08007a13
 8005c0c:	08007a2a 	.word	0x08007a2a
 8005c10:	7ff00000 	.word	0x7ff00000
 8005c14:	08007a0f 	.word	0x08007a0f
 8005c18:	080079e3 	.word	0x080079e3
 8005c1c:	080079e2 	.word	0x080079e2
 8005c20:	3ff80000 	.word	0x3ff80000
 8005c24:	08007b78 	.word	0x08007b78
 8005c28:	08007a82 	.word	0x08007a82
 8005c2c:	f8d9 301c 	ldr.w	r3, [r9, #28]
 8005c30:	6018      	str	r0, [r3, #0]
 8005c32:	9b08      	ldr	r3, [sp, #32]
 8005c34:	2b0e      	cmp	r3, #14
 8005c36:	f200 80a1 	bhi.w	8005d7c <_dtoa_r+0x44c>
 8005c3a:	2c00      	cmp	r4, #0
 8005c3c:	f000 809e 	beq.w	8005d7c <_dtoa_r+0x44c>
 8005c40:	2f00      	cmp	r7, #0
 8005c42:	dd33      	ble.n	8005cac <_dtoa_r+0x37c>
 8005c44:	4b9c      	ldr	r3, [pc, #624]	@ (8005eb8 <_dtoa_r+0x588>)
 8005c46:	f007 020f 	and.w	r2, r7, #15
 8005c4a:	eb03 03c2 	add.w	r3, r3, r2, lsl #3
 8005c4e:	05f8      	lsls	r0, r7, #23
 8005c50:	e9d3 3400 	ldrd	r3, r4, [r3]
 8005c54:	e9cd 3410 	strd	r3, r4, [sp, #64]	@ 0x40
 8005c58:	ea4f 1427 	mov.w	r4, r7, asr #4
 8005c5c:	d516      	bpl.n	8005c8c <_dtoa_r+0x35c>
 8005c5e:	e9dd 010c 	ldrd	r0, r1, [sp, #48]	@ 0x30
 8005c62:	4b96      	ldr	r3, [pc, #600]	@ (8005ebc <_dtoa_r+0x58c>)
 8005c64:	2603      	movs	r6, #3
 8005c66:	e9d3 2308 	ldrd	r2, r3, [r3, #32]
 8005c6a:	f7fa fd5f 	bl	800072c <__aeabi_ddiv>
 8005c6e:	e9cd 0106 	strd	r0, r1, [sp, #24]
 8005c72:	f004 040f 	and.w	r4, r4, #15
 8005c76:	4d91      	ldr	r5, [pc, #580]	@ (8005ebc <_dtoa_r+0x58c>)
 8005c78:	b954      	cbnz	r4, 8005c90 <_dtoa_r+0x360>
 8005c7a:	e9dd 2310 	ldrd	r2, r3, [sp, #64]	@ 0x40
 8005c7e:	e9dd 0106 	ldrd	r0, r1, [sp, #24]
 8005c82:	f7fa fd53 	bl	800072c <__aeabi_ddiv>
 8005c86:	e9cd 0106 	strd	r0, r1, [sp, #24]
 8005c8a:	e028      	b.n	8005cde <_dtoa_r+0x3ae>
 8005c8c:	2602      	movs	r6, #2
 8005c8e:	e7f2      	b.n	8005c76 <_dtoa_r+0x346>
 8005c90:	07e1      	lsls	r1, r4, #31
 8005c92:	d508      	bpl.n	8005ca6 <_dtoa_r+0x376>
 8005c94:	e9dd 0110 	ldrd	r0, r1, [sp, #64]	@ 0x40
 8005c98:	e9d5 2300 	ldrd	r2, r3, [r5]
 8005c9c:	f7fa fc1c 	bl	80004d8 <__aeabi_dmul>
 8005ca0:	e9cd 0110 	strd	r0, r1, [sp, #64]	@ 0x40
 8005ca4:	3601      	adds	r6, #1
 8005ca6:	1064      	asrs	r4, r4, #1
 8005ca8:	3508      	adds	r5, #8
 8005caa:	e7e5      	b.n	8005c78 <_dtoa_r+0x348>
 8005cac:	f000 80af 	beq.w	8005e0e <_dtoa_r+0x4de>
 8005cb0:	e9dd 010c 	ldrd	r0, r1, [sp, #48]	@ 0x30
 8005cb4:	427c      	negs	r4, r7
 8005cb6:	4b80      	ldr	r3, [pc, #512]	@ (8005eb8 <_dtoa_r+0x588>)
 8005cb8:	f004 020f 	and.w	r2, r4, #15
 8005cbc:	eb03 03c2 	add.w	r3, r3, r2, lsl #3
 8005cc0:	e9d3 2300 	ldrd	r2, r3, [r3]
 8005cc4:	f7fa fc08 	bl	80004d8 <__aeabi_dmul>
 8005cc8:	2602      	movs	r6, #2
 8005cca:	2300      	movs	r3, #0
 8005ccc:	e9cd 0106 	strd	r0, r1, [sp, #24]
 8005cd0:	4d7a      	ldr	r5, [pc, #488]	@ (8005ebc <_dtoa_r+0x58c>)
 8005cd2:	1124      	asrs	r4, r4, #4
 8005cd4:	2c00      	cmp	r4, #0
 8005cd6:	f040 808f 	bne.w	8005df8 <_dtoa_r+0x4c8>
 8005cda:	2b00      	cmp	r3, #0
 8005cdc:	d1d3      	bne.n	8005c86 <_dtoa_r+0x356>
 8005cde:	e9dd 4506 	ldrd	r4, r5, [sp, #24]
 8005ce2:	9b0f      	ldr	r3, [sp, #60]	@ 0x3c
 8005ce4:	2b00      	cmp	r3, #0
 8005ce6:	f000 8094 	beq.w	8005e12 <_dtoa_r+0x4e2>
 8005cea:	2200      	movs	r2, #0
 8005cec:	4620      	mov	r0, r4
 8005cee:	4629      	mov	r1, r5
 8005cf0:	4b73      	ldr	r3, [pc, #460]	@ (8005ec0 <_dtoa_r+0x590>)
 8005cf2:	f7fa fe63 	bl	80009bc <__aeabi_dcmplt>
 8005cf6:	2800      	cmp	r0, #0
 8005cf8:	f000 808b 	beq.w	8005e12 <_dtoa_r+0x4e2>
 8005cfc:	9b08      	ldr	r3, [sp, #32]
 8005cfe:	2b00      	cmp	r3, #0
 8005d00:	f000 8087 	beq.w	8005e12 <_dtoa_r+0x4e2>
 8005d04:	f1bb 0f00 	cmp.w	fp, #0
 8005d08:	dd34      	ble.n	8005d74 <_dtoa_r+0x444>
 8005d0a:	4620      	mov	r0, r4
 8005d0c:	2200      	movs	r2, #0
 8005d0e:	4629      	mov	r1, r5
 8005d10:	4b6c      	ldr	r3, [pc, #432]	@ (8005ec4 <_dtoa_r+0x594>)
 8005d12:	f7fa fbe1 	bl	80004d8 <__aeabi_dmul>
 8005d16:	465c      	mov	r4, fp
 8005d18:	e9cd 0106 	strd	r0, r1, [sp, #24]
 8005d1c:	f107 38ff 	add.w	r8, r7, #4294967295
 8005d20:	3601      	adds	r6, #1
 8005d22:	4630      	mov	r0, r6
 8005d24:	f7fa fb6e 	bl	8000404 <__aeabi_i2d>
 8005d28:	e9dd 2306 	ldrd	r2, r3, [sp, #24]
 8005d2c:	f7fa fbd4 	bl	80004d8 <__aeabi_dmul>
 8005d30:	2200      	movs	r2, #0
 8005d32:	4b65      	ldr	r3, [pc, #404]	@ (8005ec8 <_dtoa_r+0x598>)
 8005d34:	f7fa fa1a 	bl	800016c <__adddf3>
 8005d38:	4605      	mov	r5, r0
 8005d3a:	f1a1 7650 	sub.w	r6, r1, #54525952	@ 0x3400000
 8005d3e:	2c00      	cmp	r4, #0
 8005d40:	d16a      	bne.n	8005e18 <_dtoa_r+0x4e8>
 8005d42:	e9dd 0106 	ldrd	r0, r1, [sp, #24]
 8005d46:	2200      	movs	r2, #0
 8005d48:	4b60      	ldr	r3, [pc, #384]	@ (8005ecc <_dtoa_r+0x59c>)
 8005d4a:	f7fa fa0d 	bl	8000168 <__aeabi_dsub>
 8005d4e:	4602      	mov	r2, r0
 8005d50:	460b      	mov	r3, r1
 8005d52:	e9cd 2306 	strd	r2, r3, [sp, #24]
 8005d56:	462a      	mov	r2, r5
 8005d58:	4633      	mov	r3, r6
 8005d5a:	f7fa fe4d 	bl	80009f8 <__aeabi_dcmpgt>
 8005d5e:	2800      	cmp	r0, #0
 8005d60:	f040 8298 	bne.w	8006294 <_dtoa_r+0x964>
 8005d64:	e9dd 0106 	ldrd	r0, r1, [sp, #24]
 8005d68:	462a      	mov	r2, r5
 8005d6a:	f106 4300 	add.w	r3, r6, #2147483648	@ 0x80000000
 8005d6e:	f7fa fe25 	bl	80009bc <__aeabi_dcmplt>
 8005d72:	bb38      	cbnz	r0, 8005dc4 <_dtoa_r+0x494>
 8005d74:	e9dd 340c 	ldrd	r3, r4, [sp, #48]	@ 0x30
 8005d78:	e9cd 3406 	strd	r3, r4, [sp, #24]
 8005d7c:	9b15      	ldr	r3, [sp, #84]	@ 0x54
 8005d7e:	2b00      	cmp	r3, #0
 8005d80:	f2c0 8157 	blt.w	8006032 <_dtoa_r+0x702>
 8005d84:	2f0e      	cmp	r7, #14
 8005d86:	f300 8154 	bgt.w	8006032 <_dtoa_r+0x702>
 8005d8a:	4b4b      	ldr	r3, [pc, #300]	@ (8005eb8 <_dtoa_r+0x588>)
 8005d8c:	eb03 03c7 	add.w	r3, r3, r7, lsl #3
 8005d90:	e9d3 3400 	ldrd	r3, r4, [r3]
 8005d94:	e9cd 3404 	strd	r3, r4, [sp, #16]
 8005d98:	9b21      	ldr	r3, [sp, #132]	@ 0x84
 8005d9a:	2b00      	cmp	r3, #0
 8005d9c:	f280 80e5 	bge.w	8005f6a <_dtoa_r+0x63a>
 8005da0:	9b08      	ldr	r3, [sp, #32]
 8005da2:	2b00      	cmp	r3, #0
 8005da4:	f300 80e1 	bgt.w	8005f6a <_dtoa_r+0x63a>
 8005da8:	d10c      	bne.n	8005dc4 <_dtoa_r+0x494>
 8005daa:	e9dd 0104 	ldrd	r0, r1, [sp, #16]
 8005dae:	2200      	movs	r2, #0
 8005db0:	4b46      	ldr	r3, [pc, #280]	@ (8005ecc <_dtoa_r+0x59c>)
 8005db2:	f7fa fb91 	bl	80004d8 <__aeabi_dmul>
 8005db6:	e9dd 2306 	ldrd	r2, r3, [sp, #24]
 8005dba:	f7fa fe13 	bl	80009e4 <__aeabi_dcmpge>
 8005dbe:	2800      	cmp	r0, #0
 8005dc0:	f000 8266 	beq.w	8006290 <_dtoa_r+0x960>
 8005dc4:	2400      	movs	r4, #0
 8005dc6:	4625      	mov	r5, r4
 8005dc8:	9b21      	ldr	r3, [sp, #132]	@ 0x84
 8005dca:	4656      	mov	r6, sl
 8005dcc:	ea6f 0803 	mvn.w	r8, r3
 8005dd0:	2700      	movs	r7, #0
 8005dd2:	4621      	mov	r1, r4
 8005dd4:	4648      	mov	r0, r9
 8005dd6:	f000 fcbd 	bl	8006754 <_Bfree>
 8005dda:	2d00      	cmp	r5, #0
 8005ddc:	f000 80bd 	beq.w	8005f5a <_dtoa_r+0x62a>
 8005de0:	b12f      	cbz	r7, 8005dee <_dtoa_r+0x4be>
 8005de2:	42af      	cmp	r7, r5
 8005de4:	d003      	beq.n	8005dee <_dtoa_r+0x4be>
 8005de6:	4639      	mov	r1, r7
 8005de8:	4648      	mov	r0, r9
 8005dea:	f000 fcb3 	bl	8006754 <_Bfree>
 8005dee:	4629      	mov	r1, r5
 8005df0:	4648      	mov	r0, r9
 8005df2:	f000 fcaf 	bl	8006754 <_Bfree>
 8005df6:	e0b0      	b.n	8005f5a <_dtoa_r+0x62a>
 8005df8:	07e2      	lsls	r2, r4, #31
 8005dfa:	d505      	bpl.n	8005e08 <_dtoa_r+0x4d8>
 8005dfc:	e9d5 2300 	ldrd	r2, r3, [r5]
 8005e00:	f7fa fb6a 	bl	80004d8 <__aeabi_dmul>
 8005e04:	2301      	movs	r3, #1
 8005e06:	3601      	adds	r6, #1
 8005e08:	1064      	asrs	r4, r4, #1
 8005e0a:	3508      	adds	r5, #8
 8005e0c:	e762      	b.n	8005cd4 <_dtoa_r+0x3a4>
 8005e0e:	2602      	movs	r6, #2
 8005e10:	e765      	b.n	8005cde <_dtoa_r+0x3ae>
 8005e12:	46b8      	mov	r8, r7
 8005e14:	9c08      	ldr	r4, [sp, #32]
 8005e16:	e784      	b.n	8005d22 <_dtoa_r+0x3f2>
 8005e18:	4b27      	ldr	r3, [pc, #156]	@ (8005eb8 <_dtoa_r+0x588>)
 8005e1a:	990b      	ldr	r1, [sp, #44]	@ 0x2c
 8005e1c:	eb03 03c4 	add.w	r3, r3, r4, lsl #3
 8005e20:	e953 2302 	ldrd	r2, r3, [r3, #-8]
 8005e24:	4454      	add	r4, sl
 8005e26:	2900      	cmp	r1, #0
 8005e28:	d054      	beq.n	8005ed4 <_dtoa_r+0x5a4>
 8005e2a:	2000      	movs	r0, #0
 8005e2c:	4928      	ldr	r1, [pc, #160]	@ (8005ed0 <_dtoa_r+0x5a0>)
 8005e2e:	f7fa fc7d 	bl	800072c <__aeabi_ddiv>
 8005e32:	4633      	mov	r3, r6
 8005e34:	462a      	mov	r2, r5
 8005e36:	f7fa f997 	bl	8000168 <__aeabi_dsub>
 8005e3a:	4656      	mov	r6, sl
 8005e3c:	e9cd 0110 	strd	r0, r1, [sp, #64]	@ 0x40
 8005e40:	e9dd 0106 	ldrd	r0, r1, [sp, #24]
 8005e44:	f7fa fdf8 	bl	8000a38 <__aeabi_d2iz>
 8005e48:	4605      	mov	r5, r0
 8005e4a:	f7fa fadb 	bl	8000404 <__aeabi_i2d>
 8005e4e:	4602      	mov	r2, r0
 8005e50:	460b      	mov	r3, r1
 8005e52:	e9dd 0106 	ldrd	r0, r1, [sp, #24]
 8005e56:	f7fa f987 	bl	8000168 <__aeabi_dsub>
 8005e5a:	4602      	mov	r2, r0
 8005e5c:	460b      	mov	r3, r1
 8005e5e:	3530      	adds	r5, #48	@ 0x30
 8005e60:	e9cd 2306 	strd	r2, r3, [sp, #24]
 8005e64:	e9dd 2310 	ldrd	r2, r3, [sp, #64]	@ 0x40
 8005e68:	f806 5b01 	strb.w	r5, [r6], #1
 8005e6c:	f7fa fda6 	bl	80009bc <__aeabi_dcmplt>
 8005e70:	2800      	cmp	r0, #0
 8005e72:	d172      	bne.n	8005f5a <_dtoa_r+0x62a>
 8005e74:	e9dd 2306 	ldrd	r2, r3, [sp, #24]
 8005e78:	2000      	movs	r0, #0
 8005e7a:	4911      	ldr	r1, [pc, #68]	@ (8005ec0 <_dtoa_r+0x590>)
 8005e7c:	f7fa f974 	bl	8000168 <__aeabi_dsub>
 8005e80:	e9dd 2310 	ldrd	r2, r3, [sp, #64]	@ 0x40
 8005e84:	f7fa fd9a 	bl	80009bc <__aeabi_dcmplt>
 8005e88:	2800      	cmp	r0, #0
 8005e8a:	f040 80b4 	bne.w	8005ff6 <_dtoa_r+0x6c6>
 8005e8e:	42a6      	cmp	r6, r4
 8005e90:	f43f af70 	beq.w	8005d74 <_dtoa_r+0x444>
 8005e94:	e9dd 0110 	ldrd	r0, r1, [sp, #64]	@ 0x40
 8005e98:	2200      	movs	r2, #0
 8005e9a:	4b0a      	ldr	r3, [pc, #40]	@ (8005ec4 <_dtoa_r+0x594>)
 8005e9c:	f7fa fb1c 	bl	80004d8 <__aeabi_dmul>
 8005ea0:	2200      	movs	r2, #0
 8005ea2:	e9cd 0110 	strd	r0, r1, [sp, #64]	@ 0x40
 8005ea6:	e9dd 0106 	ldrd	r0, r1, [sp, #24]
 8005eaa:	4b06      	ldr	r3, [pc, #24]	@ (8005ec4 <_dtoa_r+0x594>)
 8005eac:	f7fa fb14 	bl	80004d8 <__aeabi_dmul>
 8005eb0:	e9cd 0106 	strd	r0, r1, [sp, #24]
 8005eb4:	e7c4      	b.n	8005e40 <_dtoa_r+0x510>
 8005eb6:	bf00      	nop
 8005eb8:	08007b78 	.word	0x08007b78
 8005ebc:	08007b50 	.word	0x08007b50
 8005ec0:	3ff00000 	.word	0x3ff00000
 8005ec4:	40240000 	.word	0x40240000
 8005ec8:	401c0000 	.word	0x401c0000
 8005ecc:	40140000 	.word	0x40140000
 8005ed0:	3fe00000 	.word	0x3fe00000
 8005ed4:	4631      	mov	r1, r6
 8005ed6:	4628      	mov	r0, r5
 8005ed8:	f7fa fafe 	bl	80004d8 <__aeabi_dmul>
 8005edc:	4656      	mov	r6, sl
 8005ede:	e9cd 0110 	strd	r0, r1, [sp, #64]	@ 0x40
 8005ee2:	9413      	str	r4, [sp, #76]	@ 0x4c
 8005ee4:	e9dd 0106 	ldrd	r0, r1, [sp, #24]
 8005ee8:	f7fa fda6 	bl	8000a38 <__aeabi_d2iz>
 8005eec:	4605      	mov	r5, r0
 8005eee:	f7fa fa89 	bl	8000404 <__aeabi_i2d>
 8005ef2:	4602      	mov	r2, r0
 8005ef4:	460b      	mov	r3, r1
 8005ef6:	e9dd 0106 	ldrd	r0, r1, [sp, #24]
 8005efa:	f7fa f935 	bl	8000168 <__aeabi_dsub>
 8005efe:	4602      	mov	r2, r0
 8005f00:	460b      	mov	r3, r1
 8005f02:	3530      	adds	r5, #48	@ 0x30
 8005f04:	f806 5b01 	strb.w	r5, [r6], #1
 8005f08:	42a6      	cmp	r6, r4
 8005f0a:	e9cd 2306 	strd	r2, r3, [sp, #24]
 8005f0e:	f04f 0200 	mov.w	r2, #0
 8005f12:	d124      	bne.n	8005f5e <_dtoa_r+0x62e>
 8005f14:	e9dd 0110 	ldrd	r0, r1, [sp, #64]	@ 0x40
 8005f18:	4bae      	ldr	r3, [pc, #696]	@ (80061d4 <_dtoa_r+0x8a4>)
 8005f1a:	f7fa f927 	bl	800016c <__adddf3>
 8005f1e:	4602      	mov	r2, r0
 8005f20:	460b      	mov	r3, r1
 8005f22:	e9dd 0106 	ldrd	r0, r1, [sp, #24]
 8005f26:	f7fa fd67 	bl	80009f8 <__aeabi_dcmpgt>
 8005f2a:	2800      	cmp	r0, #0
 8005f2c:	d163      	bne.n	8005ff6 <_dtoa_r+0x6c6>
 8005f2e:	e9dd 2310 	ldrd	r2, r3, [sp, #64]	@ 0x40
 8005f32:	2000      	movs	r0, #0
 8005f34:	49a7      	ldr	r1, [pc, #668]	@ (80061d4 <_dtoa_r+0x8a4>)
 8005f36:	f7fa f917 	bl	8000168 <__aeabi_dsub>
 8005f3a:	4602      	mov	r2, r0
 8005f3c:	460b      	mov	r3, r1
 8005f3e:	e9dd 0106 	ldrd	r0, r1, [sp, #24]
 8005f42:	f7fa fd3b 	bl	80009bc <__aeabi_dcmplt>
 8005f46:	2800      	cmp	r0, #0
 8005f48:	f43f af14 	beq.w	8005d74 <_dtoa_r+0x444>
 8005f4c:	9e13      	ldr	r6, [sp, #76]	@ 0x4c
 8005f4e:	1e73      	subs	r3, r6, #1
 8005f50:	9313      	str	r3, [sp, #76]	@ 0x4c
 8005f52:	f816 3c01 	ldrb.w	r3, [r6, #-1]
 8005f56:	2b30      	cmp	r3, #48	@ 0x30
 8005f58:	d0f8      	beq.n	8005f4c <_dtoa_r+0x61c>
 8005f5a:	4647      	mov	r7, r8
 8005f5c:	e03b      	b.n	8005fd6 <_dtoa_r+0x6a6>
 8005f5e:	4b9e      	ldr	r3, [pc, #632]	@ (80061d8 <_dtoa_r+0x8a8>)
 8005f60:	f7fa faba 	bl	80004d8 <__aeabi_dmul>
 8005f64:	e9cd 0106 	strd	r0, r1, [sp, #24]
 8005f68:	e7bc      	b.n	8005ee4 <_dtoa_r+0x5b4>
 8005f6a:	4656      	mov	r6, sl
 8005f6c:	e9dd 4506 	ldrd	r4, r5, [sp, #24]
 8005f70:	e9dd 2304 	ldrd	r2, r3, [sp, #16]
 8005f74:	4620      	mov	r0, r4
 8005f76:	4629      	mov	r1, r5
 8005f78:	f7fa fbd8 	bl	800072c <__aeabi_ddiv>
 8005f7c:	f7fa fd5c 	bl	8000a38 <__aeabi_d2iz>
 8005f80:	4680      	mov	r8, r0
 8005f82:	f7fa fa3f 	bl	8000404 <__aeabi_i2d>
 8005f86:	e9dd 2304 	ldrd	r2, r3, [sp, #16]
 8005f8a:	f7fa faa5 	bl	80004d8 <__aeabi_dmul>
 8005f8e:	4602      	mov	r2, r0
 8005f90:	460b      	mov	r3, r1
 8005f92:	4620      	mov	r0, r4
 8005f94:	4629      	mov	r1, r5
 8005f96:	f7fa f8e7 	bl	8000168 <__aeabi_dsub>
 8005f9a:	f108 0430 	add.w	r4, r8, #48	@ 0x30
 8005f9e:	9d08      	ldr	r5, [sp, #32]
 8005fa0:	f806 4b01 	strb.w	r4, [r6], #1
 8005fa4:	eba6 040a 	sub.w	r4, r6, sl
 8005fa8:	42a5      	cmp	r5, r4
 8005faa:	4602      	mov	r2, r0
 8005fac:	460b      	mov	r3, r1
 8005fae:	d133      	bne.n	8006018 <_dtoa_r+0x6e8>
 8005fb0:	f7fa f8dc 	bl	800016c <__adddf3>
 8005fb4:	e9dd 2304 	ldrd	r2, r3, [sp, #16]
 8005fb8:	4604      	mov	r4, r0
 8005fba:	460d      	mov	r5, r1
 8005fbc:	f7fa fd1c 	bl	80009f8 <__aeabi_dcmpgt>
 8005fc0:	b9c0      	cbnz	r0, 8005ff4 <_dtoa_r+0x6c4>
 8005fc2:	e9dd 2304 	ldrd	r2, r3, [sp, #16]
 8005fc6:	4620      	mov	r0, r4
 8005fc8:	4629      	mov	r1, r5
 8005fca:	f7fa fced 	bl	80009a8 <__aeabi_dcmpeq>
 8005fce:	b110      	cbz	r0, 8005fd6 <_dtoa_r+0x6a6>
 8005fd0:	f018 0f01 	tst.w	r8, #1
 8005fd4:	d10e      	bne.n	8005ff4 <_dtoa_r+0x6c4>
 8005fd6:	4648      	mov	r0, r9
 8005fd8:	9903      	ldr	r1, [sp, #12]
 8005fda:	f000 fbbb 	bl	8006754 <_Bfree>
 8005fde:	2300      	movs	r3, #0
 8005fe0:	7033      	strb	r3, [r6, #0]
 8005fe2:	9b22      	ldr	r3, [sp, #136]	@ 0x88
 8005fe4:	3701      	adds	r7, #1
 8005fe6:	601f      	str	r7, [r3, #0]
 8005fe8:	9b24      	ldr	r3, [sp, #144]	@ 0x90
 8005fea:	2b00      	cmp	r3, #0
 8005fec:	f000 824b 	beq.w	8006486 <_dtoa_r+0xb56>
 8005ff0:	601e      	str	r6, [r3, #0]
 8005ff2:	e248      	b.n	8006486 <_dtoa_r+0xb56>
 8005ff4:	46b8      	mov	r8, r7
 8005ff6:	4633      	mov	r3, r6
 8005ff8:	461e      	mov	r6, r3
 8005ffa:	f813 2d01 	ldrb.w	r2, [r3, #-1]!
 8005ffe:	2a39      	cmp	r2, #57	@ 0x39
 8006000:	d106      	bne.n	8006010 <_dtoa_r+0x6e0>
 8006002:	459a      	cmp	sl, r3
 8006004:	d1f8      	bne.n	8005ff8 <_dtoa_r+0x6c8>
 8006006:	2230      	movs	r2, #48	@ 0x30
 8006008:	f108 0801 	add.w	r8, r8, #1
 800600c:	f88a 2000 	strb.w	r2, [sl]
 8006010:	781a      	ldrb	r2, [r3, #0]
 8006012:	3201      	adds	r2, #1
 8006014:	701a      	strb	r2, [r3, #0]
 8006016:	e7a0      	b.n	8005f5a <_dtoa_r+0x62a>
 8006018:	2200      	movs	r2, #0
 800601a:	4b6f      	ldr	r3, [pc, #444]	@ (80061d8 <_dtoa_r+0x8a8>)
 800601c:	f7fa fa5c 	bl	80004d8 <__aeabi_dmul>
 8006020:	2200      	movs	r2, #0
 8006022:	2300      	movs	r3, #0
 8006024:	4604      	mov	r4, r0
 8006026:	460d      	mov	r5, r1
 8006028:	f7fa fcbe 	bl	80009a8 <__aeabi_dcmpeq>
 800602c:	2800      	cmp	r0, #0
 800602e:	d09f      	beq.n	8005f70 <_dtoa_r+0x640>
 8006030:	e7d1      	b.n	8005fd6 <_dtoa_r+0x6a6>
 8006032:	9a0b      	ldr	r2, [sp, #44]	@ 0x2c
 8006034:	2a00      	cmp	r2, #0
 8006036:	f000 80ea 	beq.w	800620e <_dtoa_r+0x8de>
 800603a:	9a20      	ldr	r2, [sp, #128]	@ 0x80
 800603c:	2a01      	cmp	r2, #1
 800603e:	f300 80cd 	bgt.w	80061dc <_dtoa_r+0x8ac>
 8006042:	9a12      	ldr	r2, [sp, #72]	@ 0x48
 8006044:	2a00      	cmp	r2, #0
 8006046:	f000 80c1 	beq.w	80061cc <_dtoa_r+0x89c>
 800604a:	f203 4333 	addw	r3, r3, #1075	@ 0x433
 800604e:	9c0a      	ldr	r4, [sp, #40]	@ 0x28
 8006050:	9e04      	ldr	r6, [sp, #16]
 8006052:	9a04      	ldr	r2, [sp, #16]
 8006054:	2101      	movs	r1, #1
 8006056:	441a      	add	r2, r3
 8006058:	9204      	str	r2, [sp, #16]
 800605a:	9a09      	ldr	r2, [sp, #36]	@ 0x24
 800605c:	4648      	mov	r0, r9
 800605e:	441a      	add	r2, r3
 8006060:	9209      	str	r2, [sp, #36]	@ 0x24
 8006062:	f000 fc2b 	bl	80068bc <__i2b>
 8006066:	4605      	mov	r5, r0
 8006068:	b166      	cbz	r6, 8006084 <_dtoa_r+0x754>
 800606a:	9b09      	ldr	r3, [sp, #36]	@ 0x24
 800606c:	2b00      	cmp	r3, #0
 800606e:	dd09      	ble.n	8006084 <_dtoa_r+0x754>
 8006070:	42b3      	cmp	r3, r6
 8006072:	bfa8      	it	ge
 8006074:	4633      	movge	r3, r6
 8006076:	9a04      	ldr	r2, [sp, #16]
 8006078:	1af6      	subs	r6, r6, r3
 800607a:	1ad2      	subs	r2, r2, r3
 800607c:	9204      	str	r2, [sp, #16]
 800607e:	9a09      	ldr	r2, [sp, #36]	@ 0x24
 8006080:	1ad3      	subs	r3, r2, r3
 8006082:	9309      	str	r3, [sp, #36]	@ 0x24
 8006084:	9b0a      	ldr	r3, [sp, #40]	@ 0x28
 8006086:	b30b      	cbz	r3, 80060cc <_dtoa_r+0x79c>
 8006088:	9b0b      	ldr	r3, [sp, #44]	@ 0x2c
 800608a:	2b00      	cmp	r3, #0
 800608c:	f000 80c6 	beq.w	800621c <_dtoa_r+0x8ec>
 8006090:	2c00      	cmp	r4, #0
 8006092:	f000 80c0 	beq.w	8006216 <_dtoa_r+0x8e6>
 8006096:	4629      	mov	r1, r5
 8006098:	4622      	mov	r2, r4
 800609a:	4648      	mov	r0, r9
 800609c:	f000 fcc6 	bl	8006a2c <__pow5mult>
 80060a0:	9a03      	ldr	r2, [sp, #12]
 80060a2:	4601      	mov	r1, r0
 80060a4:	4605      	mov	r5, r0
 80060a6:	4648      	mov	r0, r9
 80060a8:	f000 fc1e 	bl	80068e8 <__multiply>
 80060ac:	9903      	ldr	r1, [sp, #12]
 80060ae:	4680      	mov	r8, r0
 80060b0:	4648      	mov	r0, r9
 80060b2:	f000 fb4f 	bl	8006754 <_Bfree>
 80060b6:	9b0a      	ldr	r3, [sp, #40]	@ 0x28
 80060b8:	1b1b      	subs	r3, r3, r4
 80060ba:	930a      	str	r3, [sp, #40]	@ 0x28
 80060bc:	f000 80b1 	beq.w	8006222 <_dtoa_r+0x8f2>
 80060c0:	4641      	mov	r1, r8
 80060c2:	9a0a      	ldr	r2, [sp, #40]	@ 0x28
 80060c4:	4648      	mov	r0, r9
 80060c6:	f000 fcb1 	bl	8006a2c <__pow5mult>
 80060ca:	9003      	str	r0, [sp, #12]
 80060cc:	2101      	movs	r1, #1
 80060ce:	4648      	mov	r0, r9
 80060d0:	f000 fbf4 	bl	80068bc <__i2b>
 80060d4:	9b0e      	ldr	r3, [sp, #56]	@ 0x38
 80060d6:	4604      	mov	r4, r0
 80060d8:	2b00      	cmp	r3, #0
 80060da:	f000 81d8 	beq.w	800648e <_dtoa_r+0xb5e>
 80060de:	461a      	mov	r2, r3
 80060e0:	4601      	mov	r1, r0
 80060e2:	4648      	mov	r0, r9
 80060e4:	f000 fca2 	bl	8006a2c <__pow5mult>
 80060e8:	9b20      	ldr	r3, [sp, #128]	@ 0x80
 80060ea:	4604      	mov	r4, r0
 80060ec:	2b01      	cmp	r3, #1
 80060ee:	f300 809f 	bgt.w	8006230 <_dtoa_r+0x900>
 80060f2:	9b06      	ldr	r3, [sp, #24]
 80060f4:	2b00      	cmp	r3, #0
 80060f6:	f040 8097 	bne.w	8006228 <_dtoa_r+0x8f8>
 80060fa:	9b07      	ldr	r3, [sp, #28]
 80060fc:	f3c3 0313 	ubfx	r3, r3, #0, #20
 8006100:	2b00      	cmp	r3, #0
 8006102:	f040 8093 	bne.w	800622c <_dtoa_r+0x8fc>
 8006106:	9b07      	ldr	r3, [sp, #28]
 8006108:	f023 4300 	bic.w	r3, r3, #2147483648	@ 0x80000000
 800610c:	0d1b      	lsrs	r3, r3, #20
 800610e:	051b      	lsls	r3, r3, #20
 8006110:	b133      	cbz	r3, 8006120 <_dtoa_r+0x7f0>
 8006112:	9b04      	ldr	r3, [sp, #16]
 8006114:	3301      	adds	r3, #1
 8006116:	9304      	str	r3, [sp, #16]
 8006118:	9b09      	ldr	r3, [sp, #36]	@ 0x24
 800611a:	3301      	adds	r3, #1
 800611c:	9309      	str	r3, [sp, #36]	@ 0x24
 800611e:	2301      	movs	r3, #1
 8006120:	930a      	str	r3, [sp, #40]	@ 0x28
 8006122:	9b0e      	ldr	r3, [sp, #56]	@ 0x38
 8006124:	2b00      	cmp	r3, #0
 8006126:	f000 81b8 	beq.w	800649a <_dtoa_r+0xb6a>
 800612a:	6923      	ldr	r3, [r4, #16]
 800612c:	eb04 0383 	add.w	r3, r4, r3, lsl #2
 8006130:	6918      	ldr	r0, [r3, #16]
 8006132:	f000 fb77 	bl	8006824 <__hi0bits>
 8006136:	f1c0 0020 	rsb	r0, r0, #32
 800613a:	9b09      	ldr	r3, [sp, #36]	@ 0x24
 800613c:	4418      	add	r0, r3
 800613e:	f010 001f 	ands.w	r0, r0, #31
 8006142:	f000 8082 	beq.w	800624a <_dtoa_r+0x91a>
 8006146:	f1c0 0320 	rsb	r3, r0, #32
 800614a:	2b04      	cmp	r3, #4
 800614c:	dd73      	ble.n	8006236 <_dtoa_r+0x906>
 800614e:	9b04      	ldr	r3, [sp, #16]
 8006150:	f1c0 001c 	rsb	r0, r0, #28
 8006154:	4403      	add	r3, r0
 8006156:	9304      	str	r3, [sp, #16]
 8006158:	9b09      	ldr	r3, [sp, #36]	@ 0x24
 800615a:	4406      	add	r6, r0
 800615c:	4403      	add	r3, r0
 800615e:	9309      	str	r3, [sp, #36]	@ 0x24
 8006160:	9b04      	ldr	r3, [sp, #16]
 8006162:	2b00      	cmp	r3, #0
 8006164:	dd05      	ble.n	8006172 <_dtoa_r+0x842>
 8006166:	461a      	mov	r2, r3
 8006168:	4648      	mov	r0, r9
 800616a:	9903      	ldr	r1, [sp, #12]
 800616c:	f000 fcb8 	bl	8006ae0 <__lshift>
 8006170:	9003      	str	r0, [sp, #12]
 8006172:	9b09      	ldr	r3, [sp, #36]	@ 0x24
 8006174:	2b00      	cmp	r3, #0
 8006176:	dd05      	ble.n	8006184 <_dtoa_r+0x854>
 8006178:	4621      	mov	r1, r4
 800617a:	461a      	mov	r2, r3
 800617c:	4648      	mov	r0, r9
 800617e:	f000 fcaf 	bl	8006ae0 <__lshift>
 8006182:	4604      	mov	r4, r0
 8006184:	9b0f      	ldr	r3, [sp, #60]	@ 0x3c
 8006186:	2b00      	cmp	r3, #0
 8006188:	d061      	beq.n	800624e <_dtoa_r+0x91e>
 800618a:	4621      	mov	r1, r4
 800618c:	9803      	ldr	r0, [sp, #12]
 800618e:	f000 fd13 	bl	8006bb8 <__mcmp>
 8006192:	2800      	cmp	r0, #0
 8006194:	da5b      	bge.n	800624e <_dtoa_r+0x91e>
 8006196:	2300      	movs	r3, #0
 8006198:	220a      	movs	r2, #10
 800619a:	4648      	mov	r0, r9
 800619c:	9903      	ldr	r1, [sp, #12]
 800619e:	f000 fafb 	bl	8006798 <__multadd>
 80061a2:	9b0b      	ldr	r3, [sp, #44]	@ 0x2c
 80061a4:	f107 38ff 	add.w	r8, r7, #4294967295
 80061a8:	9003      	str	r0, [sp, #12]
 80061aa:	2b00      	cmp	r3, #0
 80061ac:	f000 8177 	beq.w	800649e <_dtoa_r+0xb6e>
 80061b0:	4629      	mov	r1, r5
 80061b2:	2300      	movs	r3, #0
 80061b4:	220a      	movs	r2, #10
 80061b6:	4648      	mov	r0, r9
 80061b8:	f000 faee 	bl	8006798 <__multadd>
 80061bc:	f1bb 0f00 	cmp.w	fp, #0
 80061c0:	4605      	mov	r5, r0
 80061c2:	dc6f      	bgt.n	80062a4 <_dtoa_r+0x974>
 80061c4:	9b20      	ldr	r3, [sp, #128]	@ 0x80
 80061c6:	2b02      	cmp	r3, #2
 80061c8:	dc49      	bgt.n	800625e <_dtoa_r+0x92e>
 80061ca:	e06b      	b.n	80062a4 <_dtoa_r+0x974>
 80061cc:	9b14      	ldr	r3, [sp, #80]	@ 0x50
 80061ce:	f1c3 0336 	rsb	r3, r3, #54	@ 0x36
 80061d2:	e73c      	b.n	800604e <_dtoa_r+0x71e>
 80061d4:	3fe00000 	.word	0x3fe00000
 80061d8:	40240000 	.word	0x40240000
 80061dc:	9b08      	ldr	r3, [sp, #32]
 80061de:	1e5c      	subs	r4, r3, #1
 80061e0:	9b0a      	ldr	r3, [sp, #40]	@ 0x28
 80061e2:	42a3      	cmp	r3, r4
 80061e4:	db09      	blt.n	80061fa <_dtoa_r+0x8ca>
 80061e6:	1b1c      	subs	r4, r3, r4
 80061e8:	9b08      	ldr	r3, [sp, #32]
 80061ea:	2b00      	cmp	r3, #0
 80061ec:	f6bf af30 	bge.w	8006050 <_dtoa_r+0x720>
 80061f0:	9b04      	ldr	r3, [sp, #16]
 80061f2:	9a08      	ldr	r2, [sp, #32]
 80061f4:	1a9e      	subs	r6, r3, r2
 80061f6:	2300      	movs	r3, #0
 80061f8:	e72b      	b.n	8006052 <_dtoa_r+0x722>
 80061fa:	9b0a      	ldr	r3, [sp, #40]	@ 0x28
 80061fc:	9a0e      	ldr	r2, [sp, #56]	@ 0x38
 80061fe:	1ae3      	subs	r3, r4, r3
 8006200:	441a      	add	r2, r3
 8006202:	940a      	str	r4, [sp, #40]	@ 0x28
 8006204:	9e04      	ldr	r6, [sp, #16]
 8006206:	2400      	movs	r4, #0
 8006208:	9b08      	ldr	r3, [sp, #32]
 800620a:	920e      	str	r2, [sp, #56]	@ 0x38
 800620c:	e721      	b.n	8006052 <_dtoa_r+0x722>
 800620e:	9c0a      	ldr	r4, [sp, #40]	@ 0x28
 8006210:	9e04      	ldr	r6, [sp, #16]
 8006212:	9d0b      	ldr	r5, [sp, #44]	@ 0x2c
 8006214:	e728      	b.n	8006068 <_dtoa_r+0x738>
 8006216:	f8dd 800c 	ldr.w	r8, [sp, #12]
 800621a:	e751      	b.n	80060c0 <_dtoa_r+0x790>
 800621c:	9a0a      	ldr	r2, [sp, #40]	@ 0x28
 800621e:	9903      	ldr	r1, [sp, #12]
 8006220:	e750      	b.n	80060c4 <_dtoa_r+0x794>
 8006222:	f8cd 800c 	str.w	r8, [sp, #12]
 8006226:	e751      	b.n	80060cc <_dtoa_r+0x79c>
 8006228:	2300      	movs	r3, #0
 800622a:	e779      	b.n	8006120 <_dtoa_r+0x7f0>
 800622c:	9b06      	ldr	r3, [sp, #24]
 800622e:	e777      	b.n	8006120 <_dtoa_r+0x7f0>
 8006230:	2300      	movs	r3, #0
 8006232:	930a      	str	r3, [sp, #40]	@ 0x28
 8006234:	e779      	b.n	800612a <_dtoa_r+0x7fa>
 8006236:	d093      	beq.n	8006160 <_dtoa_r+0x830>
 8006238:	9a04      	ldr	r2, [sp, #16]
 800623a:	331c      	adds	r3, #28
 800623c:	441a      	add	r2, r3
 800623e:	9204      	str	r2, [sp, #16]
 8006240:	9a09      	ldr	r2, [sp, #36]	@ 0x24
 8006242:	441e      	add	r6, r3
 8006244:	441a      	add	r2, r3
 8006246:	9209      	str	r2, [sp, #36]	@ 0x24
 8006248:	e78a      	b.n	8006160 <_dtoa_r+0x830>
 800624a:	4603      	mov	r3, r0
 800624c:	e7f4      	b.n	8006238 <_dtoa_r+0x908>
 800624e:	9b08      	ldr	r3, [sp, #32]
 8006250:	46b8      	mov	r8, r7
 8006252:	2b00      	cmp	r3, #0
 8006254:	dc20      	bgt.n	8006298 <_dtoa_r+0x968>
 8006256:	469b      	mov	fp, r3
 8006258:	9b20      	ldr	r3, [sp, #128]	@ 0x80
 800625a:	2b02      	cmp	r3, #2
 800625c:	dd1e      	ble.n	800629c <_dtoa_r+0x96c>
 800625e:	f1bb 0f00 	cmp.w	fp, #0
 8006262:	f47f adb1 	bne.w	8005dc8 <_dtoa_r+0x498>
 8006266:	4621      	mov	r1, r4
 8006268:	465b      	mov	r3, fp
 800626a:	2205      	movs	r2, #5
 800626c:	4648      	mov	r0, r9
 800626e:	f000 fa93 	bl	8006798 <__multadd>
 8006272:	4601      	mov	r1, r0
 8006274:	4604      	mov	r4, r0
 8006276:	9803      	ldr	r0, [sp, #12]
 8006278:	f000 fc9e 	bl	8006bb8 <__mcmp>
 800627c:	2800      	cmp	r0, #0
 800627e:	f77f ada3 	ble.w	8005dc8 <_dtoa_r+0x498>
 8006282:	4656      	mov	r6, sl
 8006284:	2331      	movs	r3, #49	@ 0x31
 8006286:	f108 0801 	add.w	r8, r8, #1
 800628a:	f806 3b01 	strb.w	r3, [r6], #1
 800628e:	e59f      	b.n	8005dd0 <_dtoa_r+0x4a0>
 8006290:	46b8      	mov	r8, r7
 8006292:	9c08      	ldr	r4, [sp, #32]
 8006294:	4625      	mov	r5, r4
 8006296:	e7f4      	b.n	8006282 <_dtoa_r+0x952>
 8006298:	f8dd b020 	ldr.w	fp, [sp, #32]
 800629c:	9b0b      	ldr	r3, [sp, #44]	@ 0x2c
 800629e:	2b00      	cmp	r3, #0
 80062a0:	f000 8101 	beq.w	80064a6 <_dtoa_r+0xb76>
 80062a4:	2e00      	cmp	r6, #0
 80062a6:	dd05      	ble.n	80062b4 <_dtoa_r+0x984>
 80062a8:	4629      	mov	r1, r5
 80062aa:	4632      	mov	r2, r6
 80062ac:	4648      	mov	r0, r9
 80062ae:	f000 fc17 	bl	8006ae0 <__lshift>
 80062b2:	4605      	mov	r5, r0
 80062b4:	9b0a      	ldr	r3, [sp, #40]	@ 0x28
 80062b6:	2b00      	cmp	r3, #0
 80062b8:	d05c      	beq.n	8006374 <_dtoa_r+0xa44>
 80062ba:	4648      	mov	r0, r9
 80062bc:	6869      	ldr	r1, [r5, #4]
 80062be:	f000 fa09 	bl	80066d4 <_Balloc>
 80062c2:	4606      	mov	r6, r0
 80062c4:	b928      	cbnz	r0, 80062d2 <_dtoa_r+0x9a2>
 80062c6:	4602      	mov	r2, r0
 80062c8:	f240 21ef 	movw	r1, #751	@ 0x2ef
 80062cc:	4b80      	ldr	r3, [pc, #512]	@ (80064d0 <_dtoa_r+0xba0>)
 80062ce:	f7ff bb43 	b.w	8005958 <_dtoa_r+0x28>
 80062d2:	692a      	ldr	r2, [r5, #16]
 80062d4:	f105 010c 	add.w	r1, r5, #12
 80062d8:	3202      	adds	r2, #2
 80062da:	0092      	lsls	r2, r2, #2
 80062dc:	300c      	adds	r0, #12
 80062de:	f000 ff9d 	bl	800721c <memcpy>
 80062e2:	2201      	movs	r2, #1
 80062e4:	4631      	mov	r1, r6
 80062e6:	4648      	mov	r0, r9
 80062e8:	f000 fbfa 	bl	8006ae0 <__lshift>
 80062ec:	462f      	mov	r7, r5
 80062ee:	4605      	mov	r5, r0
 80062f0:	f10a 0301 	add.w	r3, sl, #1
 80062f4:	9304      	str	r3, [sp, #16]
 80062f6:	eb0a 030b 	add.w	r3, sl, fp
 80062fa:	930a      	str	r3, [sp, #40]	@ 0x28
 80062fc:	9b06      	ldr	r3, [sp, #24]
 80062fe:	f003 0301 	and.w	r3, r3, #1
 8006302:	9309      	str	r3, [sp, #36]	@ 0x24
 8006304:	9b04      	ldr	r3, [sp, #16]
 8006306:	4621      	mov	r1, r4
 8006308:	9803      	ldr	r0, [sp, #12]
 800630a:	f103 3bff 	add.w	fp, r3, #4294967295
 800630e:	f7ff fa84 	bl	800581a <quorem>
 8006312:	4603      	mov	r3, r0
 8006314:	4639      	mov	r1, r7
 8006316:	3330      	adds	r3, #48	@ 0x30
 8006318:	9006      	str	r0, [sp, #24]
 800631a:	9803      	ldr	r0, [sp, #12]
 800631c:	930b      	str	r3, [sp, #44]	@ 0x2c
 800631e:	f000 fc4b 	bl	8006bb8 <__mcmp>
 8006322:	462a      	mov	r2, r5
 8006324:	9008      	str	r0, [sp, #32]
 8006326:	4621      	mov	r1, r4
 8006328:	4648      	mov	r0, r9
 800632a:	f000 fc61 	bl	8006bf0 <__mdiff>
 800632e:	68c2      	ldr	r2, [r0, #12]
 8006330:	4606      	mov	r6, r0
 8006332:	9b0b      	ldr	r3, [sp, #44]	@ 0x2c
 8006334:	bb02      	cbnz	r2, 8006378 <_dtoa_r+0xa48>
 8006336:	4601      	mov	r1, r0
 8006338:	9803      	ldr	r0, [sp, #12]
 800633a:	f000 fc3d 	bl	8006bb8 <__mcmp>
 800633e:	4602      	mov	r2, r0
 8006340:	9b0b      	ldr	r3, [sp, #44]	@ 0x2c
 8006342:	4631      	mov	r1, r6
 8006344:	4648      	mov	r0, r9
 8006346:	e9cd 320b 	strd	r3, r2, [sp, #44]	@ 0x2c
 800634a:	f000 fa03 	bl	8006754 <_Bfree>
 800634e:	9b20      	ldr	r3, [sp, #128]	@ 0x80
 8006350:	9a0c      	ldr	r2, [sp, #48]	@ 0x30
 8006352:	9e04      	ldr	r6, [sp, #16]
 8006354:	ea42 0103 	orr.w	r1, r2, r3
 8006358:	9b09      	ldr	r3, [sp, #36]	@ 0x24
 800635a:	4319      	orrs	r1, r3
 800635c:	9b0b      	ldr	r3, [sp, #44]	@ 0x2c
 800635e:	d10d      	bne.n	800637c <_dtoa_r+0xa4c>
 8006360:	2b39      	cmp	r3, #57	@ 0x39
 8006362:	d027      	beq.n	80063b4 <_dtoa_r+0xa84>
 8006364:	9a08      	ldr	r2, [sp, #32]
 8006366:	2a00      	cmp	r2, #0
 8006368:	dd01      	ble.n	800636e <_dtoa_r+0xa3e>
 800636a:	9b06      	ldr	r3, [sp, #24]
 800636c:	3331      	adds	r3, #49	@ 0x31
 800636e:	f88b 3000 	strb.w	r3, [fp]
 8006372:	e52e      	b.n	8005dd2 <_dtoa_r+0x4a2>
 8006374:	4628      	mov	r0, r5
 8006376:	e7b9      	b.n	80062ec <_dtoa_r+0x9bc>
 8006378:	2201      	movs	r2, #1
 800637a:	e7e2      	b.n	8006342 <_dtoa_r+0xa12>
 800637c:	9908      	ldr	r1, [sp, #32]
 800637e:	2900      	cmp	r1, #0
 8006380:	db04      	blt.n	800638c <_dtoa_r+0xa5c>
 8006382:	9820      	ldr	r0, [sp, #128]	@ 0x80
 8006384:	4301      	orrs	r1, r0
 8006386:	9809      	ldr	r0, [sp, #36]	@ 0x24
 8006388:	4301      	orrs	r1, r0
 800638a:	d120      	bne.n	80063ce <_dtoa_r+0xa9e>
 800638c:	2a00      	cmp	r2, #0
 800638e:	ddee      	ble.n	800636e <_dtoa_r+0xa3e>
 8006390:	2201      	movs	r2, #1
 8006392:	9903      	ldr	r1, [sp, #12]
 8006394:	4648      	mov	r0, r9
 8006396:	9304      	str	r3, [sp, #16]
 8006398:	f000 fba2 	bl	8006ae0 <__lshift>
 800639c:	4621      	mov	r1, r4
 800639e:	9003      	str	r0, [sp, #12]
 80063a0:	f000 fc0a 	bl	8006bb8 <__mcmp>
 80063a4:	2800      	cmp	r0, #0
 80063a6:	9b04      	ldr	r3, [sp, #16]
 80063a8:	dc02      	bgt.n	80063b0 <_dtoa_r+0xa80>
 80063aa:	d1e0      	bne.n	800636e <_dtoa_r+0xa3e>
 80063ac:	07da      	lsls	r2, r3, #31
 80063ae:	d5de      	bpl.n	800636e <_dtoa_r+0xa3e>
 80063b0:	2b39      	cmp	r3, #57	@ 0x39
 80063b2:	d1da      	bne.n	800636a <_dtoa_r+0xa3a>
 80063b4:	2339      	movs	r3, #57	@ 0x39
 80063b6:	f88b 3000 	strb.w	r3, [fp]
 80063ba:	4633      	mov	r3, r6
 80063bc:	461e      	mov	r6, r3
 80063be:	f816 2c01 	ldrb.w	r2, [r6, #-1]
 80063c2:	3b01      	subs	r3, #1
 80063c4:	2a39      	cmp	r2, #57	@ 0x39
 80063c6:	d04e      	beq.n	8006466 <_dtoa_r+0xb36>
 80063c8:	3201      	adds	r2, #1
 80063ca:	701a      	strb	r2, [r3, #0]
 80063cc:	e501      	b.n	8005dd2 <_dtoa_r+0x4a2>
 80063ce:	2a00      	cmp	r2, #0
 80063d0:	dd03      	ble.n	80063da <_dtoa_r+0xaaa>
 80063d2:	2b39      	cmp	r3, #57	@ 0x39
 80063d4:	d0ee      	beq.n	80063b4 <_dtoa_r+0xa84>
 80063d6:	3301      	adds	r3, #1
 80063d8:	e7c9      	b.n	800636e <_dtoa_r+0xa3e>
 80063da:	9a04      	ldr	r2, [sp, #16]
 80063dc:	990a      	ldr	r1, [sp, #40]	@ 0x28
 80063de:	f802 3c01 	strb.w	r3, [r2, #-1]
 80063e2:	428a      	cmp	r2, r1
 80063e4:	d028      	beq.n	8006438 <_dtoa_r+0xb08>
 80063e6:	2300      	movs	r3, #0
 80063e8:	220a      	movs	r2, #10
 80063ea:	9903      	ldr	r1, [sp, #12]
 80063ec:	4648      	mov	r0, r9
 80063ee:	f000 f9d3 	bl	8006798 <__multadd>
 80063f2:	42af      	cmp	r7, r5
 80063f4:	9003      	str	r0, [sp, #12]
 80063f6:	f04f 0300 	mov.w	r3, #0
 80063fa:	f04f 020a 	mov.w	r2, #10
 80063fe:	4639      	mov	r1, r7
 8006400:	4648      	mov	r0, r9
 8006402:	d107      	bne.n	8006414 <_dtoa_r+0xae4>
 8006404:	f000 f9c8 	bl	8006798 <__multadd>
 8006408:	4607      	mov	r7, r0
 800640a:	4605      	mov	r5, r0
 800640c:	9b04      	ldr	r3, [sp, #16]
 800640e:	3301      	adds	r3, #1
 8006410:	9304      	str	r3, [sp, #16]
 8006412:	e777      	b.n	8006304 <_dtoa_r+0x9d4>
 8006414:	f000 f9c0 	bl	8006798 <__multadd>
 8006418:	4629      	mov	r1, r5
 800641a:	4607      	mov	r7, r0
 800641c:	2300      	movs	r3, #0
 800641e:	220a      	movs	r2, #10
 8006420:	4648      	mov	r0, r9
 8006422:	f000 f9b9 	bl	8006798 <__multadd>
 8006426:	4605      	mov	r5, r0
 8006428:	e7f0      	b.n	800640c <_dtoa_r+0xadc>
 800642a:	f1bb 0f00 	cmp.w	fp, #0
 800642e:	bfcc      	ite	gt
 8006430:	465e      	movgt	r6, fp
 8006432:	2601      	movle	r6, #1
 8006434:	2700      	movs	r7, #0
 8006436:	4456      	add	r6, sl
 8006438:	2201      	movs	r2, #1
 800643a:	9903      	ldr	r1, [sp, #12]
 800643c:	4648      	mov	r0, r9
 800643e:	9304      	str	r3, [sp, #16]
 8006440:	f000 fb4e 	bl	8006ae0 <__lshift>
 8006444:	4621      	mov	r1, r4
 8006446:	9003      	str	r0, [sp, #12]
 8006448:	f000 fbb6 	bl	8006bb8 <__mcmp>
 800644c:	2800      	cmp	r0, #0
 800644e:	dcb4      	bgt.n	80063ba <_dtoa_r+0xa8a>
 8006450:	d102      	bne.n	8006458 <_dtoa_r+0xb28>
 8006452:	9b04      	ldr	r3, [sp, #16]
 8006454:	07db      	lsls	r3, r3, #31
 8006456:	d4b0      	bmi.n	80063ba <_dtoa_r+0xa8a>
 8006458:	4633      	mov	r3, r6
 800645a:	461e      	mov	r6, r3
 800645c:	f813 2d01 	ldrb.w	r2, [r3, #-1]!
 8006460:	2a30      	cmp	r2, #48	@ 0x30
 8006462:	d0fa      	beq.n	800645a <_dtoa_r+0xb2a>
 8006464:	e4b5      	b.n	8005dd2 <_dtoa_r+0x4a2>
 8006466:	459a      	cmp	sl, r3
 8006468:	d1a8      	bne.n	80063bc <_dtoa_r+0xa8c>
 800646a:	2331      	movs	r3, #49	@ 0x31
 800646c:	f108 0801 	add.w	r8, r8, #1
 8006470:	f88a 3000 	strb.w	r3, [sl]
 8006474:	e4ad      	b.n	8005dd2 <_dtoa_r+0x4a2>
 8006476:	9b24      	ldr	r3, [sp, #144]	@ 0x90
 8006478:	f8df a058 	ldr.w	sl, [pc, #88]	@ 80064d4 <_dtoa_r+0xba4>
 800647c:	b11b      	cbz	r3, 8006486 <_dtoa_r+0xb56>
 800647e:	f10a 0308 	add.w	r3, sl, #8
 8006482:	9a24      	ldr	r2, [sp, #144]	@ 0x90
 8006484:	6013      	str	r3, [r2, #0]
 8006486:	4650      	mov	r0, sl
 8006488:	b017      	add	sp, #92	@ 0x5c
 800648a:	e8bd 8ff0 	ldmia.w	sp!, {r4, r5, r6, r7, r8, r9, sl, fp, pc}
 800648e:	9b20      	ldr	r3, [sp, #128]	@ 0x80
 8006490:	2b01      	cmp	r3, #1
 8006492:	f77f ae2e 	ble.w	80060f2 <_dtoa_r+0x7c2>
 8006496:	9b0e      	ldr	r3, [sp, #56]	@ 0x38
 8006498:	930a      	str	r3, [sp, #40]	@ 0x28
 800649a:	2001      	movs	r0, #1
 800649c:	e64d      	b.n	800613a <_dtoa_r+0x80a>
 800649e:	f1bb 0f00 	cmp.w	fp, #0
 80064a2:	f77f aed9 	ble.w	8006258 <_dtoa_r+0x928>
 80064a6:	4656      	mov	r6, sl
 80064a8:	4621      	mov	r1, r4
 80064aa:	9803      	ldr	r0, [sp, #12]
 80064ac:	f7ff f9b5 	bl	800581a <quorem>
 80064b0:	f100 0330 	add.w	r3, r0, #48	@ 0x30
 80064b4:	f806 3b01 	strb.w	r3, [r6], #1
 80064b8:	eba6 020a 	sub.w	r2, r6, sl
 80064bc:	4593      	cmp	fp, r2
 80064be:	ddb4      	ble.n	800642a <_dtoa_r+0xafa>
 80064c0:	2300      	movs	r3, #0
 80064c2:	220a      	movs	r2, #10
 80064c4:	4648      	mov	r0, r9
 80064c6:	9903      	ldr	r1, [sp, #12]
 80064c8:	f000 f966 	bl	8006798 <__multadd>
 80064cc:	9003      	str	r0, [sp, #12]
 80064ce:	e7eb      	b.n	80064a8 <_dtoa_r+0xb78>
 80064d0:	08007a82 	.word	0x08007a82
 80064d4:	08007a06 	.word	0x08007a06

080064d8 <_free_r>:
 80064d8:	b538      	push	{r3, r4, r5, lr}
 80064da:	4605      	mov	r5, r0
 80064dc:	2900      	cmp	r1, #0
 80064de:	d040      	beq.n	8006562 <_free_r+0x8a>
 80064e0:	f851 3c04 	ldr.w	r3, [r1, #-4]
 80064e4:	1f0c      	subs	r4, r1, #4
 80064e6:	2b00      	cmp	r3, #0
 80064e8:	bfb8      	it	lt
 80064ea:	18e4      	addlt	r4, r4, r3
 80064ec:	f000 f8e6 	bl	80066bc <__malloc_lock>
 80064f0:	4a1c      	ldr	r2, [pc, #112]	@ (8006564 <_free_r+0x8c>)
 80064f2:	6813      	ldr	r3, [r2, #0]
 80064f4:	b933      	cbnz	r3, 8006504 <_free_r+0x2c>
 80064f6:	6063      	str	r3, [r4, #4]
 80064f8:	6014      	str	r4, [r2, #0]
 80064fa:	4628      	mov	r0, r5
 80064fc:	e8bd 4038 	ldmia.w	sp!, {r3, r4, r5, lr}
 8006500:	f000 b8e2 	b.w	80066c8 <__malloc_unlock>
 8006504:	42a3      	cmp	r3, r4
 8006506:	d908      	bls.n	800651a <_free_r+0x42>
 8006508:	6820      	ldr	r0, [r4, #0]
 800650a:	1821      	adds	r1, r4, r0
 800650c:	428b      	cmp	r3, r1
 800650e:	bf01      	itttt	eq
 8006510:	6819      	ldreq	r1, [r3, #0]
 8006512:	685b      	ldreq	r3, [r3, #4]
 8006514:	1809      	addeq	r1, r1, r0
 8006516:	6021      	streq	r1, [r4, #0]
 8006518:	e7ed      	b.n	80064f6 <_free_r+0x1e>
 800651a:	461a      	mov	r2, r3
 800651c:	685b      	ldr	r3, [r3, #4]
 800651e:	b10b      	cbz	r3, 8006524 <_free_r+0x4c>
 8006520:	42a3      	cmp	r3, r4
 8006522:	d9fa      	bls.n	800651a <_free_r+0x42>
 8006524:	6811      	ldr	r1, [r2, #0]
 8006526:	1850      	adds	r0, r2, r1
 8006528:	42a0      	cmp	r0, r4
 800652a:	d10b      	bne.n	8006544 <_free_r+0x6c>
 800652c:	6820      	ldr	r0, [r4, #0]
 800652e:	4401      	add	r1, r0
 8006530:	1850      	adds	r0, r2, r1
 8006532:	4283      	cmp	r3, r0
 8006534:	6011      	str	r1, [r2, #0]
 8006536:	d1e0      	bne.n	80064fa <_free_r+0x22>
 8006538:	6818      	ldr	r0, [r3, #0]
 800653a:	685b      	ldr	r3, [r3, #4]
 800653c:	4408      	add	r0, r1
 800653e:	6010      	str	r0, [r2, #0]
 8006540:	6053      	str	r3, [r2, #4]
 8006542:	e7da      	b.n	80064fa <_free_r+0x22>
 8006544:	d902      	bls.n	800654c <_free_r+0x74>
 8006546:	230c      	movs	r3, #12
 8006548:	602b      	str	r3, [r5, #0]
 800654a:	e7d6      	b.n	80064fa <_free_r+0x22>
 800654c:	6820      	ldr	r0, [r4, #0]
 800654e:	1821      	adds	r1, r4, r0
 8006550:	428b      	cmp	r3, r1
 8006552:	bf01      	itttt	eq
 8006554:	6819      	ldreq	r1, [r3, #0]
 8006556:	685b      	ldreq	r3, [r3, #4]
 8006558:	1809      	addeq	r1, r1, r0
 800655a:	6021      	streq	r1, [r4, #0]
 800655c:	6063      	str	r3, [r4, #4]
 800655e:	6054      	str	r4, [r2, #4]
 8006560:	e7cb      	b.n	80064fa <_free_r+0x22>
 8006562:	bd38      	pop	{r3, r4, r5, pc}
 8006564:	200004bc 	.word	0x200004bc

08006568 <malloc>:
 8006568:	4b02      	ldr	r3, [pc, #8]	@ (8006574 <malloc+0xc>)
 800656a:	4601      	mov	r1, r0
 800656c:	6818      	ldr	r0, [r3, #0]
 800656e:	f000 b825 	b.w	80065bc <_malloc_r>
 8006572:	bf00      	nop
 8006574:	20000018 	.word	0x20000018

08006578 <sbrk_aligned>:
 8006578:	b570      	push	{r4, r5, r6, lr}
 800657a:	4e0f      	ldr	r6, [pc, #60]	@ (80065b8 <sbrk_aligned+0x40>)
 800657c:	460c      	mov	r4, r1
 800657e:	6831      	ldr	r1, [r6, #0]
 8006580:	4605      	mov	r5, r0
 8006582:	b911      	cbnz	r1, 800658a <sbrk_aligned+0x12>
 8006584:	f000 fe3a 	bl	80071fc <_sbrk_r>
 8006588:	6030      	str	r0, [r6, #0]
 800658a:	4621      	mov	r1, r4
 800658c:	4628      	mov	r0, r5
 800658e:	f000 fe35 	bl	80071fc <_sbrk_r>
 8006592:	1c43      	adds	r3, r0, #1
 8006594:	d103      	bne.n	800659e <sbrk_aligned+0x26>
 8006596:	f04f 34ff 	mov.w	r4, #4294967295
 800659a:	4620      	mov	r0, r4
 800659c:	bd70      	pop	{r4, r5, r6, pc}
 800659e:	1cc4      	adds	r4, r0, #3
 80065a0:	f024 0403 	bic.w	r4, r4, #3
 80065a4:	42a0      	cmp	r0, r4
 80065a6:	d0f8      	beq.n	800659a <sbrk_aligned+0x22>
 80065a8:	1a21      	subs	r1, r4, r0
 80065aa:	4628      	mov	r0, r5
 80065ac:	f000 fe26 	bl	80071fc <_sbrk_r>
 80065b0:	3001      	adds	r0, #1
 80065b2:	d1f2      	bne.n	800659a <sbrk_aligned+0x22>
 80065b4:	e7ef      	b.n	8006596 <sbrk_aligned+0x1e>
 80065b6:	bf00      	nop
 80065b8:	200004b8 	.word	0x200004b8

080065bc <_malloc_r>:
 80065bc:	e92d 43f8 	stmdb	sp!, {r3, r4, r5, r6, r7, r8, r9, lr}
 80065c0:	1ccd      	adds	r5, r1, #3
 80065c2:	f025 0503 	bic.w	r5, r5, #3
 80065c6:	3508      	adds	r5, #8
 80065c8:	2d0c      	cmp	r5, #12
 80065ca:	bf38      	it	cc
 80065cc:	250c      	movcc	r5, #12
 80065ce:	2d00      	cmp	r5, #0
 80065d0:	4606      	mov	r6, r0
 80065d2:	db01      	blt.n	80065d8 <_malloc_r+0x1c>
 80065d4:	42a9      	cmp	r1, r5
 80065d6:	d904      	bls.n	80065e2 <_malloc_r+0x26>
 80065d8:	230c      	movs	r3, #12
 80065da:	6033      	str	r3, [r6, #0]
 80065dc:	2000      	movs	r0, #0
 80065de:	e8bd 83f8 	ldmia.w	sp!, {r3, r4, r5, r6, r7, r8, r9, pc}
 80065e2:	f8df 80d4 	ldr.w	r8, [pc, #212]	@ 80066b8 <_malloc_r+0xfc>
 80065e6:	f000 f869 	bl	80066bc <__malloc_lock>
 80065ea:	f8d8 3000 	ldr.w	r3, [r8]
 80065ee:	461c      	mov	r4, r3
 80065f0:	bb44      	cbnz	r4, 8006644 <_malloc_r+0x88>
 80065f2:	4629      	mov	r1, r5
 80065f4:	4630      	mov	r0, r6
 80065f6:	f7ff ffbf 	bl	8006578 <sbrk_aligned>
 80065fa:	1c43      	adds	r3, r0, #1
 80065fc:	4604      	mov	r4, r0
 80065fe:	d158      	bne.n	80066b2 <_malloc_r+0xf6>
 8006600:	f8d8 4000 	ldr.w	r4, [r8]
 8006604:	4627      	mov	r7, r4
 8006606:	2f00      	cmp	r7, #0
 8006608:	d143      	bne.n	8006692 <_malloc_r+0xd6>
 800660a:	2c00      	cmp	r4, #0
 800660c:	d04b      	beq.n	80066a6 <_malloc_r+0xea>
 800660e:	6823      	ldr	r3, [r4, #0]
 8006610:	4639      	mov	r1, r7
 8006612:	4630      	mov	r0, r6
 8006614:	eb04 0903 	add.w	r9, r4, r3
 8006618:	f000 fdf0 	bl	80071fc <_sbrk_r>
 800661c:	4581      	cmp	r9, r0
 800661e:	d142      	bne.n	80066a6 <_malloc_r+0xea>
 8006620:	6821      	ldr	r1, [r4, #0]
 8006622:	4630      	mov	r0, r6
 8006624:	1a6d      	subs	r5, r5, r1
 8006626:	4629      	mov	r1, r5
 8006628:	f7ff ffa6 	bl	8006578 <sbrk_aligned>
 800662c:	3001      	adds	r0, #1
 800662e:	d03a      	beq.n	80066a6 <_malloc_r+0xea>
 8006630:	6823      	ldr	r3, [r4, #0]
 8006632:	442b      	add	r3, r5
 8006634:	6023      	str	r3, [r4, #0]
 8006636:	f8d8 3000 	ldr.w	r3, [r8]
 800663a:	685a      	ldr	r2, [r3, #4]
 800663c:	bb62      	cbnz	r2, 8006698 <_malloc_r+0xdc>
 800663e:	f8c8 7000 	str.w	r7, [r8]
 8006642:	e00f      	b.n	8006664 <_malloc_r+0xa8>
 8006644:	6822      	ldr	r2, [r4, #0]
 8006646:	1b52      	subs	r2, r2, r5
 8006648:	d420      	bmi.n	800668c <_malloc_r+0xd0>
 800664a:	2a0b      	cmp	r2, #11
 800664c:	d917      	bls.n	800667e <_malloc_r+0xc2>
 800664e:	1961      	adds	r1, r4, r5
 8006650:	42a3      	cmp	r3, r4
 8006652:	6025      	str	r5, [r4, #0]
 8006654:	bf18      	it	ne
 8006656:	6059      	strne	r1, [r3, #4]
 8006658:	6863      	ldr	r3, [r4, #4]
 800665a:	bf08      	it	eq
 800665c:	f8c8 1000 	streq.w	r1, [r8]
 8006660:	5162      	str	r2, [r4, r5]
 8006662:	604b      	str	r3, [r1, #4]
 8006664:	4630      	mov	r0, r6
 8006666:	f000 f82f 	bl	80066c8 <__malloc_unlock>
 800666a:	f104 000b 	add.w	r0, r4, #11
 800666e:	1d23      	adds	r3, r4, #4
 8006670:	f020 0007 	bic.w	r0, r0, #7
 8006674:	1ac2      	subs	r2, r0, r3
 8006676:	bf1c      	itt	ne
 8006678:	1a1b      	subne	r3, r3, r0
 800667a:	50a3      	strne	r3, [r4, r2]
 800667c:	e7af      	b.n	80065de <_malloc_r+0x22>
 800667e:	6862      	ldr	r2, [r4, #4]
 8006680:	42a3      	cmp	r3, r4
 8006682:	bf0c      	ite	eq
 8006684:	f8c8 2000 	streq.w	r2, [r8]
 8006688:	605a      	strne	r2, [r3, #4]
 800668a:	e7eb      	b.n	8006664 <_malloc_r+0xa8>
 800668c:	4623      	mov	r3, r4
 800668e:	6864      	ldr	r4, [r4, #4]
 8006690:	e7ae      	b.n	80065f0 <_malloc_r+0x34>
 8006692:	463c      	mov	r4, r7
 8006694:	687f      	ldr	r7, [r7, #4]
 8006696:	e7b6      	b.n	8006606 <_malloc_r+0x4a>
 8006698:	461a      	mov	r2, r3
 800669a:	685b      	ldr	r3, [r3, #4]
 800669c:	42a3      	cmp	r3, r4
 800669e:	d1fb      	bne.n	8006698 <_malloc_r+0xdc>
 80066a0:	2300      	movs	r3, #0
 80066a2:	6053      	str	r3, [r2, #4]
 80066a4:	e7de      	b.n	8006664 <_malloc_r+0xa8>
 80066a6:	230c      	movs	r3, #12
 80066a8:	4630      	mov	r0, r6
 80066aa:	6033      	str	r3, [r6, #0]
 80066ac:	f000 f80c 	bl	80066c8 <__malloc_unlock>
 80066b0:	e794      	b.n	80065dc <_malloc_r+0x20>
 80066b2:	6005      	str	r5, [r0, #0]
 80066b4:	e7d6      	b.n	8006664 <_malloc_r+0xa8>
 80066b6:	bf00      	nop
 80066b8:	200004bc 	.word	0x200004bc

080066bc <__malloc_lock>:
 80066bc:	4801      	ldr	r0, [pc, #4]	@ (80066c4 <__malloc_lock+0x8>)
 80066be:	f7ff b89c 	b.w	80057fa <__retarget_lock_acquire_recursive>
 80066c2:	bf00      	nop
 80066c4:	200004b4 	.word	0x200004b4

080066c8 <__malloc_unlock>:
 80066c8:	4801      	ldr	r0, [pc, #4]	@ (80066d0 <__malloc_unlock+0x8>)
 80066ca:	f7ff b897 	b.w	80057fc <__retarget_lock_release_recursive>
 80066ce:	bf00      	nop
 80066d0:	200004b4 	.word	0x200004b4

080066d4 <_Balloc>:
 80066d4:	b570      	push	{r4, r5, r6, lr}
 80066d6:	69c6      	ldr	r6, [r0, #28]
 80066d8:	4604      	mov	r4, r0
 80066da:	460d      	mov	r5, r1
 80066dc:	b976      	cbnz	r6, 80066fc <_Balloc+0x28>
 80066de:	2010      	movs	r0, #16
 80066e0:	f7ff ff42 	bl	8006568 <malloc>
 80066e4:	4602      	mov	r2, r0
 80066e6:	61e0      	str	r0, [r4, #28]
 80066e8:	b920      	cbnz	r0, 80066f4 <_Balloc+0x20>
 80066ea:	216b      	movs	r1, #107	@ 0x6b
 80066ec:	4b17      	ldr	r3, [pc, #92]	@ (800674c <_Balloc+0x78>)
 80066ee:	4818      	ldr	r0, [pc, #96]	@ (8006750 <_Balloc+0x7c>)
 80066f0:	f000 fda2 	bl	8007238 <__assert_func>
 80066f4:	e9c0 6601 	strd	r6, r6, [r0, #4]
 80066f8:	6006      	str	r6, [r0, #0]
 80066fa:	60c6      	str	r6, [r0, #12]
 80066fc:	69e6      	ldr	r6, [r4, #28]
 80066fe:	68f3      	ldr	r3, [r6, #12]
 8006700:	b183      	cbz	r3, 8006724 <_Balloc+0x50>
 8006702:	69e3      	ldr	r3, [r4, #28]
 8006704:	68db      	ldr	r3, [r3, #12]
 8006706:	f853 0025 	ldr.w	r0, [r3, r5, lsl #2]
 800670a:	b9b8      	cbnz	r0, 800673c <_Balloc+0x68>
 800670c:	2101      	movs	r1, #1
 800670e:	fa01 f605 	lsl.w	r6, r1, r5
 8006712:	1d72      	adds	r2, r6, #5
 8006714:	4620      	mov	r0, r4
 8006716:	0092      	lsls	r2, r2, #2
 8006718:	f000 fdac 	bl	8007274 <_calloc_r>
 800671c:	b160      	cbz	r0, 8006738 <_Balloc+0x64>
 800671e:	e9c0 5601 	strd	r5, r6, [r0, #4]
 8006722:	e00e      	b.n	8006742 <_Balloc+0x6e>
 8006724:	2221      	movs	r2, #33	@ 0x21
 8006726:	2104      	movs	r1, #4
 8006728:	4620      	mov	r0, r4
 800672a:	f000 fda3 	bl	8007274 <_calloc_r>
 800672e:	69e3      	ldr	r3, [r4, #28]
 8006730:	60f0      	str	r0, [r6, #12]
 8006732:	68db      	ldr	r3, [r3, #12]
 8006734:	2b00      	cmp	r3, #0
 8006736:	d1e4      	bne.n	8006702 <_Balloc+0x2e>
 8006738:	2000      	movs	r0, #0
 800673a:	bd70      	pop	{r4, r5, r6, pc}
 800673c:	6802      	ldr	r2, [r0, #0]
 800673e:	f843 2025 	str.w	r2, [r3, r5, lsl #2]
 8006742:	2300      	movs	r3, #0
 8006744:	e9c0 3303 	strd	r3, r3, [r0, #12]
 8006748:	e7f7      	b.n	800673a <_Balloc+0x66>
 800674a:	bf00      	nop
 800674c:	08007a13 	.word	0x08007a13
 8006750:	08007a93 	.word	0x08007a93

08006754 <_Bfree>:
 8006754:	b570      	push	{r4, r5, r6, lr}
 8006756:	69c6      	ldr	r6, [r0, #28]
 8006758:	4605      	mov	r5, r0
 800675a:	460c      	mov	r4, r1
 800675c:	b976      	cbnz	r6, 800677c <_Bfree+0x28>
 800675e:	2010      	movs	r0, #16
 8006760:	f7ff ff02 	bl	8006568 <malloc>
 8006764:	4602      	mov	r2, r0
 8006766:	61e8      	str	r0, [r5, #28]
 8006768:	b920      	cbnz	r0, 8006774 <_Bfree+0x20>
 800676a:	218f      	movs	r1, #143	@ 0x8f
 800676c:	4b08      	ldr	r3, [pc, #32]	@ (8006790 <_Bfree+0x3c>)
 800676e:	4809      	ldr	r0, [pc, #36]	@ (8006794 <_Bfree+0x40>)
 8006770:	f000 fd62 	bl	8007238 <__assert_func>
 8006774:	e9c0 6601 	strd	r6, r6, [r0, #4]
 8006778:	6006      	str	r6, [r0, #0]
 800677a:	60c6      	str	r6, [r0, #12]
 800677c:	b13c      	cbz	r4, 800678e <_Bfree+0x3a>
 800677e:	69eb      	ldr	r3, [r5, #28]
 8006780:	6862      	ldr	r2, [r4, #4]
 8006782:	68db      	ldr	r3, [r3, #12]
 8006784:	f853 1022 	ldr.w	r1, [r3, r2, lsl #2]
 8006788:	6021      	str	r1, [r4, #0]
 800678a:	f843 4022 	str.w	r4, [r3, r2, lsl #2]
 800678e:	bd70      	pop	{r4, r5, r6, pc}
 8006790:	08007a13 	.word	0x08007a13
 8006794:	08007a93 	.word	0x08007a93

08006798 <__multadd>:
 8006798:	e92d 41f0 	stmdb	sp!, {r4, r5, r6, r7, r8, lr}
 800679c:	4607      	mov	r7, r0
 800679e:	460c      	mov	r4, r1
 80067a0:	461e      	mov	r6, r3
 80067a2:	2000      	movs	r0, #0
 80067a4:	690d      	ldr	r5, [r1, #16]
 80067a6:	f101 0c14 	add.w	ip, r1, #20
 80067aa:	f8dc 3000 	ldr.w	r3, [ip]
 80067ae:	3001      	adds	r0, #1
 80067b0:	b299      	uxth	r1, r3
 80067b2:	fb02 6101 	mla	r1, r2, r1, r6
 80067b6:	0c1e      	lsrs	r6, r3, #16
 80067b8:	0c0b      	lsrs	r3, r1, #16
 80067ba:	fb02 3306 	mla	r3, r2, r6, r3
 80067be:	b289      	uxth	r1, r1
 80067c0:	eb01 4103 	add.w	r1, r1, r3, lsl #16
 80067c4:	4285      	cmp	r5, r0
 80067c6:	ea4f 4613 	mov.w	r6, r3, lsr #16
 80067ca:	f84c 1b04 	str.w	r1, [ip], #4
 80067ce:	dcec      	bgt.n	80067aa <__multadd+0x12>
 80067d0:	b30e      	cbz	r6, 8006816 <__multadd+0x7e>
 80067d2:	68a3      	ldr	r3, [r4, #8]
 80067d4:	42ab      	cmp	r3, r5
 80067d6:	dc19      	bgt.n	800680c <__multadd+0x74>
 80067d8:	6861      	ldr	r1, [r4, #4]
 80067da:	4638      	mov	r0, r7
 80067dc:	3101      	adds	r1, #1
 80067de:	f7ff ff79 	bl	80066d4 <_Balloc>
 80067e2:	4680      	mov	r8, r0
 80067e4:	b928      	cbnz	r0, 80067f2 <__multadd+0x5a>
 80067e6:	4602      	mov	r2, r0
 80067e8:	21ba      	movs	r1, #186	@ 0xba
 80067ea:	4b0c      	ldr	r3, [pc, #48]	@ (800681c <__multadd+0x84>)
 80067ec:	480c      	ldr	r0, [pc, #48]	@ (8006820 <__multadd+0x88>)
 80067ee:	f000 fd23 	bl	8007238 <__assert_func>
 80067f2:	6922      	ldr	r2, [r4, #16]
 80067f4:	f104 010c 	add.w	r1, r4, #12
 80067f8:	3202      	adds	r2, #2
 80067fa:	0092      	lsls	r2, r2, #2
 80067fc:	300c      	adds	r0, #12
 80067fe:	f000 fd0d 	bl	800721c <memcpy>
 8006802:	4621      	mov	r1, r4
 8006804:	4638      	mov	r0, r7
 8006806:	f7ff ffa5 	bl	8006754 <_Bfree>
 800680a:	4644      	mov	r4, r8
 800680c:	eb04 0385 	add.w	r3, r4, r5, lsl #2
 8006810:	3501      	adds	r5, #1
 8006812:	615e      	str	r6, [r3, #20]
 8006814:	6125      	str	r5, [r4, #16]
 8006816:	4620      	mov	r0, r4
 8006818:	e8bd 81f0 	ldmia.w	sp!, {r4, r5, r6, r7, r8, pc}
 800681c:	08007a82 	.word	0x08007a82
 8006820:	08007a93 	.word	0x08007a93

08006824 <__hi0bits>:
 8006824:	4603      	mov	r3, r0
 8006826:	f5b0 3f80 	cmp.w	r0, #65536	@ 0x10000
 800682a:	bf3a      	itte	cc
 800682c:	0403      	lslcc	r3, r0, #16
 800682e:	2010      	movcc	r0, #16
 8006830:	2000      	movcs	r0, #0
 8006832:	f1b3 7f80 	cmp.w	r3, #16777216	@ 0x1000000
 8006836:	bf3c      	itt	cc
 8006838:	021b      	lslcc	r3, r3, #8
 800683a:	3008      	addcc	r0, #8
 800683c:	f1b3 5f80 	cmp.w	r3, #268435456	@ 0x10000000
 8006840:	bf3c      	itt	cc
 8006842:	011b      	lslcc	r3, r3, #4
 8006844:	3004      	addcc	r0, #4
 8006846:	f1b3 4f80 	cmp.w	r3, #1073741824	@ 0x40000000
 800684a:	bf3c      	itt	cc
 800684c:	009b      	lslcc	r3, r3, #2
 800684e:	3002      	addcc	r0, #2
 8006850:	2b00      	cmp	r3, #0
 8006852:	db05      	blt.n	8006860 <__hi0bits+0x3c>
 8006854:	f013 4f80 	tst.w	r3, #1073741824	@ 0x40000000
 8006858:	f100 0001 	add.w	r0, r0, #1
 800685c:	bf08      	it	eq
 800685e:	2020      	moveq	r0, #32
 8006860:	4770      	bx	lr

08006862 <__lo0bits>:
 8006862:	6803      	ldr	r3, [r0, #0]
 8006864:	4602      	mov	r2, r0
 8006866:	f013 0007 	ands.w	r0, r3, #7
 800686a:	d00b      	beq.n	8006884 <__lo0bits+0x22>
 800686c:	07d9      	lsls	r1, r3, #31
 800686e:	d421      	bmi.n	80068b4 <__lo0bits+0x52>
 8006870:	0798      	lsls	r0, r3, #30
 8006872:	bf49      	itett	mi
 8006874:	085b      	lsrmi	r3, r3, #1
 8006876:	089b      	lsrpl	r3, r3, #2
 8006878:	2001      	movmi	r0, #1
 800687a:	6013      	strmi	r3, [r2, #0]
 800687c:	bf5c      	itt	pl
 800687e:	2002      	movpl	r0, #2
 8006880:	6013      	strpl	r3, [r2, #0]
 8006882:	4770      	bx	lr
 8006884:	b299      	uxth	r1, r3
 8006886:	b909      	cbnz	r1, 800688c <__lo0bits+0x2a>
 8006888:	2010      	movs	r0, #16
 800688a:	0c1b      	lsrs	r3, r3, #16
 800688c:	b2d9      	uxtb	r1, r3
 800688e:	b909      	cbnz	r1, 8006894 <__lo0bits+0x32>
 8006890:	3008      	adds	r0, #8
 8006892:	0a1b      	lsrs	r3, r3, #8
 8006894:	0719      	lsls	r1, r3, #28
 8006896:	bf04      	itt	eq
 8006898:	091b      	lsreq	r3, r3, #4
 800689a:	3004      	addeq	r0, #4
 800689c:	0799      	lsls	r1, r3, #30
 800689e:	bf04      	itt	eq
 80068a0:	089b      	lsreq	r3, r3, #2
 80068a2:	3002      	addeq	r0, #2
 80068a4:	07d9      	lsls	r1, r3, #31
 80068a6:	d403      	bmi.n	80068b0 <__lo0bits+0x4e>
 80068a8:	085b      	lsrs	r3, r3, #1
 80068aa:	f100 0001 	add.w	r0, r0, #1
 80068ae:	d003      	beq.n	80068b8 <__lo0bits+0x56>
 80068b0:	6013      	str	r3, [r2, #0]
 80068b2:	4770      	bx	lr
 80068b4:	2000      	movs	r0, #0
 80068b6:	4770      	bx	lr
 80068b8:	2020      	movs	r0, #32
 80068ba:	4770      	bx	lr

080068bc <__i2b>:
 80068bc:	b510      	push	{r4, lr}
 80068be:	460c      	mov	r4, r1
 80068c0:	2101      	movs	r1, #1
 80068c2:	f7ff ff07 	bl	80066d4 <_Balloc>
 80068c6:	4602      	mov	r2, r0
 80068c8:	b928      	cbnz	r0, 80068d6 <__i2b+0x1a>
 80068ca:	f240 1145 	movw	r1, #325	@ 0x145
 80068ce:	4b04      	ldr	r3, [pc, #16]	@ (80068e0 <__i2b+0x24>)
 80068d0:	4804      	ldr	r0, [pc, #16]	@ (80068e4 <__i2b+0x28>)
 80068d2:	f000 fcb1 	bl	8007238 <__assert_func>
 80068d6:	2301      	movs	r3, #1
 80068d8:	6144      	str	r4, [r0, #20]
 80068da:	6103      	str	r3, [r0, #16]
 80068dc:	bd10      	pop	{r4, pc}
 80068de:	bf00      	nop
 80068e0:	08007a82 	.word	0x08007a82
 80068e4:	08007a93 	.word	0x08007a93

080068e8 <__multiply>:
 80068e8:	e92d 4ff0 	stmdb	sp!, {r4, r5, r6, r7, r8, r9, sl, fp, lr}
 80068ec:	4617      	mov	r7, r2
 80068ee:	690a      	ldr	r2, [r1, #16]
 80068f0:	693b      	ldr	r3, [r7, #16]
 80068f2:	4689      	mov	r9, r1
 80068f4:	429a      	cmp	r2, r3
 80068f6:	bfa2      	ittt	ge
 80068f8:	463b      	movge	r3, r7
 80068fa:	460f      	movge	r7, r1
 80068fc:	4699      	movge	r9, r3
 80068fe:	693d      	ldr	r5, [r7, #16]
 8006900:	f8d9 a010 	ldr.w	sl, [r9, #16]
 8006904:	68bb      	ldr	r3, [r7, #8]
 8006906:	6879      	ldr	r1, [r7, #4]
 8006908:	eb05 060a 	add.w	r6, r5, sl
 800690c:	42b3      	cmp	r3, r6
 800690e:	b085      	sub	sp, #20
 8006910:	bfb8      	it	lt
 8006912:	3101      	addlt	r1, #1
 8006914:	f7ff fede 	bl	80066d4 <_Balloc>
 8006918:	b930      	cbnz	r0, 8006928 <__multiply+0x40>
 800691a:	4602      	mov	r2, r0
 800691c:	f44f 71b1 	mov.w	r1, #354	@ 0x162
 8006920:	4b40      	ldr	r3, [pc, #256]	@ (8006a24 <__multiply+0x13c>)
 8006922:	4841      	ldr	r0, [pc, #260]	@ (8006a28 <__multiply+0x140>)
 8006924:	f000 fc88 	bl	8007238 <__assert_func>
 8006928:	f100 0414 	add.w	r4, r0, #20
 800692c:	4623      	mov	r3, r4
 800692e:	2200      	movs	r2, #0
 8006930:	eb04 0e86 	add.w	lr, r4, r6, lsl #2
 8006934:	4573      	cmp	r3, lr
 8006936:	d320      	bcc.n	800697a <__multiply+0x92>
 8006938:	f107 0814 	add.w	r8, r7, #20
 800693c:	f109 0114 	add.w	r1, r9, #20
 8006940:	eb08 0585 	add.w	r5, r8, r5, lsl #2
 8006944:	eb01 038a 	add.w	r3, r1, sl, lsl #2
 8006948:	9302      	str	r3, [sp, #8]
 800694a:	1beb      	subs	r3, r5, r7
 800694c:	3b15      	subs	r3, #21
 800694e:	f023 0303 	bic.w	r3, r3, #3
 8006952:	3304      	adds	r3, #4
 8006954:	3715      	adds	r7, #21
 8006956:	42bd      	cmp	r5, r7
 8006958:	bf38      	it	cc
 800695a:	2304      	movcc	r3, #4
 800695c:	9301      	str	r3, [sp, #4]
 800695e:	9b02      	ldr	r3, [sp, #8]
 8006960:	9103      	str	r1, [sp, #12]
 8006962:	428b      	cmp	r3, r1
 8006964:	d80c      	bhi.n	8006980 <__multiply+0x98>
 8006966:	2e00      	cmp	r6, #0
 8006968:	dd03      	ble.n	8006972 <__multiply+0x8a>
 800696a:	f85e 3d04 	ldr.w	r3, [lr, #-4]!
 800696e:	2b00      	cmp	r3, #0
 8006970:	d055      	beq.n	8006a1e <__multiply+0x136>
 8006972:	6106      	str	r6, [r0, #16]
 8006974:	b005      	add	sp, #20
 8006976:	e8bd 8ff0 	ldmia.w	sp!, {r4, r5, r6, r7, r8, r9, sl, fp, pc}
 800697a:	f843 2b04 	str.w	r2, [r3], #4
 800697e:	e7d9      	b.n	8006934 <__multiply+0x4c>
 8006980:	f8b1 a000 	ldrh.w	sl, [r1]
 8006984:	f1ba 0f00 	cmp.w	sl, #0
 8006988:	d01f      	beq.n	80069ca <__multiply+0xe2>
 800698a:	46c4      	mov	ip, r8
 800698c:	46a1      	mov	r9, r4
 800698e:	2700      	movs	r7, #0
 8006990:	f85c 2b04 	ldr.w	r2, [ip], #4
 8006994:	f8d9 3000 	ldr.w	r3, [r9]
 8006998:	fa1f fb82 	uxth.w	fp, r2
 800699c:	b29b      	uxth	r3, r3
 800699e:	fb0a 330b 	mla	r3, sl, fp, r3
 80069a2:	443b      	add	r3, r7
 80069a4:	f8d9 7000 	ldr.w	r7, [r9]
 80069a8:	0c12      	lsrs	r2, r2, #16
 80069aa:	0c3f      	lsrs	r7, r7, #16
 80069ac:	fb0a 7202 	mla	r2, sl, r2, r7
 80069b0:	eb02 4213 	add.w	r2, r2, r3, lsr #16
 80069b4:	b29b      	uxth	r3, r3
 80069b6:	ea43 4302 	orr.w	r3, r3, r2, lsl #16
 80069ba:	4565      	cmp	r5, ip
 80069bc:	ea4f 4712 	mov.w	r7, r2, lsr #16
 80069c0:	f849 3b04 	str.w	r3, [r9], #4
 80069c4:	d8e4      	bhi.n	8006990 <__multiply+0xa8>
 80069c6:	9b01      	ldr	r3, [sp, #4]
 80069c8:	50e7      	str	r7, [r4, r3]
 80069ca:	9b03      	ldr	r3, [sp, #12]
 80069cc:	3104      	adds	r1, #4
 80069ce:	f8b3 9002 	ldrh.w	r9, [r3, #2]
 80069d2:	f1b9 0f00 	cmp.w	r9, #0
 80069d6:	d020      	beq.n	8006a1a <__multiply+0x132>
 80069d8:	4647      	mov	r7, r8
 80069da:	46a4      	mov	ip, r4
 80069dc:	f04f 0a00 	mov.w	sl, #0
 80069e0:	6823      	ldr	r3, [r4, #0]
 80069e2:	f8b7 b000 	ldrh.w	fp, [r7]
 80069e6:	f8bc 2002 	ldrh.w	r2, [ip, #2]
 80069ea:	b29b      	uxth	r3, r3
 80069ec:	fb09 220b 	mla	r2, r9, fp, r2
 80069f0:	4452      	add	r2, sl
 80069f2:	ea43 4302 	orr.w	r3, r3, r2, lsl #16
 80069f6:	f84c 3b04 	str.w	r3, [ip], #4
 80069fa:	f857 3b04 	ldr.w	r3, [r7], #4
 80069fe:	ea4f 4a13 	mov.w	sl, r3, lsr #16
 8006a02:	f8bc 3000 	ldrh.w	r3, [ip]
 8006a06:	42bd      	cmp	r5, r7
 8006a08:	fb09 330a 	mla	r3, r9, sl, r3
 8006a0c:	eb03 4312 	add.w	r3, r3, r2, lsr #16
 8006a10:	ea4f 4a13 	mov.w	sl, r3, lsr #16
 8006a14:	d8e5      	bhi.n	80069e2 <__multiply+0xfa>
 8006a16:	9a01      	ldr	r2, [sp, #4]
 8006a18:	50a3      	str	r3, [r4, r2]
 8006a1a:	3404      	adds	r4, #4
 8006a1c:	e79f      	b.n	800695e <__multiply+0x76>
 8006a1e:	3e01      	subs	r6, #1
 8006a20:	e7a1      	b.n	8006966 <__multiply+0x7e>
 8006a22:	bf00      	nop
 8006a24:	08007a82 	.word	0x08007a82
 8006a28:	08007a93 	.word	0x08007a93

08006a2c <__pow5mult>:
 8006a2c:	e92d 43f8 	stmdb	sp!, {r3, r4, r5, r6, r7, r8, r9, lr}
 8006a30:	4615      	mov	r5, r2
 8006a32:	f012 0203 	ands.w	r2, r2, #3
 8006a36:	4607      	mov	r7, r0
 8006a38:	460e      	mov	r6, r1
 8006a3a:	d007      	beq.n	8006a4c <__pow5mult+0x20>
 8006a3c:	4c25      	ldr	r4, [pc, #148]	@ (8006ad4 <__pow5mult+0xa8>)
 8006a3e:	3a01      	subs	r2, #1
 8006a40:	2300      	movs	r3, #0
 8006a42:	f854 2022 	ldr.w	r2, [r4, r2, lsl #2]
 8006a46:	f7ff fea7 	bl	8006798 <__multadd>
 8006a4a:	4606      	mov	r6, r0
 8006a4c:	10ad      	asrs	r5, r5, #2
 8006a4e:	d03d      	beq.n	8006acc <__pow5mult+0xa0>
 8006a50:	69fc      	ldr	r4, [r7, #28]
 8006a52:	b97c      	cbnz	r4, 8006a74 <__pow5mult+0x48>
 8006a54:	2010      	movs	r0, #16
 8006a56:	f7ff fd87 	bl	8006568 <malloc>
 8006a5a:	4602      	mov	r2, r0
 8006a5c:	61f8      	str	r0, [r7, #28]
 8006a5e:	b928      	cbnz	r0, 8006a6c <__pow5mult+0x40>
 8006a60:	f240 11b3 	movw	r1, #435	@ 0x1b3
 8006a64:	4b1c      	ldr	r3, [pc, #112]	@ (8006ad8 <__pow5mult+0xac>)
 8006a66:	481d      	ldr	r0, [pc, #116]	@ (8006adc <__pow5mult+0xb0>)
 8006a68:	f000 fbe6 	bl	8007238 <__assert_func>
 8006a6c:	e9c0 4401 	strd	r4, r4, [r0, #4]
 8006a70:	6004      	str	r4, [r0, #0]
 8006a72:	60c4      	str	r4, [r0, #12]
 8006a74:	f8d7 801c 	ldr.w	r8, [r7, #28]
 8006a78:	f8d8 4008 	ldr.w	r4, [r8, #8]
 8006a7c:	b94c      	cbnz	r4, 8006a92 <__pow5mult+0x66>
 8006a7e:	f240 2171 	movw	r1, #625	@ 0x271
 8006a82:	4638      	mov	r0, r7
 8006a84:	f7ff ff1a 	bl	80068bc <__i2b>
 8006a88:	2300      	movs	r3, #0
 8006a8a:	4604      	mov	r4, r0
 8006a8c:	f8c8 0008 	str.w	r0, [r8, #8]
 8006a90:	6003      	str	r3, [r0, #0]
 8006a92:	f04f 0900 	mov.w	r9, #0
 8006a96:	07eb      	lsls	r3, r5, #31
 8006a98:	d50a      	bpl.n	8006ab0 <__pow5mult+0x84>
 8006a9a:	4631      	mov	r1, r6
 8006a9c:	4622      	mov	r2, r4
 8006a9e:	4638      	mov	r0, r7
 8006aa0:	f7ff ff22 	bl	80068e8 <__multiply>
 8006aa4:	4680      	mov	r8, r0
 8006aa6:	4631      	mov	r1, r6
 8006aa8:	4638      	mov	r0, r7
 8006aaa:	f7ff fe53 	bl	8006754 <_Bfree>
 8006aae:	4646      	mov	r6, r8
 8006ab0:	106d      	asrs	r5, r5, #1
 8006ab2:	d00b      	beq.n	8006acc <__pow5mult+0xa0>
 8006ab4:	6820      	ldr	r0, [r4, #0]
 8006ab6:	b938      	cbnz	r0, 8006ac8 <__pow5mult+0x9c>
 8006ab8:	4622      	mov	r2, r4
 8006aba:	4621      	mov	r1, r4
 8006abc:	4638      	mov	r0, r7
 8006abe:	f7ff ff13 	bl	80068e8 <__multiply>
 8006ac2:	6020      	str	r0, [r4, #0]
 8006ac4:	f8c0 9000 	str.w	r9, [r0]
 8006ac8:	4604      	mov	r4, r0
 8006aca:	e7e4      	b.n	8006a96 <__pow5mult+0x6a>
 8006acc:	4630      	mov	r0, r6
 8006ace:	e8bd 83f8 	ldmia.w	sp!, {r3, r4, r5, r6, r7, r8, r9, pc}
 8006ad2:	bf00      	nop
 8006ad4:	08007b44 	.word	0x08007b44
 8006ad8:	08007a13 	.word	0x08007a13
 8006adc:	08007a93 	.word	0x08007a93

08006ae0 <__lshift>:
 8006ae0:	e92d 47f0 	stmdb	sp!, {r4, r5, r6, r7, r8, r9, sl, lr}
 8006ae4:	460c      	mov	r4, r1
 8006ae6:	4607      	mov	r7, r0
 8006ae8:	4691      	mov	r9, r2
 8006aea:	6923      	ldr	r3, [r4, #16]
 8006aec:	6849      	ldr	r1, [r1, #4]
 8006aee:	eb03 1862 	add.w	r8, r3, r2, asr #5
 8006af2:	68a3      	ldr	r3, [r4, #8]
 8006af4:	ea4f 1a62 	mov.w	sl, r2, asr #5
 8006af8:	f108 0601 	add.w	r6, r8, #1
 8006afc:	42b3      	cmp	r3, r6
 8006afe:	db0b      	blt.n	8006b18 <__lshift+0x38>
 8006b00:	4638      	mov	r0, r7
 8006b02:	f7ff fde7 	bl	80066d4 <_Balloc>
 8006b06:	4605      	mov	r5, r0
 8006b08:	b948      	cbnz	r0, 8006b1e <__lshift+0x3e>
 8006b0a:	4602      	mov	r2, r0
 8006b0c:	f44f 71ef 	mov.w	r1, #478	@ 0x1de
 8006b10:	4b27      	ldr	r3, [pc, #156]	@ (8006bb0 <__lshift+0xd0>)
 8006b12:	4828      	ldr	r0, [pc, #160]	@ (8006bb4 <__lshift+0xd4>)
 8006b14:	f000 fb90 	bl	8007238 <__assert_func>
 8006b18:	3101      	adds	r1, #1
 8006b1a:	005b      	lsls	r3, r3, #1
 8006b1c:	e7ee      	b.n	8006afc <__lshift+0x1c>
 8006b1e:	2300      	movs	r3, #0
 8006b20:	f100 0114 	add.w	r1, r0, #20
 8006b24:	f100 0210 	add.w	r2, r0, #16
 8006b28:	4618      	mov	r0, r3
 8006b2a:	4553      	cmp	r3, sl
 8006b2c:	db33      	blt.n	8006b96 <__lshift+0xb6>
 8006b2e:	6920      	ldr	r0, [r4, #16]
 8006b30:	ea2a 7aea 	bic.w	sl, sl, sl, asr #31
 8006b34:	f104 0314 	add.w	r3, r4, #20
 8006b38:	f019 091f 	ands.w	r9, r9, #31
 8006b3c:	eb01 018a 	add.w	r1, r1, sl, lsl #2
 8006b40:	eb03 0c80 	add.w	ip, r3, r0, lsl #2
 8006b44:	d02b      	beq.n	8006b9e <__lshift+0xbe>
 8006b46:	468a      	mov	sl, r1
 8006b48:	2200      	movs	r2, #0
 8006b4a:	f1c9 0e20 	rsb	lr, r9, #32
 8006b4e:	6818      	ldr	r0, [r3, #0]
 8006b50:	fa00 f009 	lsl.w	r0, r0, r9
 8006b54:	4310      	orrs	r0, r2
 8006b56:	f84a 0b04 	str.w	r0, [sl], #4
 8006b5a:	f853 2b04 	ldr.w	r2, [r3], #4
 8006b5e:	459c      	cmp	ip, r3
 8006b60:	fa22 f20e 	lsr.w	r2, r2, lr
 8006b64:	d8f3      	bhi.n	8006b4e <__lshift+0x6e>
 8006b66:	ebac 0304 	sub.w	r3, ip, r4
 8006b6a:	3b15      	subs	r3, #21
 8006b6c:	f023 0303 	bic.w	r3, r3, #3
 8006b70:	3304      	adds	r3, #4
 8006b72:	f104 0015 	add.w	r0, r4, #21
 8006b76:	4560      	cmp	r0, ip
 8006b78:	bf88      	it	hi
 8006b7a:	2304      	movhi	r3, #4
 8006b7c:	50ca      	str	r2, [r1, r3]
 8006b7e:	b10a      	cbz	r2, 8006b84 <__lshift+0xa4>
 8006b80:	f108 0602 	add.w	r6, r8, #2
 8006b84:	3e01      	subs	r6, #1
 8006b86:	4638      	mov	r0, r7
 8006b88:	4621      	mov	r1, r4
 8006b8a:	612e      	str	r6, [r5, #16]
 8006b8c:	f7ff fde2 	bl	8006754 <_Bfree>
 8006b90:	4628      	mov	r0, r5
 8006b92:	e8bd 87f0 	ldmia.w	sp!, {r4, r5, r6, r7, r8, r9, sl, pc}
 8006b96:	f842 0f04 	str.w	r0, [r2, #4]!
 8006b9a:	3301      	adds	r3, #1
 8006b9c:	e7c5      	b.n	8006b2a <__lshift+0x4a>
 8006b9e:	3904      	subs	r1, #4
 8006ba0:	f853 2b04 	ldr.w	r2, [r3], #4
 8006ba4:	459c      	cmp	ip, r3
 8006ba6:	f841 2f04 	str.w	r2, [r1, #4]!
 8006baa:	d8f9      	bhi.n	8006ba0 <__lshift+0xc0>
 8006bac:	e7ea      	b.n	8006b84 <__lshift+0xa4>
 8006bae:	bf00      	nop
 8006bb0:	08007a82 	.word	0x08007a82
 8006bb4:	08007a93 	.word	0x08007a93

08006bb8 <__mcmp>:
 8006bb8:	4603      	mov	r3, r0
 8006bba:	690a      	ldr	r2, [r1, #16]
 8006bbc:	6900      	ldr	r0, [r0, #16]
 8006bbe:	b530      	push	{r4, r5, lr}
 8006bc0:	1a80      	subs	r0, r0, r2
 8006bc2:	d10e      	bne.n	8006be2 <__mcmp+0x2a>
 8006bc4:	3314      	adds	r3, #20
 8006bc6:	3114      	adds	r1, #20
 8006bc8:	eb03 0482 	add.w	r4, r3, r2, lsl #2
 8006bcc:	eb01 0182 	add.w	r1, r1, r2, lsl #2
 8006bd0:	f854 5d04 	ldr.w	r5, [r4, #-4]!
 8006bd4:	f851 2d04 	ldr.w	r2, [r1, #-4]!
 8006bd8:	4295      	cmp	r5, r2
 8006bda:	d003      	beq.n	8006be4 <__mcmp+0x2c>
 8006bdc:	d205      	bcs.n	8006bea <__mcmp+0x32>
 8006bde:	f04f 30ff 	mov.w	r0, #4294967295
 8006be2:	bd30      	pop	{r4, r5, pc}
 8006be4:	42a3      	cmp	r3, r4
 8006be6:	d3f3      	bcc.n	8006bd0 <__mcmp+0x18>
 8006be8:	e7fb      	b.n	8006be2 <__mcmp+0x2a>
 8006bea:	2001      	movs	r0, #1
 8006bec:	e7f9      	b.n	8006be2 <__mcmp+0x2a>
	...

08006bf0 <__mdiff>:
 8006bf0:	e92d 4ff7 	stmdb	sp!, {r0, r1, r2, r4, r5, r6, r7, r8, r9, sl, fp, lr}
 8006bf4:	4689      	mov	r9, r1
 8006bf6:	4606      	mov	r6, r0
 8006bf8:	4611      	mov	r1, r2
 8006bfa:	4648      	mov	r0, r9
 8006bfc:	4614      	mov	r4, r2
 8006bfe:	f7ff ffdb 	bl	8006bb8 <__mcmp>
 8006c02:	1e05      	subs	r5, r0, #0
 8006c04:	d112      	bne.n	8006c2c <__mdiff+0x3c>
 8006c06:	4629      	mov	r1, r5
 8006c08:	4630      	mov	r0, r6
 8006c0a:	f7ff fd63 	bl	80066d4 <_Balloc>
 8006c0e:	4602      	mov	r2, r0
 8006c10:	b928      	cbnz	r0, 8006c1e <__mdiff+0x2e>
 8006c12:	f240 2137 	movw	r1, #567	@ 0x237
 8006c16:	4b3e      	ldr	r3, [pc, #248]	@ (8006d10 <__mdiff+0x120>)
 8006c18:	483e      	ldr	r0, [pc, #248]	@ (8006d14 <__mdiff+0x124>)
 8006c1a:	f000 fb0d 	bl	8007238 <__assert_func>
 8006c1e:	2301      	movs	r3, #1
 8006c20:	e9c0 3504 	strd	r3, r5, [r0, #16]
 8006c24:	4610      	mov	r0, r2
 8006c26:	b003      	add	sp, #12
 8006c28:	e8bd 8ff0 	ldmia.w	sp!, {r4, r5, r6, r7, r8, r9, sl, fp, pc}
 8006c2c:	bfbc      	itt	lt
 8006c2e:	464b      	movlt	r3, r9
 8006c30:	46a1      	movlt	r9, r4
 8006c32:	4630      	mov	r0, r6
 8006c34:	f8d9 1004 	ldr.w	r1, [r9, #4]
 8006c38:	bfba      	itte	lt
 8006c3a:	461c      	movlt	r4, r3
 8006c3c:	2501      	movlt	r5, #1
 8006c3e:	2500      	movge	r5, #0
 8006c40:	f7ff fd48 	bl	80066d4 <_Balloc>
 8006c44:	4602      	mov	r2, r0
 8006c46:	b918      	cbnz	r0, 8006c50 <__mdiff+0x60>
 8006c48:	f240 2145 	movw	r1, #581	@ 0x245
 8006c4c:	4b30      	ldr	r3, [pc, #192]	@ (8006d10 <__mdiff+0x120>)
 8006c4e:	e7e3      	b.n	8006c18 <__mdiff+0x28>
 8006c50:	f100 0b14 	add.w	fp, r0, #20
 8006c54:	f8d9 7010 	ldr.w	r7, [r9, #16]
 8006c58:	f109 0310 	add.w	r3, r9, #16
 8006c5c:	60c5      	str	r5, [r0, #12]
 8006c5e:	f04f 0c00 	mov.w	ip, #0
 8006c62:	f109 0514 	add.w	r5, r9, #20
 8006c66:	46d9      	mov	r9, fp
 8006c68:	6926      	ldr	r6, [r4, #16]
 8006c6a:	f104 0e14 	add.w	lr, r4, #20
 8006c6e:	eb05 0887 	add.w	r8, r5, r7, lsl #2
 8006c72:	eb0e 0686 	add.w	r6, lr, r6, lsl #2
 8006c76:	9301      	str	r3, [sp, #4]
 8006c78:	9b01      	ldr	r3, [sp, #4]
 8006c7a:	f85e 0b04 	ldr.w	r0, [lr], #4
 8006c7e:	f853 af04 	ldr.w	sl, [r3, #4]!
 8006c82:	b281      	uxth	r1, r0
 8006c84:	9301      	str	r3, [sp, #4]
 8006c86:	fa1f f38a 	uxth.w	r3, sl
 8006c8a:	1a5b      	subs	r3, r3, r1
 8006c8c:	0c00      	lsrs	r0, r0, #16
 8006c8e:	4463      	add	r3, ip
 8006c90:	ebc0 401a 	rsb	r0, r0, sl, lsr #16
 8006c94:	eb00 4023 	add.w	r0, r0, r3, asr #16
 8006c98:	b29b      	uxth	r3, r3
 8006c9a:	ea43 4300 	orr.w	r3, r3, r0, lsl #16
 8006c9e:	4576      	cmp	r6, lr
 8006ca0:	ea4f 4c20 	mov.w	ip, r0, asr #16
 8006ca4:	f849 3b04 	str.w	r3, [r9], #4
 8006ca8:	d8e6      	bhi.n	8006c78 <__mdiff+0x88>
 8006caa:	1b33      	subs	r3, r6, r4
 8006cac:	3b15      	subs	r3, #21
 8006cae:	f023 0303 	bic.w	r3, r3, #3
 8006cb2:	3415      	adds	r4, #21
 8006cb4:	3304      	adds	r3, #4
 8006cb6:	42a6      	cmp	r6, r4
 8006cb8:	bf38      	it	cc
 8006cba:	2304      	movcc	r3, #4
 8006cbc:	441d      	add	r5, r3
 8006cbe:	445b      	add	r3, fp
 8006cc0:	461e      	mov	r6, r3
 8006cc2:	462c      	mov	r4, r5
 8006cc4:	4544      	cmp	r4, r8
 8006cc6:	d30e      	bcc.n	8006ce6 <__mdiff+0xf6>
 8006cc8:	f108 0103 	add.w	r1, r8, #3
 8006ccc:	1b49      	subs	r1, r1, r5
 8006cce:	f021 0103 	bic.w	r1, r1, #3
 8006cd2:	3d03      	subs	r5, #3
 8006cd4:	45a8      	cmp	r8, r5
 8006cd6:	bf38      	it	cc
 8006cd8:	2100      	movcc	r1, #0
 8006cda:	440b      	add	r3, r1
 8006cdc:	f853 1d04 	ldr.w	r1, [r3, #-4]!
 8006ce0:	b199      	cbz	r1, 8006d0a <__mdiff+0x11a>
 8006ce2:	6117      	str	r7, [r2, #16]
 8006ce4:	e79e      	b.n	8006c24 <__mdiff+0x34>
 8006ce6:	46e6      	mov	lr, ip
 8006ce8:	f854 1b04 	ldr.w	r1, [r4], #4
 8006cec:	fa1f fc81 	uxth.w	ip, r1
 8006cf0:	44f4      	add	ip, lr
 8006cf2:	0c08      	lsrs	r0, r1, #16
 8006cf4:	4471      	add	r1, lr
 8006cf6:	eb00 402c 	add.w	r0, r0, ip, asr #16
 8006cfa:	b289      	uxth	r1, r1
 8006cfc:	ea41 4100 	orr.w	r1, r1, r0, lsl #16
 8006d00:	ea4f 4c20 	mov.w	ip, r0, asr #16
 8006d04:	f846 1b04 	str.w	r1, [r6], #4
 8006d08:	e7dc      	b.n	8006cc4 <__mdiff+0xd4>
 8006d0a:	3f01      	subs	r7, #1
 8006d0c:	e7e6      	b.n	8006cdc <__mdiff+0xec>
 8006d0e:	bf00      	nop
 8006d10:	08007a82 	.word	0x08007a82
 8006d14:	08007a93 	.word	0x08007a93

08006d18 <__d2b>:
 8006d18:	e92d 4373 	stmdb	sp!, {r0, r1, r4, r5, r6, r8, r9, lr}
 8006d1c:	2101      	movs	r1, #1
 8006d1e:	4690      	mov	r8, r2
 8006d20:	4699      	mov	r9, r3
 8006d22:	9e08      	ldr	r6, [sp, #32]
 8006d24:	f7ff fcd6 	bl	80066d4 <_Balloc>
 8006d28:	4604      	mov	r4, r0
 8006d2a:	b930      	cbnz	r0, 8006d3a <__d2b+0x22>
 8006d2c:	4602      	mov	r2, r0
 8006d2e:	f240 310f 	movw	r1, #783	@ 0x30f
 8006d32:	4b23      	ldr	r3, [pc, #140]	@ (8006dc0 <__d2b+0xa8>)
 8006d34:	4823      	ldr	r0, [pc, #140]	@ (8006dc4 <__d2b+0xac>)
 8006d36:	f000 fa7f 	bl	8007238 <__assert_func>
 8006d3a:	f3c9 550a 	ubfx	r5, r9, #20, #11
 8006d3e:	f3c9 0313 	ubfx	r3, r9, #0, #20
 8006d42:	b10d      	cbz	r5, 8006d48 <__d2b+0x30>
 8006d44:	f443 1380 	orr.w	r3, r3, #1048576	@ 0x100000
 8006d48:	9301      	str	r3, [sp, #4]
 8006d4a:	f1b8 0300 	subs.w	r3, r8, #0
 8006d4e:	d024      	beq.n	8006d9a <__d2b+0x82>
 8006d50:	4668      	mov	r0, sp
 8006d52:	9300      	str	r3, [sp, #0]
 8006d54:	f7ff fd85 	bl	8006862 <__lo0bits>
 8006d58:	e9dd 1200 	ldrd	r1, r2, [sp]
 8006d5c:	b1d8      	cbz	r0, 8006d96 <__d2b+0x7e>
 8006d5e:	f1c0 0320 	rsb	r3, r0, #32
 8006d62:	fa02 f303 	lsl.w	r3, r2, r3
 8006d66:	430b      	orrs	r3, r1
 8006d68:	40c2      	lsrs	r2, r0
 8006d6a:	6163      	str	r3, [r4, #20]
 8006d6c:	9201      	str	r2, [sp, #4]
 8006d6e:	9b01      	ldr	r3, [sp, #4]
 8006d70:	2b00      	cmp	r3, #0
 8006d72:	bf0c      	ite	eq
 8006d74:	2201      	moveq	r2, #1
 8006d76:	2202      	movne	r2, #2
 8006d78:	61a3      	str	r3, [r4, #24]
 8006d7a:	6122      	str	r2, [r4, #16]
 8006d7c:	b1ad      	cbz	r5, 8006daa <__d2b+0x92>
 8006d7e:	f2a5 4533 	subw	r5, r5, #1075	@ 0x433
 8006d82:	4405      	add	r5, r0
 8006d84:	6035      	str	r5, [r6, #0]
 8006d86:	f1c0 0035 	rsb	r0, r0, #53	@ 0x35
 8006d8a:	9b09      	ldr	r3, [sp, #36]	@ 0x24
 8006d8c:	6018      	str	r0, [r3, #0]
 8006d8e:	4620      	mov	r0, r4
 8006d90:	b002      	add	sp, #8
 8006d92:	e8bd 8370 	ldmia.w	sp!, {r4, r5, r6, r8, r9, pc}
 8006d96:	6161      	str	r1, [r4, #20]
 8006d98:	e7e9      	b.n	8006d6e <__d2b+0x56>
 8006d9a:	a801      	add	r0, sp, #4
 8006d9c:	f7ff fd61 	bl	8006862 <__lo0bits>
 8006da0:	9b01      	ldr	r3, [sp, #4]
 8006da2:	2201      	movs	r2, #1
 8006da4:	6163      	str	r3, [r4, #20]
 8006da6:	3020      	adds	r0, #32
 8006da8:	e7e7      	b.n	8006d7a <__d2b+0x62>
 8006daa:	f2a0 4032 	subw	r0, r0, #1074	@ 0x432
 8006dae:	eb04 0382 	add.w	r3, r4, r2, lsl #2
 8006db2:	6030      	str	r0, [r6, #0]
 8006db4:	6918      	ldr	r0, [r3, #16]
 8006db6:	f7ff fd35 	bl	8006824 <__hi0bits>
 8006dba:	ebc0 1042 	rsb	r0, r0, r2, lsl #5
 8006dbe:	e7e4      	b.n	8006d8a <__d2b+0x72>
 8006dc0:	08007a82 	.word	0x08007a82
 8006dc4:	08007a93 	.word	0x08007a93

08006dc8 <__ssputs_r>:
 8006dc8:	e92d 47f0 	stmdb	sp!, {r4, r5, r6, r7, r8, r9, sl, lr}
 8006dcc:	461f      	mov	r7, r3
 8006dce:	688e      	ldr	r6, [r1, #8]
 8006dd0:	4682      	mov	sl, r0
 8006dd2:	42be      	cmp	r6, r7
 8006dd4:	460c      	mov	r4, r1
 8006dd6:	4690      	mov	r8, r2
 8006dd8:	680b      	ldr	r3, [r1, #0]
 8006dda:	d82d      	bhi.n	8006e38 <__ssputs_r+0x70>
 8006ddc:	f9b1 200c 	ldrsh.w	r2, [r1, #12]
 8006de0:	f412 6f90 	tst.w	r2, #1152	@ 0x480
 8006de4:	d026      	beq.n	8006e34 <__ssputs_r+0x6c>
 8006de6:	6965      	ldr	r5, [r4, #20]
 8006de8:	6909      	ldr	r1, [r1, #16]
 8006dea:	eb05 0545 	add.w	r5, r5, r5, lsl #1
 8006dee:	eba3 0901 	sub.w	r9, r3, r1
 8006df2:	eb05 75d5 	add.w	r5, r5, r5, lsr #31
 8006df6:	1c7b      	adds	r3, r7, #1
 8006df8:	444b      	add	r3, r9
 8006dfa:	106d      	asrs	r5, r5, #1
 8006dfc:	429d      	cmp	r5, r3
 8006dfe:	bf38      	it	cc
 8006e00:	461d      	movcc	r5, r3
 8006e02:	0553      	lsls	r3, r2, #21
 8006e04:	d527      	bpl.n	8006e56 <__ssputs_r+0x8e>
 8006e06:	4629      	mov	r1, r5
 8006e08:	f7ff fbd8 	bl	80065bc <_malloc_r>
 8006e0c:	4606      	mov	r6, r0
 8006e0e:	b360      	cbz	r0, 8006e6a <__ssputs_r+0xa2>
 8006e10:	464a      	mov	r2, r9
 8006e12:	6921      	ldr	r1, [r4, #16]
 8006e14:	f000 fa02 	bl	800721c <memcpy>
 8006e18:	89a3      	ldrh	r3, [r4, #12]
 8006e1a:	f423 6390 	bic.w	r3, r3, #1152	@ 0x480
 8006e1e:	f043 0380 	orr.w	r3, r3, #128	@ 0x80
 8006e22:	81a3      	strh	r3, [r4, #12]
 8006e24:	6126      	str	r6, [r4, #16]
 8006e26:	444e      	add	r6, r9
 8006e28:	6026      	str	r6, [r4, #0]
 8006e2a:	463e      	mov	r6, r7
 8006e2c:	6165      	str	r5, [r4, #20]
 8006e2e:	eba5 0509 	sub.w	r5, r5, r9
 8006e32:	60a5      	str	r5, [r4, #8]
 8006e34:	42be      	cmp	r6, r7
 8006e36:	d900      	bls.n	8006e3a <__ssputs_r+0x72>
 8006e38:	463e      	mov	r6, r7
 8006e3a:	4632      	mov	r2, r6
 8006e3c:	4641      	mov	r1, r8
 8006e3e:	6820      	ldr	r0, [r4, #0]
 8006e40:	f000 f9c2 	bl	80071c8 <memmove>
 8006e44:	2000      	movs	r0, #0
 8006e46:	68a3      	ldr	r3, [r4, #8]
 8006e48:	1b9b      	subs	r3, r3, r6
 8006e4a:	60a3      	str	r3, [r4, #8]
 8006e4c:	6823      	ldr	r3, [r4, #0]
 8006e4e:	4433      	add	r3, r6
 8006e50:	6023      	str	r3, [r4, #0]
 8006e52:	e8bd 87f0 	ldmia.w	sp!, {r4, r5, r6, r7, r8, r9, sl, pc}
 8006e56:	462a      	mov	r2, r5
 8006e58:	f000 fa32 	bl	80072c0 <_realloc_r>
 8006e5c:	4606      	mov	r6, r0
 8006e5e:	2800      	cmp	r0, #0
 8006e60:	d1e0      	bne.n	8006e24 <__ssputs_r+0x5c>
 8006e62:	4650      	mov	r0, sl
 8006e64:	6921      	ldr	r1, [r4, #16]
 8006e66:	f7ff fb37 	bl	80064d8 <_free_r>
 8006e6a:	230c      	movs	r3, #12
 8006e6c:	f8ca 3000 	str.w	r3, [sl]
 8006e70:	89a3      	ldrh	r3, [r4, #12]
 8006e72:	f04f 30ff 	mov.w	r0, #4294967295
 8006e76:	f043 0340 	orr.w	r3, r3, #64	@ 0x40
 8006e7a:	81a3      	strh	r3, [r4, #12]
 8006e7c:	e7e9      	b.n	8006e52 <__ssputs_r+0x8a>
	...

08006e80 <_svfiprintf_r>:
 8006e80:	e92d 4ff0 	stmdb	sp!, {r4, r5, r6, r7, r8, r9, sl, fp, lr}
 8006e84:	4698      	mov	r8, r3
 8006e86:	898b      	ldrh	r3, [r1, #12]
 8006e88:	4607      	mov	r7, r0
 8006e8a:	061b      	lsls	r3, r3, #24
 8006e8c:	460d      	mov	r5, r1
 8006e8e:	4614      	mov	r4, r2
 8006e90:	b09d      	sub	sp, #116	@ 0x74
 8006e92:	d510      	bpl.n	8006eb6 <_svfiprintf_r+0x36>
 8006e94:	690b      	ldr	r3, [r1, #16]
 8006e96:	b973      	cbnz	r3, 8006eb6 <_svfiprintf_r+0x36>
 8006e98:	2140      	movs	r1, #64	@ 0x40
 8006e9a:	f7ff fb8f 	bl	80065bc <_malloc_r>
 8006e9e:	6028      	str	r0, [r5, #0]
 8006ea0:	6128      	str	r0, [r5, #16]
 8006ea2:	b930      	cbnz	r0, 8006eb2 <_svfiprintf_r+0x32>
 8006ea4:	230c      	movs	r3, #12
 8006ea6:	603b      	str	r3, [r7, #0]
 8006ea8:	f04f 30ff 	mov.w	r0, #4294967295
 8006eac:	b01d      	add	sp, #116	@ 0x74
 8006eae:	e8bd 8ff0 	ldmia.w	sp!, {r4, r5, r6, r7, r8, r9, sl, fp, pc}
 8006eb2:	2340      	movs	r3, #64	@ 0x40
 8006eb4:	616b      	str	r3, [r5, #20]
 8006eb6:	2300      	movs	r3, #0
 8006eb8:	9309      	str	r3, [sp, #36]	@ 0x24
 8006eba:	2320      	movs	r3, #32
 8006ebc:	f88d 3029 	strb.w	r3, [sp, #41]	@ 0x29
 8006ec0:	2330      	movs	r3, #48	@ 0x30
 8006ec2:	f04f 0901 	mov.w	r9, #1
 8006ec6:	f8cd 800c 	str.w	r8, [sp, #12]
 8006eca:	f8df 8198 	ldr.w	r8, [pc, #408]	@ 8007064 <_svfiprintf_r+0x1e4>
 8006ece:	f88d 302a 	strb.w	r3, [sp, #42]	@ 0x2a
 8006ed2:	4623      	mov	r3, r4
 8006ed4:	469a      	mov	sl, r3
 8006ed6:	f813 2b01 	ldrb.w	r2, [r3], #1
 8006eda:	b10a      	cbz	r2, 8006ee0 <_svfiprintf_r+0x60>
 8006edc:	2a25      	cmp	r2, #37	@ 0x25
 8006ede:	d1f9      	bne.n	8006ed4 <_svfiprintf_r+0x54>
 8006ee0:	ebba 0b04 	subs.w	fp, sl, r4
 8006ee4:	d00b      	beq.n	8006efe <_svfiprintf_r+0x7e>
 8006ee6:	465b      	mov	r3, fp
 8006ee8:	4622      	mov	r2, r4
 8006eea:	4629      	mov	r1, r5
 8006eec:	4638      	mov	r0, r7
 8006eee:	f7ff ff6b 	bl	8006dc8 <__ssputs_r>
 8006ef2:	3001      	adds	r0, #1
 8006ef4:	f000 80a7 	beq.w	8007046 <_svfiprintf_r+0x1c6>
 8006ef8:	9a09      	ldr	r2, [sp, #36]	@ 0x24
 8006efa:	445a      	add	r2, fp
 8006efc:	9209      	str	r2, [sp, #36]	@ 0x24
 8006efe:	f89a 3000 	ldrb.w	r3, [sl]
 8006f02:	2b00      	cmp	r3, #0
 8006f04:	f000 809f 	beq.w	8007046 <_svfiprintf_r+0x1c6>
 8006f08:	2300      	movs	r3, #0
 8006f0a:	f04f 32ff 	mov.w	r2, #4294967295
 8006f0e:	e9cd 2305 	strd	r2, r3, [sp, #20]
 8006f12:	f10a 0a01 	add.w	sl, sl, #1
 8006f16:	9304      	str	r3, [sp, #16]
 8006f18:	9307      	str	r3, [sp, #28]
 8006f1a:	f88d 3053 	strb.w	r3, [sp, #83]	@ 0x53
 8006f1e:	931a      	str	r3, [sp, #104]	@ 0x68
 8006f20:	4654      	mov	r4, sl
 8006f22:	2205      	movs	r2, #5
 8006f24:	f814 1b01 	ldrb.w	r1, [r4], #1
 8006f28:	484e      	ldr	r0, [pc, #312]	@ (8007064 <_svfiprintf_r+0x1e4>)
 8006f2a:	f7fe fc68 	bl	80057fe <memchr>
 8006f2e:	9a04      	ldr	r2, [sp, #16]
 8006f30:	b9d8      	cbnz	r0, 8006f6a <_svfiprintf_r+0xea>
 8006f32:	06d0      	lsls	r0, r2, #27
 8006f34:	bf44      	itt	mi
 8006f36:	2320      	movmi	r3, #32
 8006f38:	f88d 3053 	strbmi.w	r3, [sp, #83]	@ 0x53
 8006f3c:	0711      	lsls	r1, r2, #28
 8006f3e:	bf44      	itt	mi
 8006f40:	232b      	movmi	r3, #43	@ 0x2b
 8006f42:	f88d 3053 	strbmi.w	r3, [sp, #83]	@ 0x53
 8006f46:	f89a 3000 	ldrb.w	r3, [sl]
 8006f4a:	2b2a      	cmp	r3, #42	@ 0x2a
 8006f4c:	d015      	beq.n	8006f7a <_svfiprintf_r+0xfa>
 8006f4e:	4654      	mov	r4, sl
 8006f50:	2000      	movs	r0, #0
 8006f52:	f04f 0c0a 	mov.w	ip, #10
 8006f56:	9a07      	ldr	r2, [sp, #28]
 8006f58:	4621      	mov	r1, r4
 8006f5a:	f811 3b01 	ldrb.w	r3, [r1], #1
 8006f5e:	3b30      	subs	r3, #48	@ 0x30
 8006f60:	2b09      	cmp	r3, #9
 8006f62:	d94b      	bls.n	8006ffc <_svfiprintf_r+0x17c>
 8006f64:	b1b0      	cbz	r0, 8006f94 <_svfiprintf_r+0x114>
 8006f66:	9207      	str	r2, [sp, #28]
 8006f68:	e014      	b.n	8006f94 <_svfiprintf_r+0x114>
 8006f6a:	eba0 0308 	sub.w	r3, r0, r8
 8006f6e:	fa09 f303 	lsl.w	r3, r9, r3
 8006f72:	4313      	orrs	r3, r2
 8006f74:	46a2      	mov	sl, r4
 8006f76:	9304      	str	r3, [sp, #16]
 8006f78:	e7d2      	b.n	8006f20 <_svfiprintf_r+0xa0>
 8006f7a:	9b03      	ldr	r3, [sp, #12]
 8006f7c:	1d19      	adds	r1, r3, #4
 8006f7e:	681b      	ldr	r3, [r3, #0]
 8006f80:	9103      	str	r1, [sp, #12]
 8006f82:	2b00      	cmp	r3, #0
 8006f84:	bfbb      	ittet	lt
 8006f86:	425b      	neglt	r3, r3
 8006f88:	f042 0202 	orrlt.w	r2, r2, #2
 8006f8c:	9307      	strge	r3, [sp, #28]
 8006f8e:	9307      	strlt	r3, [sp, #28]
 8006f90:	bfb8      	it	lt
 8006f92:	9204      	strlt	r2, [sp, #16]
 8006f94:	7823      	ldrb	r3, [r4, #0]
 8006f96:	2b2e      	cmp	r3, #46	@ 0x2e
 8006f98:	d10a      	bne.n	8006fb0 <_svfiprintf_r+0x130>
 8006f9a:	7863      	ldrb	r3, [r4, #1]
 8006f9c:	2b2a      	cmp	r3, #42	@ 0x2a
 8006f9e:	d132      	bne.n	8007006 <_svfiprintf_r+0x186>
 8006fa0:	9b03      	ldr	r3, [sp, #12]
 8006fa2:	3402      	adds	r4, #2
 8006fa4:	1d1a      	adds	r2, r3, #4
 8006fa6:	681b      	ldr	r3, [r3, #0]
 8006fa8:	9203      	str	r2, [sp, #12]
 8006faa:	ea43 73e3 	orr.w	r3, r3, r3, asr #31
 8006fae:	9305      	str	r3, [sp, #20]
 8006fb0:	f8df a0b4 	ldr.w	sl, [pc, #180]	@ 8007068 <_svfiprintf_r+0x1e8>
 8006fb4:	2203      	movs	r2, #3
 8006fb6:	4650      	mov	r0, sl
 8006fb8:	7821      	ldrb	r1, [r4, #0]
 8006fba:	f7fe fc20 	bl	80057fe <memchr>
 8006fbe:	b138      	cbz	r0, 8006fd0 <_svfiprintf_r+0x150>
 8006fc0:	2240      	movs	r2, #64	@ 0x40
 8006fc2:	9b04      	ldr	r3, [sp, #16]
 8006fc4:	eba0 000a 	sub.w	r0, r0, sl
 8006fc8:	4082      	lsls	r2, r0
 8006fca:	4313      	orrs	r3, r2
 8006fcc:	3401      	adds	r4, #1
 8006fce:	9304      	str	r3, [sp, #16]
 8006fd0:	f814 1b01 	ldrb.w	r1, [r4], #1
 8006fd4:	2206      	movs	r2, #6
 8006fd6:	4825      	ldr	r0, [pc, #148]	@ (800706c <_svfiprintf_r+0x1ec>)
 8006fd8:	f88d 1028 	strb.w	r1, [sp, #40]	@ 0x28
 8006fdc:	f7fe fc0f 	bl	80057fe <memchr>
 8006fe0:	2800      	cmp	r0, #0
 8006fe2:	d036      	beq.n	8007052 <_svfiprintf_r+0x1d2>
 8006fe4:	4b22      	ldr	r3, [pc, #136]	@ (8007070 <_svfiprintf_r+0x1f0>)
 8006fe6:	bb1b      	cbnz	r3, 8007030 <_svfiprintf_r+0x1b0>
 8006fe8:	9b03      	ldr	r3, [sp, #12]
 8006fea:	3307      	adds	r3, #7
 8006fec:	f023 0307 	bic.w	r3, r3, #7
 8006ff0:	3308      	adds	r3, #8
 8006ff2:	9303      	str	r3, [sp, #12]
 8006ff4:	9b09      	ldr	r3, [sp, #36]	@ 0x24
 8006ff6:	4433      	add	r3, r6
 8006ff8:	9309      	str	r3, [sp, #36]	@ 0x24
 8006ffa:	e76a      	b.n	8006ed2 <_svfiprintf_r+0x52>
 8006ffc:	460c      	mov	r4, r1
 8006ffe:	2001      	movs	r0, #1
 8007000:	fb0c 3202 	mla	r2, ip, r2, r3
 8007004:	e7a8      	b.n	8006f58 <_svfiprintf_r+0xd8>
 8007006:	2300      	movs	r3, #0
 8007008:	f04f 0c0a 	mov.w	ip, #10
 800700c:	4619      	mov	r1, r3
 800700e:	3401      	adds	r4, #1
 8007010:	9305      	str	r3, [sp, #20]
 8007012:	4620      	mov	r0, r4
 8007014:	f810 2b01 	ldrb.w	r2, [r0], #1
 8007018:	3a30      	subs	r2, #48	@ 0x30
 800701a:	2a09      	cmp	r2, #9
 800701c:	d903      	bls.n	8007026 <_svfiprintf_r+0x1a6>
 800701e:	2b00      	cmp	r3, #0
 8007020:	d0c6      	beq.n	8006fb0 <_svfiprintf_r+0x130>
 8007022:	9105      	str	r1, [sp, #20]
 8007024:	e7c4      	b.n	8006fb0 <_svfiprintf_r+0x130>
 8007026:	4604      	mov	r4, r0
 8007028:	2301      	movs	r3, #1
 800702a:	fb0c 2101 	mla	r1, ip, r1, r2
 800702e:	e7f0      	b.n	8007012 <_svfiprintf_r+0x192>
 8007030:	ab03      	add	r3, sp, #12
 8007032:	9300      	str	r3, [sp, #0]
 8007034:	462a      	mov	r2, r5
 8007036:	4638      	mov	r0, r7
 8007038:	4b0e      	ldr	r3, [pc, #56]	@ (8007074 <_svfiprintf_r+0x1f4>)
 800703a:	a904      	add	r1, sp, #16
 800703c:	f7fd fe68 	bl	8004d10 <_printf_float>
 8007040:	1c42      	adds	r2, r0, #1
 8007042:	4606      	mov	r6, r0
 8007044:	d1d6      	bne.n	8006ff4 <_svfiprintf_r+0x174>
 8007046:	89ab      	ldrh	r3, [r5, #12]
 8007048:	065b      	lsls	r3, r3, #25
 800704a:	f53f af2d 	bmi.w	8006ea8 <_svfiprintf_r+0x28>
 800704e:	9809      	ldr	r0, [sp, #36]	@ 0x24
 8007050:	e72c      	b.n	8006eac <_svfiprintf_r+0x2c>
 8007052:	ab03      	add	r3, sp, #12
 8007054:	9300      	str	r3, [sp, #0]
 8007056:	462a      	mov	r2, r5
 8007058:	4638      	mov	r0, r7
 800705a:	4b06      	ldr	r3, [pc, #24]	@ (8007074 <_svfiprintf_r+0x1f4>)
 800705c:	a904      	add	r1, sp, #16
 800705e:	f7fe f8f5 	bl	800524c <_printf_i>
 8007062:	e7ed      	b.n	8007040 <_svfiprintf_r+0x1c0>
 8007064:	08007aec 	.word	0x08007aec
 8007068:	08007af2 	.word	0x08007af2
 800706c:	08007af6 	.word	0x08007af6
 8007070:	08004d11 	.word	0x08004d11
 8007074:	08006dc9 	.word	0x08006dc9

08007078 <__sflush_r>:
 8007078:	f9b1 200c 	ldrsh.w	r2, [r1, #12]
 800707c:	b5f8      	push	{r3, r4, r5, r6, r7, lr}
 800707e:	0716      	lsls	r6, r2, #28
 8007080:	4605      	mov	r5, r0
 8007082:	460c      	mov	r4, r1
 8007084:	d454      	bmi.n	8007130 <__sflush_r+0xb8>
 8007086:	684b      	ldr	r3, [r1, #4]
 8007088:	2b00      	cmp	r3, #0
 800708a:	dc02      	bgt.n	8007092 <__sflush_r+0x1a>
 800708c:	6c0b      	ldr	r3, [r1, #64]	@ 0x40
 800708e:	2b00      	cmp	r3, #0
 8007090:	dd48      	ble.n	8007124 <__sflush_r+0xac>
 8007092:	6ae6      	ldr	r6, [r4, #44]	@ 0x2c
 8007094:	2e00      	cmp	r6, #0
 8007096:	d045      	beq.n	8007124 <__sflush_r+0xac>
 8007098:	2300      	movs	r3, #0
 800709a:	f412 5280 	ands.w	r2, r2, #4096	@ 0x1000
 800709e:	682f      	ldr	r7, [r5, #0]
 80070a0:	6a21      	ldr	r1, [r4, #32]
 80070a2:	602b      	str	r3, [r5, #0]
 80070a4:	d030      	beq.n	8007108 <__sflush_r+0x90>
 80070a6:	6d62      	ldr	r2, [r4, #84]	@ 0x54
 80070a8:	89a3      	ldrh	r3, [r4, #12]
 80070aa:	0759      	lsls	r1, r3, #29
 80070ac:	d505      	bpl.n	80070ba <__sflush_r+0x42>
 80070ae:	6863      	ldr	r3, [r4, #4]
 80070b0:	1ad2      	subs	r2, r2, r3
 80070b2:	6b63      	ldr	r3, [r4, #52]	@ 0x34
 80070b4:	b10b      	cbz	r3, 80070ba <__sflush_r+0x42>
 80070b6:	6c23      	ldr	r3, [r4, #64]	@ 0x40
 80070b8:	1ad2      	subs	r2, r2, r3
 80070ba:	2300      	movs	r3, #0
 80070bc:	4628      	mov	r0, r5
 80070be:	6ae6      	ldr	r6, [r4, #44]	@ 0x2c
 80070c0:	6a21      	ldr	r1, [r4, #32]
 80070c2:	47b0      	blx	r6
 80070c4:	1c43      	adds	r3, r0, #1
 80070c6:	89a3      	ldrh	r3, [r4, #12]
 80070c8:	d106      	bne.n	80070d8 <__sflush_r+0x60>
 80070ca:	6829      	ldr	r1, [r5, #0]
 80070cc:	291d      	cmp	r1, #29
 80070ce:	d82b      	bhi.n	8007128 <__sflush_r+0xb0>
 80070d0:	4a28      	ldr	r2, [pc, #160]	@ (8007174 <__sflush_r+0xfc>)
 80070d2:	40ca      	lsrs	r2, r1
 80070d4:	07d6      	lsls	r6, r2, #31
 80070d6:	d527      	bpl.n	8007128 <__sflush_r+0xb0>
 80070d8:	2200      	movs	r2, #0
 80070da:	6062      	str	r2, [r4, #4]
 80070dc:	6922      	ldr	r2, [r4, #16]
 80070de:	04d9      	lsls	r1, r3, #19
 80070e0:	6022      	str	r2, [r4, #0]
 80070e2:	d504      	bpl.n	80070ee <__sflush_r+0x76>
 80070e4:	1c42      	adds	r2, r0, #1
 80070e6:	d101      	bne.n	80070ec <__sflush_r+0x74>
 80070e8:	682b      	ldr	r3, [r5, #0]
 80070ea:	b903      	cbnz	r3, 80070ee <__sflush_r+0x76>
 80070ec:	6560      	str	r0, [r4, #84]	@ 0x54
 80070ee:	6b61      	ldr	r1, [r4, #52]	@ 0x34
 80070f0:	602f      	str	r7, [r5, #0]
 80070f2:	b1b9      	cbz	r1, 8007124 <__sflush_r+0xac>
 80070f4:	f104 0344 	add.w	r3, r4, #68	@ 0x44
 80070f8:	4299      	cmp	r1, r3
 80070fa:	d002      	beq.n	8007102 <__sflush_r+0x8a>
 80070fc:	4628      	mov	r0, r5
 80070fe:	f7ff f9eb 	bl	80064d8 <_free_r>
 8007102:	2300      	movs	r3, #0
 8007104:	6363      	str	r3, [r4, #52]	@ 0x34
 8007106:	e00d      	b.n	8007124 <__sflush_r+0xac>
 8007108:	2301      	movs	r3, #1
 800710a:	4628      	mov	r0, r5
 800710c:	47b0      	blx	r6
 800710e:	4602      	mov	r2, r0
 8007110:	1c50      	adds	r0, r2, #1
 8007112:	d1c9      	bne.n	80070a8 <__sflush_r+0x30>
 8007114:	682b      	ldr	r3, [r5, #0]
 8007116:	2b00      	cmp	r3, #0
 8007118:	d0c6      	beq.n	80070a8 <__sflush_r+0x30>
 800711a:	2b1d      	cmp	r3, #29
 800711c:	d001      	beq.n	8007122 <__sflush_r+0xaa>
 800711e:	2b16      	cmp	r3, #22
 8007120:	d11d      	bne.n	800715e <__sflush_r+0xe6>
 8007122:	602f      	str	r7, [r5, #0]
 8007124:	2000      	movs	r0, #0
 8007126:	e021      	b.n	800716c <__sflush_r+0xf4>
 8007128:	f043 0340 	orr.w	r3, r3, #64	@ 0x40
 800712c:	b21b      	sxth	r3, r3
 800712e:	e01a      	b.n	8007166 <__sflush_r+0xee>
 8007130:	690f      	ldr	r7, [r1, #16]
 8007132:	2f00      	cmp	r7, #0
 8007134:	d0f6      	beq.n	8007124 <__sflush_r+0xac>
 8007136:	0793      	lsls	r3, r2, #30
 8007138:	bf18      	it	ne
 800713a:	2300      	movne	r3, #0
 800713c:	680e      	ldr	r6, [r1, #0]
 800713e:	bf08      	it	eq
 8007140:	694b      	ldreq	r3, [r1, #20]
 8007142:	1bf6      	subs	r6, r6, r7
 8007144:	600f      	str	r7, [r1, #0]
 8007146:	608b      	str	r3, [r1, #8]
 8007148:	2e00      	cmp	r6, #0
 800714a:	ddeb      	ble.n	8007124 <__sflush_r+0xac>
 800714c:	4633      	mov	r3, r6
 800714e:	463a      	mov	r2, r7
 8007150:	4628      	mov	r0, r5
 8007152:	6a21      	ldr	r1, [r4, #32]
 8007154:	f8d4 c028 	ldr.w	ip, [r4, #40]	@ 0x28
 8007158:	47e0      	blx	ip
 800715a:	2800      	cmp	r0, #0
 800715c:	dc07      	bgt.n	800716e <__sflush_r+0xf6>
 800715e:	f9b4 300c 	ldrsh.w	r3, [r4, #12]
 8007162:	f043 0340 	orr.w	r3, r3, #64	@ 0x40
 8007166:	f04f 30ff 	mov.w	r0, #4294967295
 800716a:	81a3      	strh	r3, [r4, #12]
 800716c:	bdf8      	pop	{r3, r4, r5, r6, r7, pc}
 800716e:	4407      	add	r7, r0
 8007170:	1a36      	subs	r6, r6, r0
 8007172:	e7e9      	b.n	8007148 <__sflush_r+0xd0>
 8007174:	20400001 	.word	0x20400001

08007178 <_fflush_r>:
 8007178:	b538      	push	{r3, r4, r5, lr}
 800717a:	690b      	ldr	r3, [r1, #16]
 800717c:	4605      	mov	r5, r0
 800717e:	460c      	mov	r4, r1
 8007180:	b913      	cbnz	r3, 8007188 <_fflush_r+0x10>
 8007182:	2500      	movs	r5, #0
 8007184:	4628      	mov	r0, r5
 8007186:	bd38      	pop	{r3, r4, r5, pc}
 8007188:	b118      	cbz	r0, 8007192 <_fflush_r+0x1a>
 800718a:	6a03      	ldr	r3, [r0, #32]
 800718c:	b90b      	cbnz	r3, 8007192 <_fflush_r+0x1a>
 800718e:	f7fe fa07 	bl	80055a0 <__sinit>
 8007192:	f9b4 300c 	ldrsh.w	r3, [r4, #12]
 8007196:	2b00      	cmp	r3, #0
 8007198:	d0f3      	beq.n	8007182 <_fflush_r+0xa>
 800719a:	6e62      	ldr	r2, [r4, #100]	@ 0x64
 800719c:	07d0      	lsls	r0, r2, #31
 800719e:	d404      	bmi.n	80071aa <_fflush_r+0x32>
 80071a0:	0599      	lsls	r1, r3, #22
 80071a2:	d402      	bmi.n	80071aa <_fflush_r+0x32>
 80071a4:	6da0      	ldr	r0, [r4, #88]	@ 0x58
 80071a6:	f7fe fb28 	bl	80057fa <__retarget_lock_acquire_recursive>
 80071aa:	4628      	mov	r0, r5
 80071ac:	4621      	mov	r1, r4
 80071ae:	f7ff ff63 	bl	8007078 <__sflush_r>
 80071b2:	6e63      	ldr	r3, [r4, #100]	@ 0x64
 80071b4:	4605      	mov	r5, r0
 80071b6:	07da      	lsls	r2, r3, #31
 80071b8:	d4e4      	bmi.n	8007184 <_fflush_r+0xc>
 80071ba:	89a3      	ldrh	r3, [r4, #12]
 80071bc:	059b      	lsls	r3, r3, #22
 80071be:	d4e1      	bmi.n	8007184 <_fflush_r+0xc>
 80071c0:	6da0      	ldr	r0, [r4, #88]	@ 0x58
 80071c2:	f7fe fb1b 	bl	80057fc <__retarget_lock_release_recursive>
 80071c6:	e7dd      	b.n	8007184 <_fflush_r+0xc>

080071c8 <memmove>:
 80071c8:	4288      	cmp	r0, r1
 80071ca:	b510      	push	{r4, lr}
 80071cc:	eb01 0402 	add.w	r4, r1, r2
 80071d0:	d902      	bls.n	80071d8 <memmove+0x10>
 80071d2:	4284      	cmp	r4, r0
 80071d4:	4623      	mov	r3, r4
 80071d6:	d807      	bhi.n	80071e8 <memmove+0x20>
 80071d8:	1e43      	subs	r3, r0, #1
 80071da:	42a1      	cmp	r1, r4
 80071dc:	d008      	beq.n	80071f0 <memmove+0x28>
 80071de:	f811 2b01 	ldrb.w	r2, [r1], #1
 80071e2:	f803 2f01 	strb.w	r2, [r3, #1]!
 80071e6:	e7f8      	b.n	80071da <memmove+0x12>
 80071e8:	4601      	mov	r1, r0
 80071ea:	4402      	add	r2, r0
 80071ec:	428a      	cmp	r2, r1
 80071ee:	d100      	bne.n	80071f2 <memmove+0x2a>
 80071f0:	bd10      	pop	{r4, pc}
 80071f2:	f813 4d01 	ldrb.w	r4, [r3, #-1]!
 80071f6:	f802 4d01 	strb.w	r4, [r2, #-1]!
 80071fa:	e7f7      	b.n	80071ec <memmove+0x24>

080071fc <_sbrk_r>:
 80071fc:	b538      	push	{r3, r4, r5, lr}
 80071fe:	2300      	movs	r3, #0
 8007200:	4d05      	ldr	r5, [pc, #20]	@ (8007218 <_sbrk_r+0x1c>)
 8007202:	4604      	mov	r4, r0
 8007204:	4608      	mov	r0, r1
 8007206:	602b      	str	r3, [r5, #0]
 8007208:	f7fa fe9e 	bl	8001f48 <_sbrk>
 800720c:	1c43      	adds	r3, r0, #1
 800720e:	d102      	bne.n	8007216 <_sbrk_r+0x1a>
 8007210:	682b      	ldr	r3, [r5, #0]
 8007212:	b103      	cbz	r3, 8007216 <_sbrk_r+0x1a>
 8007214:	6023      	str	r3, [r4, #0]
 8007216:	bd38      	pop	{r3, r4, r5, pc}
 8007218:	200004b0 	.word	0x200004b0

0800721c <memcpy>:
 800721c:	440a      	add	r2, r1
 800721e:	4291      	cmp	r1, r2
 8007220:	f100 33ff 	add.w	r3, r0, #4294967295
 8007224:	d100      	bne.n	8007228 <memcpy+0xc>
 8007226:	4770      	bx	lr
 8007228:	b510      	push	{r4, lr}
 800722a:	f811 4b01 	ldrb.w	r4, [r1], #1
 800722e:	4291      	cmp	r1, r2
 8007230:	f803 4f01 	strb.w	r4, [r3, #1]!
 8007234:	d1f9      	bne.n	800722a <memcpy+0xe>
 8007236:	bd10      	pop	{r4, pc}

08007238 <__assert_func>:
 8007238:	b51f      	push	{r0, r1, r2, r3, r4, lr}
 800723a:	4614      	mov	r4, r2
 800723c:	461a      	mov	r2, r3
 800723e:	4b09      	ldr	r3, [pc, #36]	@ (8007264 <__assert_func+0x2c>)
 8007240:	4605      	mov	r5, r0
 8007242:	681b      	ldr	r3, [r3, #0]
 8007244:	68d8      	ldr	r0, [r3, #12]
 8007246:	b14c      	cbz	r4, 800725c <__assert_func+0x24>
 8007248:	4b07      	ldr	r3, [pc, #28]	@ (8007268 <__assert_func+0x30>)
 800724a:	e9cd 3401 	strd	r3, r4, [sp, #4]
 800724e:	9100      	str	r1, [sp, #0]
 8007250:	462b      	mov	r3, r5
 8007252:	4906      	ldr	r1, [pc, #24]	@ (800726c <__assert_func+0x34>)
 8007254:	f000 f870 	bl	8007338 <fiprintf>
 8007258:	f000 f880 	bl	800735c <abort>
 800725c:	4b04      	ldr	r3, [pc, #16]	@ (8007270 <__assert_func+0x38>)
 800725e:	461c      	mov	r4, r3
 8007260:	e7f3      	b.n	800724a <__assert_func+0x12>
 8007262:	bf00      	nop
 8007264:	20000018 	.word	0x20000018
 8007268:	08007b07 	.word	0x08007b07
 800726c:	08007b14 	.word	0x08007b14
 8007270:	08007b42 	.word	0x08007b42

08007274 <_calloc_r>:
 8007274:	b570      	push	{r4, r5, r6, lr}
 8007276:	fba1 5402 	umull	r5, r4, r1, r2
 800727a:	b934      	cbnz	r4, 800728a <_calloc_r+0x16>
 800727c:	4629      	mov	r1, r5
 800727e:	f7ff f99d 	bl	80065bc <_malloc_r>
 8007282:	4606      	mov	r6, r0
 8007284:	b928      	cbnz	r0, 8007292 <_calloc_r+0x1e>
 8007286:	4630      	mov	r0, r6
 8007288:	bd70      	pop	{r4, r5, r6, pc}
 800728a:	220c      	movs	r2, #12
 800728c:	2600      	movs	r6, #0
 800728e:	6002      	str	r2, [r0, #0]
 8007290:	e7f9      	b.n	8007286 <_calloc_r+0x12>
 8007292:	462a      	mov	r2, r5
 8007294:	4621      	mov	r1, r4
 8007296:	f7fe fa32 	bl	80056fe <memset>
 800729a:	e7f4      	b.n	8007286 <_calloc_r+0x12>

0800729c <__ascii_mbtowc>:
 800729c:	b082      	sub	sp, #8
 800729e:	b901      	cbnz	r1, 80072a2 <__ascii_mbtowc+0x6>
 80072a0:	a901      	add	r1, sp, #4
 80072a2:	b142      	cbz	r2, 80072b6 <__ascii_mbtowc+0x1a>
 80072a4:	b14b      	cbz	r3, 80072ba <__ascii_mbtowc+0x1e>
 80072a6:	7813      	ldrb	r3, [r2, #0]
 80072a8:	600b      	str	r3, [r1, #0]
 80072aa:	7812      	ldrb	r2, [r2, #0]
 80072ac:	1e10      	subs	r0, r2, #0
 80072ae:	bf18      	it	ne
 80072b0:	2001      	movne	r0, #1
 80072b2:	b002      	add	sp, #8
 80072b4:	4770      	bx	lr
 80072b6:	4610      	mov	r0, r2
 80072b8:	e7fb      	b.n	80072b2 <__ascii_mbtowc+0x16>
 80072ba:	f06f 0001 	mvn.w	r0, #1
 80072be:	e7f8      	b.n	80072b2 <__ascii_mbtowc+0x16>

080072c0 <_realloc_r>:
 80072c0:	e92d 41f0 	stmdb	sp!, {r4, r5, r6, r7, r8, lr}
 80072c4:	4607      	mov	r7, r0
 80072c6:	4614      	mov	r4, r2
 80072c8:	460d      	mov	r5, r1
 80072ca:	b921      	cbnz	r1, 80072d6 <_realloc_r+0x16>
 80072cc:	4611      	mov	r1, r2
 80072ce:	e8bd 41f0 	ldmia.w	sp!, {r4, r5, r6, r7, r8, lr}
 80072d2:	f7ff b973 	b.w	80065bc <_malloc_r>
 80072d6:	b92a      	cbnz	r2, 80072e4 <_realloc_r+0x24>
 80072d8:	f7ff f8fe 	bl	80064d8 <_free_r>
 80072dc:	4625      	mov	r5, r4
 80072de:	4628      	mov	r0, r5
 80072e0:	e8bd 81f0 	ldmia.w	sp!, {r4, r5, r6, r7, r8, pc}
 80072e4:	f000 f841 	bl	800736a <_malloc_usable_size_r>
 80072e8:	4284      	cmp	r4, r0
 80072ea:	4606      	mov	r6, r0
 80072ec:	d802      	bhi.n	80072f4 <_realloc_r+0x34>
 80072ee:	ebb4 0f50 	cmp.w	r4, r0, lsr #1
 80072f2:	d8f4      	bhi.n	80072de <_realloc_r+0x1e>
 80072f4:	4621      	mov	r1, r4
 80072f6:	4638      	mov	r0, r7
 80072f8:	f7ff f960 	bl	80065bc <_malloc_r>
 80072fc:	4680      	mov	r8, r0
 80072fe:	b908      	cbnz	r0, 8007304 <_realloc_r+0x44>
 8007300:	4645      	mov	r5, r8
 8007302:	e7ec      	b.n	80072de <_realloc_r+0x1e>
 8007304:	42b4      	cmp	r4, r6
 8007306:	4622      	mov	r2, r4
 8007308:	4629      	mov	r1, r5
 800730a:	bf28      	it	cs
 800730c:	4632      	movcs	r2, r6
 800730e:	f7ff ff85 	bl	800721c <memcpy>
 8007312:	4629      	mov	r1, r5
 8007314:	4638      	mov	r0, r7
 8007316:	f7ff f8df 	bl	80064d8 <_free_r>
 800731a:	e7f1      	b.n	8007300 <_realloc_r+0x40>

0800731c <__ascii_wctomb>:
 800731c:	4603      	mov	r3, r0
 800731e:	4608      	mov	r0, r1
 8007320:	b141      	cbz	r1, 8007334 <__ascii_wctomb+0x18>
 8007322:	2aff      	cmp	r2, #255	@ 0xff
 8007324:	d904      	bls.n	8007330 <__ascii_wctomb+0x14>
 8007326:	228a      	movs	r2, #138	@ 0x8a
 8007328:	f04f 30ff 	mov.w	r0, #4294967295
 800732c:	601a      	str	r2, [r3, #0]
 800732e:	4770      	bx	lr
 8007330:	2001      	movs	r0, #1
 8007332:	700a      	strb	r2, [r1, #0]
 8007334:	4770      	bx	lr
	...

08007338 <fiprintf>:
 8007338:	b40e      	push	{r1, r2, r3}
 800733a:	b503      	push	{r0, r1, lr}
 800733c:	4601      	mov	r1, r0
 800733e:	ab03      	add	r3, sp, #12
 8007340:	4805      	ldr	r0, [pc, #20]	@ (8007358 <fiprintf+0x20>)
 8007342:	f853 2b04 	ldr.w	r2, [r3], #4
 8007346:	6800      	ldr	r0, [r0, #0]
 8007348:	9301      	str	r3, [sp, #4]
 800734a:	f000 f83d 	bl	80073c8 <_vfiprintf_r>
 800734e:	b002      	add	sp, #8
 8007350:	f85d eb04 	ldr.w	lr, [sp], #4
 8007354:	b003      	add	sp, #12
 8007356:	4770      	bx	lr
 8007358:	20000018 	.word	0x20000018

0800735c <abort>:
 800735c:	2006      	movs	r0, #6
 800735e:	b508      	push	{r3, lr}
 8007360:	f000 fa06 	bl	8007770 <raise>
 8007364:	2001      	movs	r0, #1
 8007366:	f7fa fd7a 	bl	8001e5e <_exit>

0800736a <_malloc_usable_size_r>:
 800736a:	f851 3c04 	ldr.w	r3, [r1, #-4]
 800736e:	1f18      	subs	r0, r3, #4
 8007370:	2b00      	cmp	r3, #0
 8007372:	bfbc      	itt	lt
 8007374:	580b      	ldrlt	r3, [r1, r0]
 8007376:	18c0      	addlt	r0, r0, r3
 8007378:	4770      	bx	lr

0800737a <__sfputc_r>:
 800737a:	6893      	ldr	r3, [r2, #8]
 800737c:	b410      	push	{r4}
 800737e:	3b01      	subs	r3, #1
 8007380:	2b00      	cmp	r3, #0
 8007382:	6093      	str	r3, [r2, #8]
 8007384:	da07      	bge.n	8007396 <__sfputc_r+0x1c>
 8007386:	6994      	ldr	r4, [r2, #24]
 8007388:	42a3      	cmp	r3, r4
 800738a:	db01      	blt.n	8007390 <__sfputc_r+0x16>
 800738c:	290a      	cmp	r1, #10
 800738e:	d102      	bne.n	8007396 <__sfputc_r+0x1c>
 8007390:	bc10      	pop	{r4}
 8007392:	f000 b931 	b.w	80075f8 <__swbuf_r>
 8007396:	6813      	ldr	r3, [r2, #0]
 8007398:	1c58      	adds	r0, r3, #1
 800739a:	6010      	str	r0, [r2, #0]
 800739c:	7019      	strb	r1, [r3, #0]
 800739e:	4608      	mov	r0, r1
 80073a0:	bc10      	pop	{r4}
 80073a2:	4770      	bx	lr

080073a4 <__sfputs_r>:
 80073a4:	b5f8      	push	{r3, r4, r5, r6, r7, lr}
 80073a6:	4606      	mov	r6, r0
 80073a8:	460f      	mov	r7, r1
 80073aa:	4614      	mov	r4, r2
 80073ac:	18d5      	adds	r5, r2, r3
 80073ae:	42ac      	cmp	r4, r5
 80073b0:	d101      	bne.n	80073b6 <__sfputs_r+0x12>
 80073b2:	2000      	movs	r0, #0
 80073b4:	e007      	b.n	80073c6 <__sfputs_r+0x22>
 80073b6:	463a      	mov	r2, r7
 80073b8:	4630      	mov	r0, r6
 80073ba:	f814 1b01 	ldrb.w	r1, [r4], #1
 80073be:	f7ff ffdc 	bl	800737a <__sfputc_r>
 80073c2:	1c43      	adds	r3, r0, #1
 80073c4:	d1f3      	bne.n	80073ae <__sfputs_r+0xa>
 80073c6:	bdf8      	pop	{r3, r4, r5, r6, r7, pc}

080073c8 <_vfiprintf_r>:
 80073c8:	e92d 4ff0 	stmdb	sp!, {r4, r5, r6, r7, r8, r9, sl, fp, lr}
 80073cc:	460d      	mov	r5, r1
 80073ce:	4614      	mov	r4, r2
 80073d0:	4698      	mov	r8, r3
 80073d2:	4606      	mov	r6, r0
 80073d4:	b09d      	sub	sp, #116	@ 0x74
 80073d6:	b118      	cbz	r0, 80073e0 <_vfiprintf_r+0x18>
 80073d8:	6a03      	ldr	r3, [r0, #32]
 80073da:	b90b      	cbnz	r3, 80073e0 <_vfiprintf_r+0x18>
 80073dc:	f7fe f8e0 	bl	80055a0 <__sinit>
 80073e0:	6e6b      	ldr	r3, [r5, #100]	@ 0x64
 80073e2:	07d9      	lsls	r1, r3, #31
 80073e4:	d405      	bmi.n	80073f2 <_vfiprintf_r+0x2a>
 80073e6:	89ab      	ldrh	r3, [r5, #12]
 80073e8:	059a      	lsls	r2, r3, #22
 80073ea:	d402      	bmi.n	80073f2 <_vfiprintf_r+0x2a>
 80073ec:	6da8      	ldr	r0, [r5, #88]	@ 0x58
 80073ee:	f7fe fa04 	bl	80057fa <__retarget_lock_acquire_recursive>
 80073f2:	89ab      	ldrh	r3, [r5, #12]
 80073f4:	071b      	lsls	r3, r3, #28
 80073f6:	d501      	bpl.n	80073fc <_vfiprintf_r+0x34>
 80073f8:	692b      	ldr	r3, [r5, #16]
 80073fa:	b99b      	cbnz	r3, 8007424 <_vfiprintf_r+0x5c>
 80073fc:	4629      	mov	r1, r5
 80073fe:	4630      	mov	r0, r6
 8007400:	f000 f938 	bl	8007674 <__swsetup_r>
 8007404:	b170      	cbz	r0, 8007424 <_vfiprintf_r+0x5c>
 8007406:	6e6b      	ldr	r3, [r5, #100]	@ 0x64
 8007408:	07dc      	lsls	r4, r3, #31
 800740a:	d504      	bpl.n	8007416 <_vfiprintf_r+0x4e>
 800740c:	f04f 30ff 	mov.w	r0, #4294967295
 8007410:	b01d      	add	sp, #116	@ 0x74
 8007412:	e8bd 8ff0 	ldmia.w	sp!, {r4, r5, r6, r7, r8, r9, sl, fp, pc}
 8007416:	89ab      	ldrh	r3, [r5, #12]
 8007418:	0598      	lsls	r0, r3, #22
 800741a:	d4f7      	bmi.n	800740c <_vfiprintf_r+0x44>
 800741c:	6da8      	ldr	r0, [r5, #88]	@ 0x58
 800741e:	f7fe f9ed 	bl	80057fc <__retarget_lock_release_recursive>
 8007422:	e7f3      	b.n	800740c <_vfiprintf_r+0x44>
 8007424:	2300      	movs	r3, #0
 8007426:	9309      	str	r3, [sp, #36]	@ 0x24
 8007428:	2320      	movs	r3, #32
 800742a:	f88d 3029 	strb.w	r3, [sp, #41]	@ 0x29
 800742e:	2330      	movs	r3, #48	@ 0x30
 8007430:	f04f 0901 	mov.w	r9, #1
 8007434:	f8cd 800c 	str.w	r8, [sp, #12]
 8007438:	f8df 81a8 	ldr.w	r8, [pc, #424]	@ 80075e4 <_vfiprintf_r+0x21c>
 800743c:	f88d 302a 	strb.w	r3, [sp, #42]	@ 0x2a
 8007440:	4623      	mov	r3, r4
 8007442:	469a      	mov	sl, r3
 8007444:	f813 2b01 	ldrb.w	r2, [r3], #1
 8007448:	b10a      	cbz	r2, 800744e <_vfiprintf_r+0x86>
 800744a:	2a25      	cmp	r2, #37	@ 0x25
 800744c:	d1f9      	bne.n	8007442 <_vfiprintf_r+0x7a>
 800744e:	ebba 0b04 	subs.w	fp, sl, r4
 8007452:	d00b      	beq.n	800746c <_vfiprintf_r+0xa4>
 8007454:	465b      	mov	r3, fp
 8007456:	4622      	mov	r2, r4
 8007458:	4629      	mov	r1, r5
 800745a:	4630      	mov	r0, r6
 800745c:	f7ff ffa2 	bl	80073a4 <__sfputs_r>
 8007460:	3001      	adds	r0, #1
 8007462:	f000 80a7 	beq.w	80075b4 <_vfiprintf_r+0x1ec>
 8007466:	9a09      	ldr	r2, [sp, #36]	@ 0x24
 8007468:	445a      	add	r2, fp
 800746a:	9209      	str	r2, [sp, #36]	@ 0x24
 800746c:	f89a 3000 	ldrb.w	r3, [sl]
 8007470:	2b00      	cmp	r3, #0
 8007472:	f000 809f 	beq.w	80075b4 <_vfiprintf_r+0x1ec>
 8007476:	2300      	movs	r3, #0
 8007478:	f04f 32ff 	mov.w	r2, #4294967295
 800747c:	e9cd 2305 	strd	r2, r3, [sp, #20]
 8007480:	f10a 0a01 	add.w	sl, sl, #1
 8007484:	9304      	str	r3, [sp, #16]
 8007486:	9307      	str	r3, [sp, #28]
 8007488:	f88d 3053 	strb.w	r3, [sp, #83]	@ 0x53
 800748c:	931a      	str	r3, [sp, #104]	@ 0x68
 800748e:	4654      	mov	r4, sl
 8007490:	2205      	movs	r2, #5
 8007492:	f814 1b01 	ldrb.w	r1, [r4], #1
 8007496:	4853      	ldr	r0, [pc, #332]	@ (80075e4 <_vfiprintf_r+0x21c>)
 8007498:	f7fe f9b1 	bl	80057fe <memchr>
 800749c:	9a04      	ldr	r2, [sp, #16]
 800749e:	b9d8      	cbnz	r0, 80074d8 <_vfiprintf_r+0x110>
 80074a0:	06d1      	lsls	r1, r2, #27
 80074a2:	bf44      	itt	mi
 80074a4:	2320      	movmi	r3, #32
 80074a6:	f88d 3053 	strbmi.w	r3, [sp, #83]	@ 0x53
 80074aa:	0713      	lsls	r3, r2, #28
 80074ac:	bf44      	itt	mi
 80074ae:	232b      	movmi	r3, #43	@ 0x2b
 80074b0:	f88d 3053 	strbmi.w	r3, [sp, #83]	@ 0x53
 80074b4:	f89a 3000 	ldrb.w	r3, [sl]
 80074b8:	2b2a      	cmp	r3, #42	@ 0x2a
 80074ba:	d015      	beq.n	80074e8 <_vfiprintf_r+0x120>
 80074bc:	4654      	mov	r4, sl
 80074be:	2000      	movs	r0, #0
 80074c0:	f04f 0c0a 	mov.w	ip, #10
 80074c4:	9a07      	ldr	r2, [sp, #28]
 80074c6:	4621      	mov	r1, r4
 80074c8:	f811 3b01 	ldrb.w	r3, [r1], #1
 80074cc:	3b30      	subs	r3, #48	@ 0x30
 80074ce:	2b09      	cmp	r3, #9
 80074d0:	d94b      	bls.n	800756a <_vfiprintf_r+0x1a2>
 80074d2:	b1b0      	cbz	r0, 8007502 <_vfiprintf_r+0x13a>
 80074d4:	9207      	str	r2, [sp, #28]
 80074d6:	e014      	b.n	8007502 <_vfiprintf_r+0x13a>
 80074d8:	eba0 0308 	sub.w	r3, r0, r8
 80074dc:	fa09 f303 	lsl.w	r3, r9, r3
 80074e0:	4313      	orrs	r3, r2
 80074e2:	46a2      	mov	sl, r4
 80074e4:	9304      	str	r3, [sp, #16]
 80074e6:	e7d2      	b.n	800748e <_vfiprintf_r+0xc6>
 80074e8:	9b03      	ldr	r3, [sp, #12]
 80074ea:	1d19      	adds	r1, r3, #4
 80074ec:	681b      	ldr	r3, [r3, #0]
 80074ee:	9103      	str	r1, [sp, #12]
 80074f0:	2b00      	cmp	r3, #0
 80074f2:	bfbb      	ittet	lt
 80074f4:	425b      	neglt	r3, r3
 80074f6:	f042 0202 	orrlt.w	r2, r2, #2
 80074fa:	9307      	strge	r3, [sp, #28]
 80074fc:	9307      	strlt	r3, [sp, #28]
 80074fe:	bfb8      	it	lt
 8007500:	9204      	strlt	r2, [sp, #16]
 8007502:	7823      	ldrb	r3, [r4, #0]
 8007504:	2b2e      	cmp	r3, #46	@ 0x2e
 8007506:	d10a      	bne.n	800751e <_vfiprintf_r+0x156>
 8007508:	7863      	ldrb	r3, [r4, #1]
 800750a:	2b2a      	cmp	r3, #42	@ 0x2a
 800750c:	d132      	bne.n	8007574 <_vfiprintf_r+0x1ac>
 800750e:	9b03      	ldr	r3, [sp, #12]
 8007510:	3402      	adds	r4, #2
 8007512:	1d1a      	adds	r2, r3, #4
 8007514:	681b      	ldr	r3, [r3, #0]
 8007516:	9203      	str	r2, [sp, #12]
 8007518:	ea43 73e3 	orr.w	r3, r3, r3, asr #31
 800751c:	9305      	str	r3, [sp, #20]
 800751e:	f8df a0c8 	ldr.w	sl, [pc, #200]	@ 80075e8 <_vfiprintf_r+0x220>
 8007522:	2203      	movs	r2, #3
 8007524:	4650      	mov	r0, sl
 8007526:	7821      	ldrb	r1, [r4, #0]
 8007528:	f7fe f969 	bl	80057fe <memchr>
 800752c:	b138      	cbz	r0, 800753e <_vfiprintf_r+0x176>
 800752e:	2240      	movs	r2, #64	@ 0x40
 8007530:	9b04      	ldr	r3, [sp, #16]
 8007532:	eba0 000a 	sub.w	r0, r0, sl
 8007536:	4082      	lsls	r2, r0
 8007538:	4313      	orrs	r3, r2
 800753a:	3401      	adds	r4, #1
 800753c:	9304      	str	r3, [sp, #16]
 800753e:	f814 1b01 	ldrb.w	r1, [r4], #1
 8007542:	2206      	movs	r2, #6
 8007544:	4829      	ldr	r0, [pc, #164]	@ (80075ec <_vfiprintf_r+0x224>)
 8007546:	f88d 1028 	strb.w	r1, [sp, #40]	@ 0x28
 800754a:	f7fe f958 	bl	80057fe <memchr>
 800754e:	2800      	cmp	r0, #0
 8007550:	d03f      	beq.n	80075d2 <_vfiprintf_r+0x20a>
 8007552:	4b27      	ldr	r3, [pc, #156]	@ (80075f0 <_vfiprintf_r+0x228>)
 8007554:	bb1b      	cbnz	r3, 800759e <_vfiprintf_r+0x1d6>
 8007556:	9b03      	ldr	r3, [sp, #12]
 8007558:	3307      	adds	r3, #7
 800755a:	f023 0307 	bic.w	r3, r3, #7
 800755e:	3308      	adds	r3, #8
 8007560:	9303      	str	r3, [sp, #12]
 8007562:	9b09      	ldr	r3, [sp, #36]	@ 0x24
 8007564:	443b      	add	r3, r7
 8007566:	9309      	str	r3, [sp, #36]	@ 0x24
 8007568:	e76a      	b.n	8007440 <_vfiprintf_r+0x78>
 800756a:	460c      	mov	r4, r1
 800756c:	2001      	movs	r0, #1
 800756e:	fb0c 3202 	mla	r2, ip, r2, r3
 8007572:	e7a8      	b.n	80074c6 <_vfiprintf_r+0xfe>
 8007574:	2300      	movs	r3, #0
 8007576:	f04f 0c0a 	mov.w	ip, #10
 800757a:	4619      	mov	r1, r3
 800757c:	3401      	adds	r4, #1
 800757e:	9305      	str	r3, [sp, #20]
 8007580:	4620      	mov	r0, r4
 8007582:	f810 2b01 	ldrb.w	r2, [r0], #1
 8007586:	3a30      	subs	r2, #48	@ 0x30
 8007588:	2a09      	cmp	r2, #9
 800758a:	d903      	bls.n	8007594 <_vfiprintf_r+0x1cc>
 800758c:	2b00      	cmp	r3, #0
 800758e:	d0c6      	beq.n	800751e <_vfiprintf_r+0x156>
 8007590:	9105      	str	r1, [sp, #20]
 8007592:	e7c4      	b.n	800751e <_vfiprintf_r+0x156>
 8007594:	4604      	mov	r4, r0
 8007596:	2301      	movs	r3, #1
 8007598:	fb0c 2101 	mla	r1, ip, r1, r2
 800759c:	e7f0      	b.n	8007580 <_vfiprintf_r+0x1b8>
 800759e:	ab03      	add	r3, sp, #12
 80075a0:	9300      	str	r3, [sp, #0]
 80075a2:	462a      	mov	r2, r5
 80075a4:	4630      	mov	r0, r6
 80075a6:	4b13      	ldr	r3, [pc, #76]	@ (80075f4 <_vfiprintf_r+0x22c>)
 80075a8:	a904      	add	r1, sp, #16
 80075aa:	f7fd fbb1 	bl	8004d10 <_printf_float>
 80075ae:	4607      	mov	r7, r0
 80075b0:	1c78      	adds	r0, r7, #1
 80075b2:	d1d6      	bne.n	8007562 <_vfiprintf_r+0x19a>
 80075b4:	6e6b      	ldr	r3, [r5, #100]	@ 0x64
 80075b6:	07d9      	lsls	r1, r3, #31
 80075b8:	d405      	bmi.n	80075c6 <_vfiprintf_r+0x1fe>
 80075ba:	89ab      	ldrh	r3, [r5, #12]
 80075bc:	059a      	lsls	r2, r3, #22
 80075be:	d402      	bmi.n	80075c6 <_vfiprintf_r+0x1fe>
 80075c0:	6da8      	ldr	r0, [r5, #88]	@ 0x58
 80075c2:	f7fe f91b 	bl	80057fc <__retarget_lock_release_recursive>
 80075c6:	89ab      	ldrh	r3, [r5, #12]
 80075c8:	065b      	lsls	r3, r3, #25
 80075ca:	f53f af1f 	bmi.w	800740c <_vfiprintf_r+0x44>
 80075ce:	9809      	ldr	r0, [sp, #36]	@ 0x24
 80075d0:	e71e      	b.n	8007410 <_vfiprintf_r+0x48>
 80075d2:	ab03      	add	r3, sp, #12
 80075d4:	9300      	str	r3, [sp, #0]
 80075d6:	462a      	mov	r2, r5
 80075d8:	4630      	mov	r0, r6
 80075da:	4b06      	ldr	r3, [pc, #24]	@ (80075f4 <_vfiprintf_r+0x22c>)
 80075dc:	a904      	add	r1, sp, #16
 80075de:	f7fd fe35 	bl	800524c <_printf_i>
 80075e2:	e7e4      	b.n	80075ae <_vfiprintf_r+0x1e6>
 80075e4:	08007aec 	.word	0x08007aec
 80075e8:	08007af2 	.word	0x08007af2
 80075ec:	08007af6 	.word	0x08007af6
 80075f0:	08004d11 	.word	0x08004d11
 80075f4:	080073a5 	.word	0x080073a5

080075f8 <__swbuf_r>:
 80075f8:	b5f8      	push	{r3, r4, r5, r6, r7, lr}
 80075fa:	460e      	mov	r6, r1
 80075fc:	4614      	mov	r4, r2
 80075fe:	4605      	mov	r5, r0
 8007600:	b118      	cbz	r0, 800760a <__swbuf_r+0x12>
 8007602:	6a03      	ldr	r3, [r0, #32]
 8007604:	b90b      	cbnz	r3, 800760a <__swbuf_r+0x12>
 8007606:	f7fd ffcb 	bl	80055a0 <__sinit>
 800760a:	69a3      	ldr	r3, [r4, #24]
 800760c:	60a3      	str	r3, [r4, #8]
 800760e:	89a3      	ldrh	r3, [r4, #12]
 8007610:	071a      	lsls	r2, r3, #28
 8007612:	d501      	bpl.n	8007618 <__swbuf_r+0x20>
 8007614:	6923      	ldr	r3, [r4, #16]
 8007616:	b943      	cbnz	r3, 800762a <__swbuf_r+0x32>
 8007618:	4621      	mov	r1, r4
 800761a:	4628      	mov	r0, r5
 800761c:	f000 f82a 	bl	8007674 <__swsetup_r>
 8007620:	b118      	cbz	r0, 800762a <__swbuf_r+0x32>
 8007622:	f04f 37ff 	mov.w	r7, #4294967295
 8007626:	4638      	mov	r0, r7
 8007628:	bdf8      	pop	{r3, r4, r5, r6, r7, pc}
 800762a:	6823      	ldr	r3, [r4, #0]
 800762c:	6922      	ldr	r2, [r4, #16]
 800762e:	b2f6      	uxtb	r6, r6
 8007630:	1a98      	subs	r0, r3, r2
 8007632:	6963      	ldr	r3, [r4, #20]
 8007634:	4637      	mov	r7, r6
 8007636:	4283      	cmp	r3, r0
 8007638:	dc05      	bgt.n	8007646 <__swbuf_r+0x4e>
 800763a:	4621      	mov	r1, r4
 800763c:	4628      	mov	r0, r5
 800763e:	f7ff fd9b 	bl	8007178 <_fflush_r>
 8007642:	2800      	cmp	r0, #0
 8007644:	d1ed      	bne.n	8007622 <__swbuf_r+0x2a>
 8007646:	68a3      	ldr	r3, [r4, #8]
 8007648:	3b01      	subs	r3, #1
 800764a:	60a3      	str	r3, [r4, #8]
 800764c:	6823      	ldr	r3, [r4, #0]
 800764e:	1c5a      	adds	r2, r3, #1
 8007650:	6022      	str	r2, [r4, #0]
 8007652:	701e      	strb	r6, [r3, #0]
 8007654:	6962      	ldr	r2, [r4, #20]
 8007656:	1c43      	adds	r3, r0, #1
 8007658:	429a      	cmp	r2, r3
 800765a:	d004      	beq.n	8007666 <__swbuf_r+0x6e>
 800765c:	89a3      	ldrh	r3, [r4, #12]
 800765e:	07db      	lsls	r3, r3, #31
 8007660:	d5e1      	bpl.n	8007626 <__swbuf_r+0x2e>
 8007662:	2e0a      	cmp	r6, #10
 8007664:	d1df      	bne.n	8007626 <__swbuf_r+0x2e>
 8007666:	4621      	mov	r1, r4
 8007668:	4628      	mov	r0, r5
 800766a:	f7ff fd85 	bl	8007178 <_fflush_r>
 800766e:	2800      	cmp	r0, #0
 8007670:	d0d9      	beq.n	8007626 <__swbuf_r+0x2e>
 8007672:	e7d6      	b.n	8007622 <__swbuf_r+0x2a>

08007674 <__swsetup_r>:
 8007674:	b538      	push	{r3, r4, r5, lr}
 8007676:	4b29      	ldr	r3, [pc, #164]	@ (800771c <__swsetup_r+0xa8>)
 8007678:	4605      	mov	r5, r0
 800767a:	6818      	ldr	r0, [r3, #0]
 800767c:	460c      	mov	r4, r1
 800767e:	b118      	cbz	r0, 8007688 <__swsetup_r+0x14>
 8007680:	6a03      	ldr	r3, [r0, #32]
 8007682:	b90b      	cbnz	r3, 8007688 <__swsetup_r+0x14>
 8007684:	f7fd ff8c 	bl	80055a0 <__sinit>
 8007688:	f9b4 300c 	ldrsh.w	r3, [r4, #12]
 800768c:	0719      	lsls	r1, r3, #28
 800768e:	d422      	bmi.n	80076d6 <__swsetup_r+0x62>
 8007690:	06da      	lsls	r2, r3, #27
 8007692:	d407      	bmi.n	80076a4 <__swsetup_r+0x30>
 8007694:	2209      	movs	r2, #9
 8007696:	602a      	str	r2, [r5, #0]
 8007698:	f043 0340 	orr.w	r3, r3, #64	@ 0x40
 800769c:	f04f 30ff 	mov.w	r0, #4294967295
 80076a0:	81a3      	strh	r3, [r4, #12]
 80076a2:	e033      	b.n	800770c <__swsetup_r+0x98>
 80076a4:	0758      	lsls	r0, r3, #29
 80076a6:	d512      	bpl.n	80076ce <__swsetup_r+0x5a>
 80076a8:	6b61      	ldr	r1, [r4, #52]	@ 0x34
 80076aa:	b141      	cbz	r1, 80076be <__swsetup_r+0x4a>
 80076ac:	f104 0344 	add.w	r3, r4, #68	@ 0x44
 80076b0:	4299      	cmp	r1, r3
 80076b2:	d002      	beq.n	80076ba <__swsetup_r+0x46>
 80076b4:	4628      	mov	r0, r5
 80076b6:	f7fe ff0f 	bl	80064d8 <_free_r>
 80076ba:	2300      	movs	r3, #0
 80076bc:	6363      	str	r3, [r4, #52]	@ 0x34
 80076be:	89a3      	ldrh	r3, [r4, #12]
 80076c0:	f023 0324 	bic.w	r3, r3, #36	@ 0x24
 80076c4:	81a3      	strh	r3, [r4, #12]
 80076c6:	2300      	movs	r3, #0
 80076c8:	6063      	str	r3, [r4, #4]
 80076ca:	6923      	ldr	r3, [r4, #16]
 80076cc:	6023      	str	r3, [r4, #0]
 80076ce:	89a3      	ldrh	r3, [r4, #12]
 80076d0:	f043 0308 	orr.w	r3, r3, #8
 80076d4:	81a3      	strh	r3, [r4, #12]
 80076d6:	6923      	ldr	r3, [r4, #16]
 80076d8:	b94b      	cbnz	r3, 80076ee <__swsetup_r+0x7a>
 80076da:	89a3      	ldrh	r3, [r4, #12]
 80076dc:	f403 7320 	and.w	r3, r3, #640	@ 0x280
 80076e0:	f5b3 7f00 	cmp.w	r3, #512	@ 0x200
 80076e4:	d003      	beq.n	80076ee <__swsetup_r+0x7a>
 80076e6:	4621      	mov	r1, r4
 80076e8:	4628      	mov	r0, r5
 80076ea:	f000 f882 	bl	80077f2 <__smakebuf_r>
 80076ee:	f9b4 300c 	ldrsh.w	r3, [r4, #12]
 80076f2:	f013 0201 	ands.w	r2, r3, #1
 80076f6:	d00a      	beq.n	800770e <__swsetup_r+0x9a>
 80076f8:	2200      	movs	r2, #0
 80076fa:	60a2      	str	r2, [r4, #8]
 80076fc:	6962      	ldr	r2, [r4, #20]
 80076fe:	4252      	negs	r2, r2
 8007700:	61a2      	str	r2, [r4, #24]
 8007702:	6922      	ldr	r2, [r4, #16]
 8007704:	b942      	cbnz	r2, 8007718 <__swsetup_r+0xa4>
 8007706:	f013 0080 	ands.w	r0, r3, #128	@ 0x80
 800770a:	d1c5      	bne.n	8007698 <__swsetup_r+0x24>
 800770c:	bd38      	pop	{r3, r4, r5, pc}
 800770e:	0799      	lsls	r1, r3, #30
 8007710:	bf58      	it	pl
 8007712:	6962      	ldrpl	r2, [r4, #20]
 8007714:	60a2      	str	r2, [r4, #8]
 8007716:	e7f4      	b.n	8007702 <__swsetup_r+0x8e>
 8007718:	2000      	movs	r0, #0
 800771a:	e7f7      	b.n	800770c <__swsetup_r+0x98>
 800771c:	20000018 	.word	0x20000018

08007720 <_raise_r>:
 8007720:	291f      	cmp	r1, #31
 8007722:	b538      	push	{r3, r4, r5, lr}
 8007724:	4605      	mov	r5, r0
 8007726:	460c      	mov	r4, r1
 8007728:	d904      	bls.n	8007734 <_raise_r+0x14>
 800772a:	2316      	movs	r3, #22
 800772c:	6003      	str	r3, [r0, #0]
 800772e:	f04f 30ff 	mov.w	r0, #4294967295
 8007732:	bd38      	pop	{r3, r4, r5, pc}
 8007734:	6bc2      	ldr	r2, [r0, #60]	@ 0x3c
 8007736:	b112      	cbz	r2, 800773e <_raise_r+0x1e>
 8007738:	f852 3021 	ldr.w	r3, [r2, r1, lsl #2]
 800773c:	b94b      	cbnz	r3, 8007752 <_raise_r+0x32>
 800773e:	4628      	mov	r0, r5
 8007740:	f000 f830 	bl	80077a4 <_getpid_r>
 8007744:	4622      	mov	r2, r4
 8007746:	4601      	mov	r1, r0
 8007748:	4628      	mov	r0, r5
 800774a:	e8bd 4038 	ldmia.w	sp!, {r3, r4, r5, lr}
 800774e:	f000 b817 	b.w	8007780 <_kill_r>
 8007752:	2b01      	cmp	r3, #1
 8007754:	d00a      	beq.n	800776c <_raise_r+0x4c>
 8007756:	1c59      	adds	r1, r3, #1
 8007758:	d103      	bne.n	8007762 <_raise_r+0x42>
 800775a:	2316      	movs	r3, #22
 800775c:	6003      	str	r3, [r0, #0]
 800775e:	2001      	movs	r0, #1
 8007760:	e7e7      	b.n	8007732 <_raise_r+0x12>
 8007762:	2100      	movs	r1, #0
 8007764:	4620      	mov	r0, r4
 8007766:	f842 1024 	str.w	r1, [r2, r4, lsl #2]
 800776a:	4798      	blx	r3
 800776c:	2000      	movs	r0, #0
 800776e:	e7e0      	b.n	8007732 <_raise_r+0x12>

08007770 <raise>:
 8007770:	4b02      	ldr	r3, [pc, #8]	@ (800777c <raise+0xc>)
 8007772:	4601      	mov	r1, r0
 8007774:	6818      	ldr	r0, [r3, #0]
 8007776:	f7ff bfd3 	b.w	8007720 <_raise_r>
 800777a:	bf00      	nop
 800777c:	20000018 	.word	0x20000018

08007780 <_kill_r>:
 8007780:	b538      	push	{r3, r4, r5, lr}
 8007782:	2300      	movs	r3, #0
 8007784:	4d06      	ldr	r5, [pc, #24]	@ (80077a0 <_kill_r+0x20>)
 8007786:	4604      	mov	r4, r0
 8007788:	4608      	mov	r0, r1
 800778a:	4611      	mov	r1, r2
 800778c:	602b      	str	r3, [r5, #0]
 800778e:	f7fa fb56 	bl	8001e3e <_kill>
 8007792:	1c43      	adds	r3, r0, #1
 8007794:	d102      	bne.n	800779c <_kill_r+0x1c>
 8007796:	682b      	ldr	r3, [r5, #0]
 8007798:	b103      	cbz	r3, 800779c <_kill_r+0x1c>
 800779a:	6023      	str	r3, [r4, #0]
 800779c:	bd38      	pop	{r3, r4, r5, pc}
 800779e:	bf00      	nop
 80077a0:	200004b0 	.word	0x200004b0

080077a4 <_getpid_r>:
 80077a4:	f7fa bb44 	b.w	8001e30 <_getpid>

080077a8 <__swhatbuf_r>:
 80077a8:	b570      	push	{r4, r5, r6, lr}
 80077aa:	460c      	mov	r4, r1
 80077ac:	f9b1 100e 	ldrsh.w	r1, [r1, #14]
 80077b0:	4615      	mov	r5, r2
 80077b2:	2900      	cmp	r1, #0
 80077b4:	461e      	mov	r6, r3
 80077b6:	b096      	sub	sp, #88	@ 0x58
 80077b8:	da0c      	bge.n	80077d4 <__swhatbuf_r+0x2c>
 80077ba:	89a3      	ldrh	r3, [r4, #12]
 80077bc:	2100      	movs	r1, #0
 80077be:	f013 0f80 	tst.w	r3, #128	@ 0x80
 80077c2:	bf14      	ite	ne
 80077c4:	2340      	movne	r3, #64	@ 0x40
 80077c6:	f44f 6380 	moveq.w	r3, #1024	@ 0x400
 80077ca:	2000      	movs	r0, #0
 80077cc:	6031      	str	r1, [r6, #0]
 80077ce:	602b      	str	r3, [r5, #0]
 80077d0:	b016      	add	sp, #88	@ 0x58
 80077d2:	bd70      	pop	{r4, r5, r6, pc}
 80077d4:	466a      	mov	r2, sp
 80077d6:	f000 f849 	bl	800786c <_fstat_r>
 80077da:	2800      	cmp	r0, #0
 80077dc:	dbed      	blt.n	80077ba <__swhatbuf_r+0x12>
 80077de:	9901      	ldr	r1, [sp, #4]
 80077e0:	f401 4170 	and.w	r1, r1, #61440	@ 0xf000
 80077e4:	f5a1 5300 	sub.w	r3, r1, #8192	@ 0x2000
 80077e8:	4259      	negs	r1, r3
 80077ea:	4159      	adcs	r1, r3
 80077ec:	f44f 6380 	mov.w	r3, #1024	@ 0x400
 80077f0:	e7eb      	b.n	80077ca <__swhatbuf_r+0x22>

080077f2 <__smakebuf_r>:
 80077f2:	898b      	ldrh	r3, [r1, #12]
 80077f4:	b5f7      	push	{r0, r1, r2, r4, r5, r6, r7, lr}
 80077f6:	079d      	lsls	r5, r3, #30
 80077f8:	4606      	mov	r6, r0
 80077fa:	460c      	mov	r4, r1
 80077fc:	d507      	bpl.n	800780e <__smakebuf_r+0x1c>
 80077fe:	f104 0347 	add.w	r3, r4, #71	@ 0x47
 8007802:	6023      	str	r3, [r4, #0]
 8007804:	6123      	str	r3, [r4, #16]
 8007806:	2301      	movs	r3, #1
 8007808:	6163      	str	r3, [r4, #20]
 800780a:	b003      	add	sp, #12
 800780c:	bdf0      	pop	{r4, r5, r6, r7, pc}
 800780e:	466a      	mov	r2, sp
 8007810:	ab01      	add	r3, sp, #4
 8007812:	f7ff ffc9 	bl	80077a8 <__swhatbuf_r>
 8007816:	9f00      	ldr	r7, [sp, #0]
 8007818:	4605      	mov	r5, r0
 800781a:	4639      	mov	r1, r7
 800781c:	4630      	mov	r0, r6
 800781e:	f7fe fecd 	bl	80065bc <_malloc_r>
 8007822:	b948      	cbnz	r0, 8007838 <__smakebuf_r+0x46>
 8007824:	f9b4 300c 	ldrsh.w	r3, [r4, #12]
 8007828:	059a      	lsls	r2, r3, #22
 800782a:	d4ee      	bmi.n	800780a <__smakebuf_r+0x18>
 800782c:	f023 0303 	bic.w	r3, r3, #3
 8007830:	f043 0302 	orr.w	r3, r3, #2
 8007834:	81a3      	strh	r3, [r4, #12]
 8007836:	e7e2      	b.n	80077fe <__smakebuf_r+0xc>
 8007838:	89a3      	ldrh	r3, [r4, #12]
 800783a:	e9c4 0704 	strd	r0, r7, [r4, #16]
 800783e:	f043 0380 	orr.w	r3, r3, #128	@ 0x80
 8007842:	81a3      	strh	r3, [r4, #12]
 8007844:	9b01      	ldr	r3, [sp, #4]
 8007846:	6020      	str	r0, [r4, #0]
 8007848:	b15b      	cbz	r3, 8007862 <__smakebuf_r+0x70>
 800784a:	4630      	mov	r0, r6
 800784c:	f9b4 100e 	ldrsh.w	r1, [r4, #14]
 8007850:	f000 f81e 	bl	8007890 <_isatty_r>
 8007854:	b128      	cbz	r0, 8007862 <__smakebuf_r+0x70>
 8007856:	89a3      	ldrh	r3, [r4, #12]
 8007858:	f023 0303 	bic.w	r3, r3, #3
 800785c:	f043 0301 	orr.w	r3, r3, #1
 8007860:	81a3      	strh	r3, [r4, #12]
 8007862:	89a3      	ldrh	r3, [r4, #12]
 8007864:	431d      	orrs	r5, r3
 8007866:	81a5      	strh	r5, [r4, #12]
 8007868:	e7cf      	b.n	800780a <__smakebuf_r+0x18>
	...

0800786c <_fstat_r>:
 800786c:	b538      	push	{r3, r4, r5, lr}
 800786e:	2300      	movs	r3, #0
 8007870:	4d06      	ldr	r5, [pc, #24]	@ (800788c <_fstat_r+0x20>)
 8007872:	4604      	mov	r4, r0
 8007874:	4608      	mov	r0, r1
 8007876:	4611      	mov	r1, r2
 8007878:	602b      	str	r3, [r5, #0]
 800787a:	f7fa fb3f 	bl	8001efc <_fstat>
 800787e:	1c43      	adds	r3, r0, #1
 8007880:	d102      	bne.n	8007888 <_fstat_r+0x1c>
 8007882:	682b      	ldr	r3, [r5, #0]
 8007884:	b103      	cbz	r3, 8007888 <_fstat_r+0x1c>
 8007886:	6023      	str	r3, [r4, #0]
 8007888:	bd38      	pop	{r3, r4, r5, pc}
 800788a:	bf00      	nop
 800788c:	200004b0 	.word	0x200004b0

08007890 <_isatty_r>:
 8007890:	b538      	push	{r3, r4, r5, lr}
 8007892:	2300      	movs	r3, #0
 8007894:	4d05      	ldr	r5, [pc, #20]	@ (80078ac <_isatty_r+0x1c>)
 8007896:	4604      	mov	r4, r0
 8007898:	4608      	mov	r0, r1
 800789a:	602b      	str	r3, [r5, #0]
 800789c:	f7fa fb3d 	bl	8001f1a <_isatty>
 80078a0:	1c43      	adds	r3, r0, #1
 80078a2:	d102      	bne.n	80078aa <_isatty_r+0x1a>
 80078a4:	682b      	ldr	r3, [r5, #0]
 80078a6:	b103      	cbz	r3, 80078aa <_isatty_r+0x1a>
 80078a8:	6023      	str	r3, [r4, #0]
 80078aa:	bd38      	pop	{r3, r4, r5, pc}
 80078ac:	200004b0 	.word	0x200004b0

080078b0 <_init>:
 80078b0:	b5f8      	push	{r3, r4, r5, r6, r7, lr}
 80078b2:	bf00      	nop
 80078b4:	bcf8      	pop	{r3, r4, r5, r6, r7}
 80078b6:	bc08      	pop	{r3}
 80078b8:	469e      	mov	lr, r3
 80078ba:	4770      	bx	lr

080078bc <_fini>:
 80078bc:	b5f8      	push	{r3, r4, r5, r6, r7, lr}
 80078be:	bf00      	nop
 80078c0:	bcf8      	pop	{r3, r4, r5, r6, r7}
 80078c2:	bc08      	pop	{r3}
 80078c4:	469e      	mov	lr, r3
 80078c6:	4770      	bx	lr
